
C:/Users/pdnv2/OneDrive/Documentos/BitDogLabProjects/Final_Demo_01/Joystick-Matriz-Painel/build/main.elf:     file format elf32-littlearm

Sections:
Idx Name          Size      VMA       LMA       File off  Algn
  0 .boot2        00000100  10000000  10000000  00001000  2**0
                  CONTENTS, ALLOC, LOAD, READONLY, CODE
  1 .text         0000ab84  10000100  10000100  00001100  2**3
                  CONTENTS, ALLOC, LOAD, READONLY, CODE
  2 .rodata       00001958  1000ac88  1000ac88  0000bc88  2**3
                  CONTENTS, ALLOC, LOAD, READONLY, DATA
  3 .binary_info  00000024  1000c5e0  1000c5e0  0000d5e0  2**2
                  CONTENTS, ALLOC, LOAD, READONLY, DATA
  4 .ram_vector_table 000000c0  20000000  20000000  00012000  2**2
                  ALLOC
  5 .uninitialized_data 00000000  200000c0  200000c0  00011c68  2**0
                  CONTENTS
  6 .data         00003ba8  200000c0  1000c604  0000e0c0  2**4
                  CONTENTS, ALLOC, LOAD, READONLY, CODE
  7 .tdata        00000000  20003c68  20003c68  00011c68  2**0
                  CONTENTS, ALLOC, LOAD, DATA, THREAD_LOCAL
  8 .tbss         00000000  20003c68  20003c68  00000000  2**0
                  ALLOC, THREAD_LOCAL
  9 .bss          000016a8  20003c68  100101ac  00011c68  2**3
                  ALLOC
 10 .heap         00000800  20005310  20005310  00011c68  2**2
                  CONTENTS, READONLY
 11 .scratch_x    00000000  20040000  20040000  00012468  2**0
                  CONTENTS
 12 .scratch_y    00000000  20041000  20041000  00012468  2**0
                  CONTENTS
 13 .stack_dummy  00000800  20041000  20041000  00012480  2**5
                  CONTENTS, READONLY
 14 .ARM.attributes 00000028  00000000  00000000  00012c80  2**0
                  CONTENTS, READONLY
 15 .comment      00000045  00000000  00000000  00012ca8  2**0
                  CONTENTS, READONLY
 16 .debug_info   00040967  00000000  00000000  00012ced  2**0
                  CONTENTS, READONLY, DEBUGGING, OCTETS
 17 .debug_abbrev 0000b3c9  00000000  00000000  00053654  2**0
                  CONTENTS, READONLY, DEBUGGING, OCTETS
 18 .debug_loclists 00023a4e  00000000  00000000  0005ea1d  2**0
                  CONTENTS, READONLY, DEBUGGING, OCTETS
 19 .debug_aranges 000019e8  00000000  00000000  00082470  2**3
                  CONTENTS, READONLY, DEBUGGING, OCTETS
 20 .debug_rnglists 00005970  00000000  00000000  00083e58  2**0
                  CONTENTS, READONLY, DEBUGGING, OCTETS
 21 .debug_line   0002db87  00000000  00000000  000897c8  2**0
                  CONTENTS, READONLY, DEBUGGING, OCTETS
 22 .debug_str    0000abff  00000000  00000000  000b734f  2**0
                  CONTENTS, READONLY, DEBUGGING, OCTETS
 23 .debug_frame  00004018  00000000  00000000  000c1f50  2**2
                  CONTENTS, READONLY, DEBUGGING, OCTETS
 24 .debug_line_str 00000455  00000000  00000000  000c5f68  2**0
                  CONTENTS, READONLY, DEBUGGING, OCTETS

C:/Users/pdnv2/OneDrive/Documentos/BitDogLabProjects/Final_Demo_01/Joystick-Matriz-Painel/build/main.elf:     file format elf32-littlearm


Disassembly of section .boot2:

10000000 <__boot2_start__>:
10000000:	4b32b500 	.word	0x4b32b500
10000004:	60582021 	.word	0x60582021
10000008:	21026898 	.word	0x21026898
1000000c:	60984388 	.word	0x60984388
10000010:	611860d8 	.word	0x611860d8
10000014:	4b2e6158 	.word	0x4b2e6158
10000018:	60992100 	.word	0x60992100
1000001c:	61592102 	.word	0x61592102
10000020:	22f02101 	.word	0x22f02101
10000024:	492b5099 	.word	0x492b5099
10000028:	21016019 	.word	0x21016019
1000002c:	20356099 	.word	0x20356099
10000030:	f844f000 	.word	0xf844f000
10000034:	42902202 	.word	0x42902202
10000038:	2106d014 	.word	0x2106d014
1000003c:	f0006619 	.word	0xf0006619
10000040:	6e19f834 	.word	0x6e19f834
10000044:	66192101 	.word	0x66192101
10000048:	66182000 	.word	0x66182000
1000004c:	f000661a 	.word	0xf000661a
10000050:	6e19f82c 	.word	0x6e19f82c
10000054:	6e196e19 	.word	0x6e196e19
10000058:	f0002005 	.word	0xf0002005
1000005c:	2101f82f 	.word	0x2101f82f
10000060:	d1f94208 	.word	0xd1f94208
10000064:	60992100 	.word	0x60992100
10000068:	6019491b 	.word	0x6019491b
1000006c:	60592100 	.word	0x60592100
10000070:	481b491a 	.word	0x481b491a
10000074:	21016001 	.word	0x21016001
10000078:	21eb6099 	.word	0x21eb6099
1000007c:	21a06619 	.word	0x21a06619
10000080:	f0006619 	.word	0xf0006619
10000084:	2100f812 	.word	0x2100f812
10000088:	49166099 	.word	0x49166099
1000008c:	60014814 	.word	0x60014814
10000090:	60992101 	.word	0x60992101
10000094:	2800bc01 	.word	0x2800bc01
10000098:	4700d000 	.word	0x4700d000
1000009c:	49134812 	.word	0x49134812
100000a0:	c8036008 	.word	0xc8036008
100000a4:	8808f380 	.word	0x8808f380
100000a8:	b5034708 	.word	0xb5034708
100000ac:	20046a99 	.word	0x20046a99
100000b0:	d0fb4201 	.word	0xd0fb4201
100000b4:	42012001 	.word	0x42012001
100000b8:	bd03d1f8 	.word	0xbd03d1f8
100000bc:	6618b502 	.word	0x6618b502
100000c0:	f7ff6618 	.word	0xf7ff6618
100000c4:	6e18fff2 	.word	0x6e18fff2
100000c8:	bd026e18 	.word	0xbd026e18
100000cc:	40020000 	.word	0x40020000
100000d0:	18000000 	.word	0x18000000
100000d4:	00070000 	.word	0x00070000
100000d8:	005f0300 	.word	0x005f0300
100000dc:	00002221 	.word	0x00002221
100000e0:	180000f4 	.word	0x180000f4
100000e4:	a0002022 	.word	0xa0002022
100000e8:	10000100 	.word	0x10000100
100000ec:	e000ed08 	.word	0xe000ed08
	...
100000fc:	7a4eb274 	.word	0x7a4eb274

Disassembly of section .text:

10000100 <__VECTOR_TABLE>:
10000100:	20042000 	.word	0x20042000
10000104:	100001f7 	.word	0x100001f7
10000108:	100001c3 	.word	0x100001c3
1000010c:	100001c5 	.word	0x100001c5
10000110:	100001c1 	.word	0x100001c1
10000114:	100001c1 	.word	0x100001c1
10000118:	100001c1 	.word	0x100001c1
1000011c:	100001c1 	.word	0x100001c1
10000120:	100001c1 	.word	0x100001c1
10000124:	100001c1 	.word	0x100001c1
10000128:	100001c1 	.word	0x100001c1
1000012c:	100001c7 	.word	0x100001c7
10000130:	100001c1 	.word	0x100001c1
10000134:	100001c1 	.word	0x100001c1
10000138:	100001c9 	.word	0x100001c9
1000013c:	100001cb 	.word	0x100001cb
10000140:	100001cd 	.word	0x100001cd
10000144:	100001cd 	.word	0x100001cd
10000148:	100001cd 	.word	0x100001cd
1000014c:	100001cd 	.word	0x100001cd
10000150:	100001cd 	.word	0x100001cd
10000154:	100001cd 	.word	0x100001cd
10000158:	100001cd 	.word	0x100001cd
1000015c:	100001cd 	.word	0x100001cd
10000160:	100001cd 	.word	0x100001cd
10000164:	100001cd 	.word	0x100001cd
10000168:	100001cd 	.word	0x100001cd
1000016c:	100001cd 	.word	0x100001cd
10000170:	100001cd 	.word	0x100001cd
10000174:	100001cd 	.word	0x100001cd
10000178:	100001cd 	.word	0x100001cd
1000017c:	100001cd 	.word	0x100001cd
10000180:	100001cd 	.word	0x100001cd
10000184:	100001cd 	.word	0x100001cd
10000188:	100001cd 	.word	0x100001cd
1000018c:	100001cd 	.word	0x100001cd
10000190:	100001cd 	.word	0x100001cd
10000194:	100001cd 	.word	0x100001cd
10000198:	100001cd 	.word	0x100001cd
1000019c:	100001cd 	.word	0x100001cd
100001a0:	100001cd 	.word	0x100001cd
100001a4:	100001cd 	.word	0x100001cd
100001a8:	100001cd 	.word	0x100001cd
100001ac:	100001cd 	.word	0x100001cd
100001b0:	100001cd 	.word	0x100001cd
100001b4:	100001cd 	.word	0x100001cd
100001b8:	100001cd 	.word	0x100001cd
100001bc:	100001cd 	.word	0x100001cd

100001c0 <isr_invalid>:
100001c0:	be00      	bkpt	0x0000

100001c2 <isr_nmi>:
100001c2:	be00      	bkpt	0x0000

100001c4 <isr_hardfault>:
100001c4:	be00      	bkpt	0x0000

100001c6 <isr_svcall>:
100001c6:	be00      	bkpt	0x0000

100001c8 <isr_pendsv>:
100001c8:	be00      	bkpt	0x0000

100001ca <isr_systick>:
100001ca:	be00      	bkpt	0x0000

100001cc <__unhandled_user_irq>:
100001cc:	f3ef 8005 	mrs	r0, IPSR
100001d0:	3810      	subs	r0, #16

100001d2 <unhandled_user_irq_num_in_r0>:
100001d2:	be00      	bkpt	0x0000

100001d4 <binary_info_header>:
100001d4:	7188ebf2 	.word	0x7188ebf2
100001d8:	1000c5e0 	.word	0x1000c5e0
100001dc:	1000c604 	.word	0x1000c604
100001e0:	10000238 	.word	0x10000238
100001e4:	e71aa390 	.word	0xe71aa390

100001e8 <_entry_point>:
100001e8:	481e      	ldr	r0, [pc, #120]	@ (10000264 <data_cpy_table+0x2c>)

100001ea <_enter_vtable_in_r0>:
100001ea:	491f      	ldr	r1, [pc, #124]	@ (10000268 <data_cpy_table+0x30>)
100001ec:	6008      	str	r0, [r1, #0]
100001ee:	c806      	ldmia	r0!, {r1, r2}
100001f0:	f381 8808 	msr	MSP, r1
100001f4:	4710      	bx	r2

100001f6 <_reset_handler>:
100001f6:	481d      	ldr	r0, [pc, #116]	@ (1000026c <data_cpy_table+0x34>)
100001f8:	6800      	ldr	r0, [r0, #0]
100001fa:	2800      	cmp	r0, #0
100001fc:	d001      	beq.n	10000202 <hold_non_core0_in_bootrom+0x4>

100001fe <hold_non_core0_in_bootrom>:
100001fe:	4819      	ldr	r0, [pc, #100]	@ (10000264 <data_cpy_table+0x2c>)
10000200:	e7f3      	b.n	100001ea <_enter_vtable_in_r0>
10000202:	a40d      	add	r4, pc, #52	@ (adr r4, 10000238 <data_cpy_table>)
10000204:	cc0e      	ldmia	r4!, {r1, r2, r3}
10000206:	2900      	cmp	r1, #0
10000208:	d002      	beq.n	10000210 <hold_non_core0_in_bootrom+0x12>
1000020a:	f000 f812 	bl	10000232 <data_cpy>
1000020e:	e7f9      	b.n	10000204 <hold_non_core0_in_bootrom+0x6>
10000210:	4917      	ldr	r1, [pc, #92]	@ (10000270 <data_cpy_table+0x38>)
10000212:	4a18      	ldr	r2, [pc, #96]	@ (10000274 <data_cpy_table+0x3c>)
10000214:	2000      	movs	r0, #0
10000216:	e000      	b.n	1000021a <bss_fill_test>

10000218 <bss_fill_loop>:
10000218:	c101      	stmia	r1!, {r0}

1000021a <bss_fill_test>:
1000021a:	4291      	cmp	r1, r2
1000021c:	d1fc      	bne.n	10000218 <bss_fill_loop>

1000021e <platform_entry>:
1000021e:	4916      	ldr	r1, [pc, #88]	@ (10000278 <data_cpy_table+0x40>)
10000220:	4788      	blx	r1
10000222:	4916      	ldr	r1, [pc, #88]	@ (1000027c <data_cpy_table+0x44>)
10000224:	4788      	blx	r1
10000226:	4916      	ldr	r1, [pc, #88]	@ (10000280 <data_cpy_table+0x48>)
10000228:	4788      	blx	r1
1000022a:	be00      	bkpt	0x0000
1000022c:	e7fd      	b.n	1000022a <platform_entry+0xc>

1000022e <data_cpy_loop>:
1000022e:	c901      	ldmia	r1!, {r0}
10000230:	c201      	stmia	r2!, {r0}

10000232 <data_cpy>:
10000232:	429a      	cmp	r2, r3
10000234:	d3fb      	bcc.n	1000022e <data_cpy_loop>
10000236:	4770      	bx	lr

10000238 <data_cpy_table>:
10000238:	1000c604 	.word	0x1000c604
1000023c:	200000c0 	.word	0x200000c0
10000240:	20003c68 	.word	0x20003c68
10000244:	100101ac 	.word	0x100101ac
10000248:	20040000 	.word	0x20040000
1000024c:	20040000 	.word	0x20040000
10000250:	100101ac 	.word	0x100101ac
10000254:	20041000 	.word	0x20041000
10000258:	20041000 	.word	0x20041000
1000025c:	00000000 	.word	0x00000000
10000260:	4770      	bx	lr
10000262:	0000      	.short	0x0000
10000264:	00000000 	.word	0x00000000
10000268:	e000ed08 	.word	0xe000ed08
1000026c:	d0000000 	.word	0xd0000000
10000270:	20003c68 	.word	0x20003c68
10000274:	20005310 	.word	0x20005310
10000278:	100070d5 	.word	0x100070d5
1000027c:	1000036d 	.word	0x1000036d
10000280:	100070cd 	.word	0x100070cd

10000284 <_init>:
10000284:	b5f8      	push	{r3, r4, r5, r6, r7, lr}
10000286:	46c0      	nop			@ (mov r8, r8)

10000288 <register_tm_clones>:
10000288:	4806      	ldr	r0, [pc, #24]	@ (100002a4 <register_tm_clones+0x1c>)
1000028a:	4907      	ldr	r1, [pc, #28]	@ (100002a8 <register_tm_clones+0x20>)
1000028c:	1a09      	subs	r1, r1, r0
1000028e:	108b      	asrs	r3, r1, #2
10000290:	0fc9      	lsrs	r1, r1, #31
10000292:	18c9      	adds	r1, r1, r3
10000294:	b510      	push	{r4, lr}
10000296:	1049      	asrs	r1, r1, #1
10000298:	d003      	beq.n	100002a2 <register_tm_clones+0x1a>
1000029a:	4b04      	ldr	r3, [pc, #16]	@ (100002ac <register_tm_clones+0x24>)
1000029c:	2b00      	cmp	r3, #0
1000029e:	d000      	beq.n	100002a2 <register_tm_clones+0x1a>
100002a0:	4798      	blx	r3
100002a2:	bd10      	pop	{r4, pc}
100002a4:	20003c68 	.word	0x20003c68
100002a8:	20003c68 	.word	0x20003c68
100002ac:	00000000 	.word	0x00000000

100002b0 <frame_dummy>:
100002b0:	4b05      	ldr	r3, [pc, #20]	@ (100002c8 <frame_dummy+0x18>)
100002b2:	b510      	push	{r4, lr}
100002b4:	2b00      	cmp	r3, #0
100002b6:	d003      	beq.n	100002c0 <frame_dummy+0x10>
100002b8:	4904      	ldr	r1, [pc, #16]	@ (100002cc <frame_dummy+0x1c>)
100002ba:	4805      	ldr	r0, [pc, #20]	@ (100002d0 <frame_dummy+0x20>)
100002bc:	e000      	b.n	100002c0 <frame_dummy+0x10>
100002be:	bf00      	nop
100002c0:	f7ff ffe2 	bl	10000288 <register_tm_clones>
100002c4:	bd10      	pop	{r4, pc}
100002c6:	46c0      	nop			@ (mov r8, r8)
100002c8:	00000000 	.word	0x00000000
100002cc:	20005178 	.word	0x20005178
100002d0:	1000ac84 	.word	0x1000ac84

100002d4 <adc_gpio_init>:
100002d4:	b510      	push	{r4, lr}
100002d6:	0004      	movs	r4, r0
100002d8:	211f      	movs	r1, #31
100002da:	f002 fff7 	bl	100032cc <gpio_set_function>
100002de:	2200      	movs	r2, #0
100002e0:	0020      	movs	r0, r4
100002e2:	2100      	movs	r1, #0
100002e4:	f003 f80c 	bl	10003300 <gpio_set_pulls>
100002e8:	2100      	movs	r1, #0
100002ea:	0020      	movs	r0, r4
100002ec:	f003 f884 	bl	100033f8 <gpio_set_input_enabled>
100002f0:	bd10      	pop	{r4, pc}
100002f2:	46c0      	nop			@ (mov r8, r8)

100002f4 <inicializar_sistema>:
100002f4:	b5f0      	push	{r4, r5, r6, r7, lr}
100002f6:	0005      	movs	r5, r0
100002f8:	20fa      	movs	r0, #250	@ 0xfa
100002fa:	b085      	sub	sp, #20
100002fc:	000f      	movs	r7, r1
100002fe:	0016      	movs	r6, r2
10000300:	ab03      	add	r3, sp, #12
10000302:	aa02      	add	r2, sp, #8
10000304:	a901      	add	r1, sp, #4
10000306:	0240      	lsls	r0, r0, #9
10000308:	f004 fa94 	bl	10004834 <check_sys_clock_khz>
1000030c:	1e04      	subs	r4, r0, #0
1000030e:	d106      	bne.n	1000031e <inicializar_sistema+0x2a>
10000310:	4812      	ldr	r0, [pc, #72]	@ (1000035c <inicializar_sistema+0x68>)
10000312:	f007 f86b 	bl	100073ec <__wrap_puts>
10000316:	2400      	movs	r4, #0
10000318:	0020      	movs	r0, r4
1000031a:	b005      	add	sp, #20
1000031c:	bdf0      	pop	{r4, r5, r6, r7, pc}
1000031e:	9a03      	ldr	r2, [sp, #12]
10000320:	9902      	ldr	r1, [sp, #8]
10000322:	9801      	ldr	r0, [sp, #4]
10000324:	f004 f9aa 	bl	1000467c <set_sys_clock_pll>
10000328:	480d      	ldr	r0, [pc, #52]	@ (10000360 <inicializar_sistema+0x6c>)
1000032a:	490e      	ldr	r1, [pc, #56]	@ (10000364 <inicializar_sistema+0x70>)
1000032c:	6028      	str	r0, [r5, #0]
1000032e:	f009 fcdd 	bl	10009cec <pio_add_program>
10000332:	2101      	movs	r1, #1
10000334:	6030      	str	r0, [r6, #0]
10000336:	6828      	ldr	r0, [r5, #0]
10000338:	f009 fcbc 	bl	10009cb4 <pio_claim_unused_sm>
1000033c:	6038      	str	r0, [r7, #0]
1000033e:	6832      	ldr	r2, [r6, #0]
10000340:	0001      	movs	r1, r0
10000342:	1c53      	adds	r3, r2, #1
10000344:	d006      	beq.n	10000354 <inicializar_sistema+0x60>
10000346:	1c43      	adds	r3, r0, #1
10000348:	d004      	beq.n	10000354 <inicializar_sistema+0x60>
1000034a:	2307      	movs	r3, #7
1000034c:	6828      	ldr	r0, [r5, #0]
1000034e:	f001 fbc1 	bl	10001ad4 <main_program_init>
10000352:	e7e1      	b.n	10000318 <inicializar_sistema+0x24>
10000354:	4804      	ldr	r0, [pc, #16]	@ (10000368 <inicializar_sistema+0x74>)
10000356:	f007 f849 	bl	100073ec <__wrap_puts>
1000035a:	e7dc      	b.n	10000316 <inicializar_sistema+0x22>
1000035c:	1000ac88 	.word	0x1000ac88
10000360:	50200000 	.word	0x50200000
10000364:	1000b770 	.word	0x1000b770
10000368:	1000acb0 	.word	0x1000acb0

1000036c <main>:
1000036c:	b5f0      	push	{r4, r5, r6, r7, lr}
1000036e:	46de      	mov	lr, fp
10000370:	4657      	mov	r7, sl
10000372:	464e      	mov	r6, r9
10000374:	4645      	mov	r5, r8
10000376:	b5e0      	push	{r5, r6, r7, lr}
10000378:	b0a1      	sub	sp, #132	@ 0x84
1000037a:	f006 ffe9 	bl	10007350 <stdio_init_all>
1000037e:	f009 fdd9 	bl	10009f34 <adc_init>
10000382:	201a      	movs	r0, #26
10000384:	f7ff ffa6 	bl	100002d4 <adc_gpio_init>
10000388:	201b      	movs	r0, #27
1000038a:	f7ff ffa3 	bl	100002d4 <adc_gpio_init>
1000038e:	4a48      	ldr	r2, [pc, #288]	@ (100004b0 <main+0x144>)
10000390:	4948      	ldr	r1, [pc, #288]	@ (100004b4 <main+0x148>)
10000392:	4849      	ldr	r0, [pc, #292]	@ (100004b8 <main+0x14c>)
10000394:	f7ff ffae 	bl	100002f4 <inicializar_sistema>
10000398:	2800      	cmp	r0, #0
1000039a:	d107      	bne.n	100003ac <main+0x40>
1000039c:	2001      	movs	r0, #1
1000039e:	b021      	add	sp, #132	@ 0x84
100003a0:	bcf0      	pop	{r4, r5, r6, r7}
100003a2:	46bb      	mov	fp, r7
100003a4:	46b2      	mov	sl, r6
100003a6:	46a9      	mov	r9, r5
100003a8:	46a0      	mov	r8, r4
100003aa:	bdf0      	pop	{r4, r5, r6, r7, pc}
100003ac:	2016      	movs	r0, #22
100003ae:	f000 fae1 	bl	10000974 <botao_init>
100003b2:	2006      	movs	r0, #6
100003b4:	f000 fade 	bl	10000974 <botao_init>
100003b8:	2005      	movs	r0, #5
100003ba:	f000 fadb 	bl	10000974 <botao_init>
100003be:	f000 ff3f 	bl	10001240 <menu_init>
100003c2:	4b3e      	ldr	r3, [pc, #248]	@ (100004bc <main+0x150>)
100003c4:	4d3e      	ldr	r5, [pc, #248]	@ (100004c0 <main+0x154>)
100003c6:	469a      	mov	sl, r3
100003c8:	4b3e      	ldr	r3, [pc, #248]	@ (100004c4 <main+0x158>)
100003ca:	4c3f      	ldr	r4, [pc, #252]	@ (100004c8 <main+0x15c>)
100003cc:	469b      	mov	fp, r3
100003ce:	4b3f      	ldr	r3, [pc, #252]	@ (100004cc <main+0x160>)
100003d0:	4f3f      	ldr	r7, [pc, #252]	@ (100004d0 <main+0x164>)
100003d2:	931b      	str	r3, [sp, #108]	@ 0x6c
100003d4:	4b3f      	ldr	r3, [pc, #252]	@ (100004d4 <main+0x168>)
100003d6:	931d      	str	r3, [sp, #116]	@ 0x74
100003d8:	4b3f      	ldr	r3, [pc, #252]	@ (100004d8 <main+0x16c>)
100003da:	931e      	str	r3, [sp, #120]	@ 0x78
100003dc:	4b3f      	ldr	r3, [pc, #252]	@ (100004dc <main+0x170>)
100003de:	931f      	str	r3, [sp, #124]	@ 0x7c
100003e0:	4b3f      	ldr	r3, [pc, #252]	@ (100004e0 <main+0x174>)
100003e2:	9314      	str	r3, [sp, #80]	@ 0x50
100003e4:	4b3f      	ldr	r3, [pc, #252]	@ (100004e4 <main+0x178>)
100003e6:	9317      	str	r3, [sp, #92]	@ 0x5c
100003e8:	4b3f      	ldr	r3, [pc, #252]	@ (100004e8 <main+0x17c>)
100003ea:	9319      	str	r3, [sp, #100]	@ 0x64
100003ec:	4b3f      	ldr	r3, [pc, #252]	@ (100004ec <main+0x180>)
100003ee:	931c      	str	r3, [sp, #112]	@ 0x70
100003f0:	4b3f      	ldr	r3, [pc, #252]	@ (100004f0 <main+0x184>)
100003f2:	9303      	str	r3, [sp, #12]
100003f4:	4b3f      	ldr	r3, [pc, #252]	@ (100004f4 <main+0x188>)
100003f6:	930f      	str	r3, [sp, #60]	@ 0x3c
100003f8:	4b3f      	ldr	r3, [pc, #252]	@ (100004f8 <main+0x18c>)
100003fa:	9312      	str	r3, [sp, #72]	@ 0x48
100003fc:	4b3f      	ldr	r3, [pc, #252]	@ (100004fc <main+0x190>)
100003fe:	9315      	str	r3, [sp, #84]	@ 0x54
10000400:	4b3f      	ldr	r3, [pc, #252]	@ (10000500 <main+0x194>)
10000402:	9318      	str	r3, [sp, #96]	@ 0x60
10000404:	4b3f      	ldr	r3, [pc, #252]	@ (10000504 <main+0x198>)
10000406:	931a      	str	r3, [sp, #104]	@ 0x68
10000408:	4b3f      	ldr	r3, [pc, #252]	@ (10000508 <main+0x19c>)
1000040a:	930a      	str	r3, [sp, #40]	@ 0x28
1000040c:	4b3f      	ldr	r3, [pc, #252]	@ (1000050c <main+0x1a0>)
1000040e:	930d      	str	r3, [sp, #52]	@ 0x34
10000410:	4b3f      	ldr	r3, [pc, #252]	@ (10000510 <main+0x1a4>)
10000412:	9310      	str	r3, [sp, #64]	@ 0x40
10000414:	4b3f      	ldr	r3, [pc, #252]	@ (10000514 <main+0x1a8>)
10000416:	9313      	str	r3, [sp, #76]	@ 0x4c
10000418:	4b3f      	ldr	r3, [pc, #252]	@ (10000518 <main+0x1ac>)
1000041a:	9316      	str	r3, [sp, #88]	@ 0x58
1000041c:	4b3f      	ldr	r3, [pc, #252]	@ (1000051c <main+0x1b0>)
1000041e:	9306      	str	r3, [sp, #24]
10000420:	4b3f      	ldr	r3, [pc, #252]	@ (10000520 <main+0x1b4>)
10000422:	9308      	str	r3, [sp, #32]
10000424:	4b3f      	ldr	r3, [pc, #252]	@ (10000524 <main+0x1b8>)
10000426:	930b      	str	r3, [sp, #44]	@ 0x2c
10000428:	4b3f      	ldr	r3, [pc, #252]	@ (10000528 <main+0x1bc>)
1000042a:	930e      	str	r3, [sp, #56]	@ 0x38
1000042c:	4b3f      	ldr	r3, [pc, #252]	@ (1000052c <main+0x1c0>)
1000042e:	9311      	str	r3, [sp, #68]	@ 0x44
10000430:	4b3f      	ldr	r3, [pc, #252]	@ (10000530 <main+0x1c4>)
10000432:	9304      	str	r3, [sp, #16]
10000434:	4b3f      	ldr	r3, [pc, #252]	@ (10000534 <main+0x1c8>)
10000436:	9305      	str	r3, [sp, #20]
10000438:	4b3f      	ldr	r3, [pc, #252]	@ (10000538 <main+0x1cc>)
1000043a:	9307      	str	r3, [sp, #28]
1000043c:	4b3f      	ldr	r3, [pc, #252]	@ (1000053c <main+0x1d0>)
1000043e:	9309      	str	r3, [sp, #36]	@ 0x24
10000440:	4b3f      	ldr	r3, [pc, #252]	@ (10000540 <main+0x1d4>)
10000442:	930c      	str	r3, [sp, #48]	@ 0x30
10000444:	23e0      	movs	r3, #224	@ 0xe0
10000446:	01db      	lsls	r3, r3, #7
10000448:	4699      	mov	r9, r3
1000044a:	2304      	movs	r3, #4
1000044c:	4698      	mov	r8, r3
1000044e:	464a      	mov	r2, r9
10000450:	6823      	ldr	r3, [r4, #0]
10000452:	4013      	ands	r3, r2
10000454:	4a3b      	ldr	r2, [pc, #236]	@ (10000544 <main+0x1d8>)
10000456:	6013      	str	r3, [r2, #0]
10000458:	4643      	mov	r3, r8
1000045a:	2280      	movs	r2, #128	@ 0x80
1000045c:	603b      	str	r3, [r7, #0]
1000045e:	0052      	lsls	r2, r2, #1
10000460:	6823      	ldr	r3, [r4, #0]
10000462:	4213      	tst	r3, r2
10000464:	d0fc      	beq.n	10000460 <main+0xf4>
10000466:	2380      	movs	r3, #128	@ 0x80
10000468:	6861      	ldr	r1, [r4, #4]
1000046a:	6822      	ldr	r2, [r4, #0]
1000046c:	015b      	lsls	r3, r3, #5
1000046e:	4053      	eors	r3, r2
10000470:	464a      	mov	r2, r9
10000472:	4013      	ands	r3, r2
10000474:	4a33      	ldr	r2, [pc, #204]	@ (10000544 <main+0x1d8>)
10000476:	0409      	lsls	r1, r1, #16
10000478:	6013      	str	r3, [r2, #0]
1000047a:	4643      	mov	r3, r8
1000047c:	2280      	movs	r2, #128	@ 0x80
1000047e:	0c09      	lsrs	r1, r1, #16
10000480:	603b      	str	r3, [r7, #0]
10000482:	0052      	lsls	r2, r2, #1
10000484:	6823      	ldr	r3, [r4, #0]
10000486:	4213      	tst	r3, r2
10000488:	d0fc      	beq.n	10000484 <main+0x118>
1000048a:	4653      	mov	r3, sl
1000048c:	6860      	ldr	r0, [r4, #4]
1000048e:	781b      	ldrb	r3, [r3, #0]
10000490:	0400      	lsls	r0, r0, #16
10000492:	0c00      	lsrs	r0, r0, #16
10000494:	2b05      	cmp	r3, #5
10000496:	d806      	bhi.n	100004a6 <main+0x13a>
10000498:	465a      	mov	r2, fp
1000049a:	009b      	lsls	r3, r3, #2
1000049c:	58d3      	ldr	r3, [r2, r3]
1000049e:	469f      	mov	pc, r3
100004a0:	2200      	movs	r2, #0
100004a2:	f001 f96f 	bl	10001784 <menu_update>
100004a6:	2078      	movs	r0, #120	@ 0x78
100004a8:	f003 fec4 	bl	10004234 <sleep_ms>
100004ac:	e7cf      	b.n	1000044e <main+0xe2>
100004ae:	46c0      	nop			@ (mov r8, r8)
100004b0:	20005190 	.word	0x20005190
100004b4:	200052cc 	.word	0x200052cc
100004b8:	2000519c 	.word	0x2000519c
100004bc:	20005304 	.word	0x20005304
100004c0:	1000b788 	.word	0x1000b788
100004c4:	1000b758 	.word	0x1000b758
100004c8:	4004c000 	.word	0x4004c000
100004cc:	1000accc 	.word	0x1000accc
100004d0:	4004e000 	.word	0x4004e000
100004d4:	1000acf0 	.word	0x1000acf0
100004d8:	1000ad04 	.word	0x1000ad04
100004dc:	1000ad0c 	.word	0x1000ad0c
100004e0:	1000ad1c 	.word	0x1000ad1c
100004e4:	1000ad24 	.word	0x1000ad24
100004e8:	1000ad94 	.word	0x1000ad94
100004ec:	1000ad34 	.word	0x1000ad34
100004f0:	1000ad4c 	.word	0x1000ad4c
100004f4:	1000ad5c 	.word	0x1000ad5c
100004f8:	1000ad74 	.word	0x1000ad74
100004fc:	1000ad84 	.word	0x1000ad84
10000500:	1000ad9c 	.word	0x1000ad9c
10000504:	1000adac 	.word	0x1000adac
10000508:	1000ad6c 	.word	0x1000ad6c
1000050c:	1000adb8 	.word	0x1000adb8
10000510:	1000adc8 	.word	0x1000adc8
10000514:	1000add4 	.word	0x1000add4
10000518:	1000ade8 	.word	0x1000ade8
1000051c:	1000ae0c 	.word	0x1000ae0c
10000520:	1000ae34 	.word	0x1000ae34
10000524:	1000ae54 	.word	0x1000ae54
10000528:	1000ae88 	.word	0x1000ae88
1000052c:	1000ae98 	.word	0x1000ae98
10000530:	1000aed0 	.word	0x1000aed0
10000534:	1000aee4 	.word	0x1000aee4
10000538:	1000af14 	.word	0x1000af14
1000053c:	1000af28 	.word	0x1000af28
10000540:	1000af4c 	.word	0x1000af4c
10000544:	4004d000 	.word	0x4004d000
10000548:	2601      	movs	r6, #1
1000054a:	981b      	ldr	r0, [sp, #108]	@ 0x6c
1000054c:	f006 ff4e 	bl	100073ec <__wrap_puts>
10000550:	981d      	ldr	r0, [sp, #116]	@ 0x74
10000552:	f006 ff4b 	bl	100073ec <__wrap_puts>
10000556:	49d1      	ldr	r1, [pc, #836]	@ (1000089c <main+0x530>)
10000558:	2200      	movs	r2, #0
1000055a:	0008      	movs	r0, r1
1000055c:	f000 fa22 	bl	100009a4 <print_direction>
10000560:	2000      	movs	r0, #0
10000562:	f000 faff 	bl	10000b64 <ssd1306_Fill>
10000566:	210a      	movs	r1, #10
10000568:	200a      	movs	r0, #10
1000056a:	f000 fdd1 	bl	10001110 <ssd1306_SetCursor>
1000056e:	68ab      	ldr	r3, [r5, #8]
10000570:	6829      	ldr	r1, [r5, #0]
10000572:	686a      	ldr	r2, [r5, #4]
10000574:	981e      	ldr	r0, [sp, #120]	@ 0x78
10000576:	9600      	str	r6, [sp, #0]
10000578:	f000 fdaa 	bl	100010d0 <ssd1306_WriteString>
1000057c:	f000 fb00 	bl	10000b80 <ssd1306_UpdateScreen>
10000580:	20fa      	movs	r0, #250	@ 0xfa
10000582:	00c0      	lsls	r0, r0, #3
10000584:	f003 fe56 	bl	10004234 <sleep_ms>
10000588:	981f      	ldr	r0, [sp, #124]	@ 0x7c
1000058a:	f006 ff2f 	bl	100073ec <__wrap_puts>
1000058e:	2200      	movs	r2, #0
10000590:	49c2      	ldr	r1, [pc, #776]	@ (1000089c <main+0x530>)
10000592:	48c3      	ldr	r0, [pc, #780]	@ (100008a0 <main+0x534>)
10000594:	f000 fa06 	bl	100009a4 <print_direction>
10000598:	2000      	movs	r0, #0
1000059a:	f000 fae3 	bl	10000b64 <ssd1306_Fill>
1000059e:	210a      	movs	r1, #10
100005a0:	200a      	movs	r0, #10
100005a2:	f000 fdb5 	bl	10001110 <ssd1306_SetCursor>
100005a6:	68ab      	ldr	r3, [r5, #8]
100005a8:	6829      	ldr	r1, [r5, #0]
100005aa:	686a      	ldr	r2, [r5, #4]
100005ac:	9814      	ldr	r0, [sp, #80]	@ 0x50
100005ae:	9600      	str	r6, [sp, #0]
100005b0:	f000 fd8e 	bl	100010d0 <ssd1306_WriteString>
100005b4:	f000 fae4 	bl	10000b80 <ssd1306_UpdateScreen>
100005b8:	20fa      	movs	r0, #250	@ 0xfa
100005ba:	00c0      	lsls	r0, r0, #3
100005bc:	f003 fe3a 	bl	10004234 <sleep_ms>
100005c0:	9817      	ldr	r0, [sp, #92]	@ 0x5c
100005c2:	f006 ff13 	bl	100073ec <__wrap_puts>
100005c6:	2200      	movs	r2, #0
100005c8:	49b5      	ldr	r1, [pc, #724]	@ (100008a0 <main+0x534>)
100005ca:	48b4      	ldr	r0, [pc, #720]	@ (1000089c <main+0x530>)
100005cc:	f000 f9ea 	bl	100009a4 <print_direction>
100005d0:	2000      	movs	r0, #0
100005d2:	f000 fac7 	bl	10000b64 <ssd1306_Fill>
100005d6:	210a      	movs	r1, #10
100005d8:	200a      	movs	r0, #10
100005da:	f000 fd99 	bl	10001110 <ssd1306_SetCursor>
100005de:	68ab      	ldr	r3, [r5, #8]
100005e0:	6829      	ldr	r1, [r5, #0]
100005e2:	686a      	ldr	r2, [r5, #4]
100005e4:	9819      	ldr	r0, [sp, #100]	@ 0x64
100005e6:	9600      	str	r6, [sp, #0]
100005e8:	f000 fd72 	bl	100010d0 <ssd1306_WriteString>
100005ec:	f000 fac8 	bl	10000b80 <ssd1306_UpdateScreen>
100005f0:	20fa      	movs	r0, #250	@ 0xfa
100005f2:	00c0      	lsls	r0, r0, #3
100005f4:	f003 fe1e 	bl	10004234 <sleep_ms>
100005f8:	981c      	ldr	r0, [sp, #112]	@ 0x70
100005fa:	f006 fef7 	bl	100073ec <__wrap_puts>
100005fe:	49a8      	ldr	r1, [pc, #672]	@ (100008a0 <main+0x534>)
10000600:	2200      	movs	r2, #0
10000602:	0008      	movs	r0, r1
10000604:	f000 f9ce 	bl	100009a4 <print_direction>
10000608:	2000      	movs	r0, #0
1000060a:	f000 faab 	bl	10000b64 <ssd1306_Fill>
1000060e:	210a      	movs	r1, #10
10000610:	200a      	movs	r0, #10
10000612:	f000 fd7d 	bl	10001110 <ssd1306_SetCursor>
10000616:	68ab      	ldr	r3, [r5, #8]
10000618:	6829      	ldr	r1, [r5, #0]
1000061a:	686a      	ldr	r2, [r5, #4]
1000061c:	9803      	ldr	r0, [sp, #12]
1000061e:	9600      	str	r6, [sp, #0]
10000620:	f000 fd56 	bl	100010d0 <ssd1306_WriteString>
10000624:	f000 faac 	bl	10000b80 <ssd1306_UpdateScreen>
10000628:	20fa      	movs	r0, #250	@ 0xfa
1000062a:	00c0      	lsls	r0, r0, #3
1000062c:	f003 fe02 	bl	10004234 <sleep_ms>
10000630:	980f      	ldr	r0, [sp, #60]	@ 0x3c
10000632:	f006 fedb 	bl	100073ec <__wrap_puts>
10000636:	2200      	movs	r2, #0
10000638:	2100      	movs	r1, #0
1000063a:	2000      	movs	r0, #0
1000063c:	f000 f9b2 	bl	100009a4 <print_direction>
10000640:	2000      	movs	r0, #0
10000642:	f000 fa8f 	bl	10000b64 <ssd1306_Fill>
10000646:	210a      	movs	r1, #10
10000648:	200a      	movs	r0, #10
1000064a:	f000 fd61 	bl	10001110 <ssd1306_SetCursor>
1000064e:	68ab      	ldr	r3, [r5, #8]
10000650:	6829      	ldr	r1, [r5, #0]
10000652:	686a      	ldr	r2, [r5, #4]
10000654:	9812      	ldr	r0, [sp, #72]	@ 0x48
10000656:	9600      	str	r6, [sp, #0]
10000658:	f000 fd3a 	bl	100010d0 <ssd1306_WriteString>
1000065c:	f000 fa90 	bl	10000b80 <ssd1306_UpdateScreen>
10000660:	20fa      	movs	r0, #250	@ 0xfa
10000662:	00c0      	lsls	r0, r0, #3
10000664:	f003 fde6 	bl	10004234 <sleep_ms>
10000668:	9815      	ldr	r0, [sp, #84]	@ 0x54
1000066a:	f006 febf 	bl	100073ec <__wrap_puts>
1000066e:	2200      	movs	r2, #0
10000670:	498b      	ldr	r1, [pc, #556]	@ (100008a0 <main+0x534>)
10000672:	2000      	movs	r0, #0
10000674:	f000 f996 	bl	100009a4 <print_direction>
10000678:	2000      	movs	r0, #0
1000067a:	f000 fa73 	bl	10000b64 <ssd1306_Fill>
1000067e:	210a      	movs	r1, #10
10000680:	200a      	movs	r0, #10
10000682:	f000 fd45 	bl	10001110 <ssd1306_SetCursor>
10000686:	68ab      	ldr	r3, [r5, #8]
10000688:	6829      	ldr	r1, [r5, #0]
1000068a:	686a      	ldr	r2, [r5, #4]
1000068c:	9818      	ldr	r0, [sp, #96]	@ 0x60
1000068e:	9600      	str	r6, [sp, #0]
10000690:	f000 fd1e 	bl	100010d0 <ssd1306_WriteString>
10000694:	f000 fa74 	bl	10000b80 <ssd1306_UpdateScreen>
10000698:	20fa      	movs	r0, #250	@ 0xfa
1000069a:	00c0      	lsls	r0, r0, #3
1000069c:	f003 fdca 	bl	10004234 <sleep_ms>
100006a0:	981a      	ldr	r0, [sp, #104]	@ 0x68
100006a2:	f006 fea3 	bl	100073ec <__wrap_puts>
100006a6:	2200      	movs	r2, #0
100006a8:	2100      	movs	r1, #0
100006aa:	487c      	ldr	r0, [pc, #496]	@ (1000089c <main+0x530>)
100006ac:	f000 f97a 	bl	100009a4 <print_direction>
100006b0:	2000      	movs	r0, #0
100006b2:	f000 fa57 	bl	10000b64 <ssd1306_Fill>
100006b6:	210a      	movs	r1, #10
100006b8:	200a      	movs	r0, #10
100006ba:	f000 fd29 	bl	10001110 <ssd1306_SetCursor>
100006be:	68ab      	ldr	r3, [r5, #8]
100006c0:	6829      	ldr	r1, [r5, #0]
100006c2:	686a      	ldr	r2, [r5, #4]
100006c4:	980a      	ldr	r0, [sp, #40]	@ 0x28
100006c6:	9600      	str	r6, [sp, #0]
100006c8:	f000 fd02 	bl	100010d0 <ssd1306_WriteString>
100006cc:	f000 fa58 	bl	10000b80 <ssd1306_UpdateScreen>
100006d0:	20fa      	movs	r0, #250	@ 0xfa
100006d2:	00c0      	lsls	r0, r0, #3
100006d4:	f003 fdae 	bl	10004234 <sleep_ms>
100006d8:	980d      	ldr	r0, [sp, #52]	@ 0x34
100006da:	f006 fe87 	bl	100073ec <__wrap_puts>
100006de:	2200      	movs	r2, #0
100006e0:	496e      	ldr	r1, [pc, #440]	@ (1000089c <main+0x530>)
100006e2:	2000      	movs	r0, #0
100006e4:	f000 f95e 	bl	100009a4 <print_direction>
100006e8:	2000      	movs	r0, #0
100006ea:	f000 fa3b 	bl	10000b64 <ssd1306_Fill>
100006ee:	210a      	movs	r1, #10
100006f0:	200a      	movs	r0, #10
100006f2:	f000 fd0d 	bl	10001110 <ssd1306_SetCursor>
100006f6:	68ab      	ldr	r3, [r5, #8]
100006f8:	6829      	ldr	r1, [r5, #0]
100006fa:	686a      	ldr	r2, [r5, #4]
100006fc:	9810      	ldr	r0, [sp, #64]	@ 0x40
100006fe:	9600      	str	r6, [sp, #0]
10000700:	f000 fce6 	bl	100010d0 <ssd1306_WriteString>
10000704:	f000 fa3c 	bl	10000b80 <ssd1306_UpdateScreen>
10000708:	20fa      	movs	r0, #250	@ 0xfa
1000070a:	00c0      	lsls	r0, r0, #3
1000070c:	f003 fd92 	bl	10004234 <sleep_ms>
10000710:	9813      	ldr	r0, [sp, #76]	@ 0x4c
10000712:	f006 fe6b 	bl	100073ec <__wrap_puts>
10000716:	2200      	movs	r2, #0
10000718:	2100      	movs	r1, #0
1000071a:	4861      	ldr	r0, [pc, #388]	@ (100008a0 <main+0x534>)
1000071c:	f000 f942 	bl	100009a4 <print_direction>
10000720:	2000      	movs	r0, #0
10000722:	f000 fa1f 	bl	10000b64 <ssd1306_Fill>
10000726:	210a      	movs	r1, #10
10000728:	200a      	movs	r0, #10
1000072a:	f000 fcf1 	bl	10001110 <ssd1306_SetCursor>
1000072e:	686a      	ldr	r2, [r5, #4]
10000730:	68ab      	ldr	r3, [r5, #8]
10000732:	6829      	ldr	r1, [r5, #0]
10000734:	9803      	ldr	r0, [sp, #12]
10000736:	9600      	str	r6, [sp, #0]
10000738:	f000 fcca 	bl	100010d0 <ssd1306_WriteString>
1000073c:	f000 fa20 	bl	10000b80 <ssd1306_UpdateScreen>
10000740:	20fa      	movs	r0, #250	@ 0xfa
10000742:	00c0      	lsls	r0, r0, #3
10000744:	f003 fd76 	bl	10004234 <sleep_ms>
10000748:	9816      	ldr	r0, [sp, #88]	@ 0x58
1000074a:	f006 fe4f 	bl	100073ec <__wrap_puts>
1000074e:	9806      	ldr	r0, [sp, #24]
10000750:	f006 fe4c 	bl	100073ec <__wrap_puts>
10000754:	2180      	movs	r1, #128	@ 0x80
10000756:	0089      	lsls	r1, r1, #2
10000758:	0008      	movs	r0, r1
1000075a:	f000 ff8d 	bl	10001678 <display_percentages>
1000075e:	20fa      	movs	r0, #250	@ 0xfa
10000760:	00c0      	lsls	r0, r0, #3
10000762:	f003 fd67 	bl	10004234 <sleep_ms>
10000766:	2180      	movs	r1, #128	@ 0x80
10000768:	484e      	ldr	r0, [pc, #312]	@ (100008a4 <main+0x538>)
1000076a:	0089      	lsls	r1, r1, #2
1000076c:	f000 ff84 	bl	10001678 <display_percentages>
10000770:	20fa      	movs	r0, #250	@ 0xfa
10000772:	00c0      	lsls	r0, r0, #3
10000774:	f003 fd5e 	bl	10004234 <sleep_ms>
10000778:	2080      	movs	r0, #128	@ 0x80
1000077a:	494a      	ldr	r1, [pc, #296]	@ (100008a4 <main+0x538>)
1000077c:	0080      	lsls	r0, r0, #2
1000077e:	f000 ff7b 	bl	10001678 <display_percentages>
10000782:	20fa      	movs	r0, #250	@ 0xfa
10000784:	00c0      	lsls	r0, r0, #3
10000786:	f003 fd55 	bl	10004234 <sleep_ms>
1000078a:	9808      	ldr	r0, [sp, #32]
1000078c:	f006 fe2e 	bl	100073ec <__wrap_puts>
10000790:	2180      	movs	r1, #128	@ 0x80
10000792:	0089      	lsls	r1, r1, #2
10000794:	0008      	movs	r0, r1
10000796:	f000 fed1 	bl	1000153c <display_gestures>
1000079a:	20fa      	movs	r0, #250	@ 0xfa
1000079c:	0080      	lsls	r0, r0, #2
1000079e:	f003 fd49 	bl	10004234 <sleep_ms>
100007a2:	2180      	movs	r1, #128	@ 0x80
100007a4:	483f      	ldr	r0, [pc, #252]	@ (100008a4 <main+0x538>)
100007a6:	0089      	lsls	r1, r1, #2
100007a8:	f000 fec8 	bl	1000153c <display_gestures>
100007ac:	20fa      	movs	r0, #250	@ 0xfa
100007ae:	0080      	lsls	r0, r0, #2
100007b0:	f003 fd40 	bl	10004234 <sleep_ms>
100007b4:	2080      	movs	r0, #128	@ 0x80
100007b6:	493b      	ldr	r1, [pc, #236]	@ (100008a4 <main+0x538>)
100007b8:	0080      	lsls	r0, r0, #2
100007ba:	f000 febf 	bl	1000153c <display_gestures>
100007be:	20fa      	movs	r0, #250	@ 0xfa
100007c0:	0080      	lsls	r0, r0, #2
100007c2:	f003 fd37 	bl	10004234 <sleep_ms>
100007c6:	980b      	ldr	r0, [sp, #44]	@ 0x2c
100007c8:	f006 fe10 	bl	100073ec <__wrap_puts>
100007cc:	2000      	movs	r0, #0
100007ce:	f000 f9c9 	bl	10000b64 <ssd1306_Fill>
100007d2:	210a      	movs	r1, #10
100007d4:	200a      	movs	r0, #10
100007d6:	f000 fc9b 	bl	10001110 <ssd1306_SetCursor>
100007da:	686a      	ldr	r2, [r5, #4]
100007dc:	68ab      	ldr	r3, [r5, #8]
100007de:	6829      	ldr	r1, [r5, #0]
100007e0:	980e      	ldr	r0, [sp, #56]	@ 0x38
100007e2:	9600      	str	r6, [sp, #0]
100007e4:	f000 fc74 	bl	100010d0 <ssd1306_WriteString>
100007e8:	f000 fdca 	bl	10001380 <display_frase>
100007ec:	20fa      	movs	r0, #250	@ 0xfa
100007ee:	00c0      	lsls	r0, r0, #3
100007f0:	f003 fd20 	bl	10004234 <sleep_ms>
100007f4:	9811      	ldr	r0, [sp, #68]	@ 0x44
100007f6:	f006 fdf9 	bl	100073ec <__wrap_puts>
100007fa:	2000      	movs	r0, #0
100007fc:	f000 f9b2 	bl	10000b64 <ssd1306_Fill>
10000800:	210a      	movs	r1, #10
10000802:	200a      	movs	r0, #10
10000804:	f000 fc84 	bl	10001110 <ssd1306_SetCursor>
10000808:	686a      	ldr	r2, [r5, #4]
1000080a:	68ab      	ldr	r3, [r5, #8]
1000080c:	6829      	ldr	r1, [r5, #0]
1000080e:	9804      	ldr	r0, [sp, #16]
10000810:	9600      	str	r6, [sp, #0]
10000812:	f000 fc5d 	bl	100010d0 <ssd1306_WriteString>
10000816:	f000 fdf9 	bl	1000140c <display_animacao>
1000081a:	20fa      	movs	r0, #250	@ 0xfa
1000081c:	00c0      	lsls	r0, r0, #3
1000081e:	f003 fd09 	bl	10004234 <sleep_ms>
10000822:	9805      	ldr	r0, [sp, #20]
10000824:	f006 fde2 	bl	100073ec <__wrap_puts>
10000828:	2000      	movs	r0, #0
1000082a:	f000 f99b 	bl	10000b64 <ssd1306_Fill>
1000082e:	210a      	movs	r1, #10
10000830:	200a      	movs	r0, #10
10000832:	f000 fc6d 	bl	10001110 <ssd1306_SetCursor>
10000836:	686a      	ldr	r2, [r5, #4]
10000838:	68ab      	ldr	r3, [r5, #8]
1000083a:	6829      	ldr	r1, [r5, #0]
1000083c:	9807      	ldr	r0, [sp, #28]
1000083e:	9600      	str	r6, [sp, #0]
10000840:	f000 fc46 	bl	100010d0 <ssd1306_WriteString>
10000844:	2180      	movs	r1, #128	@ 0x80
10000846:	4817      	ldr	r0, [pc, #92]	@ (100008a4 <main+0x538>)
10000848:	0089      	lsls	r1, r1, #2
1000084a:	f000 fcff 	bl	1000124c <ajustar_intensidade_leds>
1000084e:	20fa      	movs	r0, #250	@ 0xfa
10000850:	00c0      	lsls	r0, r0, #3
10000852:	f003 fcef 	bl	10004234 <sleep_ms>
10000856:	2180      	movs	r1, #128	@ 0x80
10000858:	2000      	movs	r0, #0
1000085a:	0089      	lsls	r1, r1, #2
1000085c:	f000 fcf6 	bl	1000124c <ajustar_intensidade_leds>
10000860:	20fa      	movs	r0, #250	@ 0xfa
10000862:	00c0      	lsls	r0, r0, #3
10000864:	f003 fce6 	bl	10004234 <sleep_ms>
10000868:	9809      	ldr	r0, [sp, #36]	@ 0x24
1000086a:	f006 fdbf 	bl	100073ec <__wrap_puts>
1000086e:	2300      	movs	r3, #0
10000870:	4652      	mov	r2, sl
10000872:	980c      	ldr	r0, [sp, #48]	@ 0x30
10000874:	7013      	strb	r3, [r2, #0]
10000876:	f006 fdb9 	bl	100073ec <__wrap_puts>
1000087a:	e614      	b.n	100004a6 <main+0x13a>
1000087c:	f000 fce6 	bl	1000124c <ajustar_intensidade_leds>
10000880:	e611      	b.n	100004a6 <main+0x13a>
10000882:	f000 fdc3 	bl	1000140c <display_animacao>
10000886:	2301      	movs	r3, #1
10000888:	4652      	mov	r2, sl
1000088a:	7013      	strb	r3, [r2, #0]
1000088c:	e60b      	b.n	100004a6 <main+0x13a>
1000088e:	f000 fd77 	bl	10001380 <display_frase>
10000892:	2301      	movs	r3, #1
10000894:	4652      	mov	r2, sl
10000896:	7013      	strb	r3, [r2, #0]
10000898:	e605      	b.n	100004a6 <main+0x13a>
1000089a:	46c0      	nop			@ (mov r8, r8)
1000089c:	000007ff 	.word	0x000007ff
100008a0:	00000fff 	.word	0x00000fff
100008a4:	000003ff 	.word	0x000003ff

100008a8 <botao_callback>:
100008a8:	b570      	push	{r4, r5, r6, lr}
100008aa:	0004      	movs	r4, r0
100008ac:	000d      	movs	r5, r1
100008ae:	f003 fdd7 	bl	10004460 <time_us_64>
100008b2:	2900      	cmp	r1, #0
100008b4:	d015      	beq.n	100008e2 <botao_callback+0x3a>
100008b6:	22fa      	movs	r2, #250	@ 0xfa
100008b8:	2300      	movs	r3, #0
100008ba:	0092      	lsls	r2, r2, #2
100008bc:	f004 fb44 	bl	10004f48 <__wrap___aeabi_uldivmod>
100008c0:	2c06      	cmp	r4, #6
100008c2:	d014      	beq.n	100008ee <botao_callback+0x46>
100008c4:	2c16      	cmp	r4, #22
100008c6:	d023      	beq.n	10000910 <botao_callback+0x68>
100008c8:	2c05      	cmp	r4, #5
100008ca:	d109      	bne.n	100008e0 <botao_callback+0x38>
100008cc:	21af      	movs	r1, #175	@ 0xaf
100008ce:	4a20      	ldr	r2, [pc, #128]	@ (10000950 <botao_callback+0xa8>)
100008d0:	0049      	lsls	r1, r1, #1
100008d2:	6813      	ldr	r3, [r2, #0]
100008d4:	1ac3      	subs	r3, r0, r3
100008d6:	428b      	cmp	r3, r1
100008d8:	d902      	bls.n	100008e0 <botao_callback+0x38>
100008da:	6010      	str	r0, [r2, #0]
100008dc:	076d      	lsls	r5, r5, #29
100008de:	d42a      	bmi.n	10000936 <botao_callback+0x8e>
100008e0:	bd70      	pop	{r4, r5, r6, pc}
100008e2:	21fa      	movs	r1, #250	@ 0xfa
100008e4:	0089      	lsls	r1, r1, #2
100008e6:	f004 faf1 	bl	10004ecc <__wrap___aeabi_uidiv>
100008ea:	2c06      	cmp	r4, #6
100008ec:	d1ea      	bne.n	100008c4 <botao_callback+0x1c>
100008ee:	21af      	movs	r1, #175	@ 0xaf
100008f0:	4a18      	ldr	r2, [pc, #96]	@ (10000954 <botao_callback+0xac>)
100008f2:	0049      	lsls	r1, r1, #1
100008f4:	6813      	ldr	r3, [r2, #0]
100008f6:	1ac3      	subs	r3, r0, r3
100008f8:	428b      	cmp	r3, r1
100008fa:	d9f1      	bls.n	100008e0 <botao_callback+0x38>
100008fc:	6010      	str	r0, [r2, #0]
100008fe:	076d      	lsls	r5, r5, #29
10000900:	d5ee      	bpl.n	100008e0 <botao_callback+0x38>
10000902:	4815      	ldr	r0, [pc, #84]	@ (10000958 <botao_callback+0xb0>)
10000904:	f006 fd72 	bl	100073ec <__wrap_puts>
10000908:	2100      	movs	r1, #0
1000090a:	0008      	movs	r0, r1
1000090c:	f004 f9a2 	bl	10004c54 <rom_reset_usb_boot>
10000910:	21af      	movs	r1, #175	@ 0xaf
10000912:	4a12      	ldr	r2, [pc, #72]	@ (1000095c <botao_callback+0xb4>)
10000914:	0049      	lsls	r1, r1, #1
10000916:	6813      	ldr	r3, [r2, #0]
10000918:	1ac3      	subs	r3, r0, r3
1000091a:	428b      	cmp	r3, r1
1000091c:	d9e0      	bls.n	100008e0 <botao_callback+0x38>
1000091e:	6010      	str	r0, [r2, #0]
10000920:	076d      	lsls	r5, r5, #29
10000922:	d5dd      	bpl.n	100008e0 <botao_callback+0x38>
10000924:	480e      	ldr	r0, [pc, #56]	@ (10000960 <botao_callback+0xb8>)
10000926:	f006 fd61 	bl	100073ec <__wrap_puts>
1000092a:	2101      	movs	r1, #1
1000092c:	4a0d      	ldr	r2, [pc, #52]	@ (10000964 <botao_callback+0xbc>)
1000092e:	7813      	ldrb	r3, [r2, #0]
10000930:	404b      	eors	r3, r1
10000932:	7013      	strb	r3, [r2, #0]
10000934:	e7d4      	b.n	100008e0 <botao_callback+0x38>
10000936:	480c      	ldr	r0, [pc, #48]	@ (10000968 <botao_callback+0xc0>)
10000938:	f006 fd58 	bl	100073ec <__wrap_puts>
1000093c:	4b09      	ldr	r3, [pc, #36]	@ (10000964 <botao_callback+0xbc>)
1000093e:	781a      	ldrb	r2, [r3, #0]
10000940:	4b0a      	ldr	r3, [pc, #40]	@ (1000096c <botao_callback+0xc4>)
10000942:	b2d2      	uxtb	r2, r2
10000944:	6819      	ldr	r1, [r3, #0]
10000946:	4b0a      	ldr	r3, [pc, #40]	@ (10000970 <botao_callback+0xc8>)
10000948:	6818      	ldr	r0, [r3, #0]
1000094a:	f000 ffdd 	bl	10001908 <menu_handle_button_a>
1000094e:	e7c7      	b.n	100008e0 <botao_callback+0x38>
10000950:	200052d8 	.word	0x200052d8
10000954:	200052dc 	.word	0x200052dc
10000958:	1000af6c 	.word	0x1000af6c
1000095c:	200052e0 	.word	0x200052e0
10000960:	1000af84 	.word	0x1000af84
10000964:	20005305 	.word	0x20005305
10000968:	1000afa4 	.word	0x1000afa4
1000096c:	200052fc 	.word	0x200052fc
10000970:	200052f8 	.word	0x200052f8

10000974 <botao_init>:
10000974:	b510      	push	{r4, lr}
10000976:	0004      	movs	r4, r0
10000978:	f002 fd52 	bl	10003420 <gpio_init>
1000097c:	2301      	movs	r3, #1
1000097e:	22d0      	movs	r2, #208	@ 0xd0
10000980:	40a3      	lsls	r3, r4
10000982:	0612      	lsls	r2, r2, #24
10000984:	0020      	movs	r0, r4
10000986:	6293      	str	r3, [r2, #40]	@ 0x28
10000988:	2101      	movs	r1, #1
1000098a:	2200      	movs	r2, #0
1000098c:	f002 fcb8 	bl	10003300 <gpio_set_pulls>
10000990:	2201      	movs	r2, #1
10000992:	2104      	movs	r1, #4
10000994:	0020      	movs	r0, r4
10000996:	4b02      	ldr	r3, [pc, #8]	@ (100009a0 <botao_init+0x2c>)
10000998:	f002 fcc6 	bl	10003328 <gpio_set_irq_enabled_with_callback>
1000099c:	bd10      	pop	{r4, pc}
1000099e:	46c0      	nop			@ (mov r8, r8)
100009a0:	100008a9 	.word	0x100008a9

100009a4 <print_direction>:
100009a4:	b510      	push	{r4, lr}
100009a6:	2a00      	cmp	r2, #0
100009a8:	d101      	bne.n	100009ae <print_direction+0xa>
100009aa:	4b21      	ldr	r3, [pc, #132]	@ (10000a30 <print_direction+0x8c>)
100009ac:	1a59      	subs	r1, r3, r1
100009ae:	4b21      	ldr	r3, [pc, #132]	@ (10000a34 <print_direction+0x90>)
100009b0:	4298      	cmp	r0, r3
100009b2:	dd09      	ble.n	100009c8 <print_direction+0x24>
100009b4:	4299      	cmp	r1, r3
100009b6:	dc2b      	bgt.n	10000a10 <print_direction+0x6c>
100009b8:	4b1f      	ldr	r3, [pc, #124]	@ (10000a38 <print_direction+0x94>)
100009ba:	4299      	cmp	r1, r3
100009bc:	dc19      	bgt.n	100009f2 <print_direction+0x4e>
100009be:	481f      	ldr	r0, [pc, #124]	@ (10000a3c <print_direction+0x98>)
100009c0:	f006 fd14 	bl	100073ec <__wrap_puts>
100009c4:	2005      	movs	r0, #5
100009c6:	bd10      	pop	{r4, pc}
100009c8:	4a1b      	ldr	r2, [pc, #108]	@ (10000a38 <print_direction+0x94>)
100009ca:	4290      	cmp	r0, r2
100009cc:	dc08      	bgt.n	100009e0 <print_direction+0x3c>
100009ce:	4299      	cmp	r1, r3
100009d0:	dc23      	bgt.n	10000a1a <print_direction+0x76>
100009d2:	4291      	cmp	r1, r2
100009d4:	dc12      	bgt.n	100009fc <print_direction+0x58>
100009d6:	481a      	ldr	r0, [pc, #104]	@ (10000a40 <print_direction+0x9c>)
100009d8:	f006 fd08 	bl	100073ec <__wrap_puts>
100009dc:	2007      	movs	r0, #7
100009de:	e7f2      	b.n	100009c6 <print_direction+0x22>
100009e0:	4299      	cmp	r1, r3
100009e2:	dc1f      	bgt.n	10000a24 <print_direction+0x80>
100009e4:	4291      	cmp	r1, r2
100009e6:	dc0e      	bgt.n	10000a06 <print_direction+0x62>
100009e8:	4816      	ldr	r0, [pc, #88]	@ (10000a44 <print_direction+0xa0>)
100009ea:	f006 fcff 	bl	100073ec <__wrap_puts>
100009ee:	2001      	movs	r0, #1
100009f0:	e7e9      	b.n	100009c6 <print_direction+0x22>
100009f2:	4815      	ldr	r0, [pc, #84]	@ (10000a48 <print_direction+0xa4>)
100009f4:	f006 fcfa 	bl	100073ec <__wrap_puts>
100009f8:	2004      	movs	r0, #4
100009fa:	e7e4      	b.n	100009c6 <print_direction+0x22>
100009fc:	4813      	ldr	r0, [pc, #76]	@ (10000a4c <print_direction+0xa8>)
100009fe:	f006 fcf5 	bl	100073ec <__wrap_puts>
10000a02:	2003      	movs	r0, #3
10000a04:	e7df      	b.n	100009c6 <print_direction+0x22>
10000a06:	4812      	ldr	r0, [pc, #72]	@ (10000a50 <print_direction+0xac>)
10000a08:	f006 fcf0 	bl	100073ec <__wrap_puts>
10000a0c:	2000      	movs	r0, #0
10000a0e:	e7da      	b.n	100009c6 <print_direction+0x22>
10000a10:	4810      	ldr	r0, [pc, #64]	@ (10000a54 <print_direction+0xb0>)
10000a12:	f006 fceb 	bl	100073ec <__wrap_puts>
10000a16:	2006      	movs	r0, #6
10000a18:	e7d5      	b.n	100009c6 <print_direction+0x22>
10000a1a:	480f      	ldr	r0, [pc, #60]	@ (10000a58 <print_direction+0xb4>)
10000a1c:	f006 fce6 	bl	100073ec <__wrap_puts>
10000a20:	2008      	movs	r0, #8
10000a22:	e7d0      	b.n	100009c6 <print_direction+0x22>
10000a24:	480d      	ldr	r0, [pc, #52]	@ (10000a5c <print_direction+0xb8>)
10000a26:	f006 fce1 	bl	100073ec <__wrap_puts>
10000a2a:	2002      	movs	r0, #2
10000a2c:	e7cb      	b.n	100009c6 <print_direction+0x22>
10000a2e:	46c0      	nop			@ (mov r8, r8)
10000a30:	00000fff 	.word	0x00000fff
10000a34:	000009f3 	.word	0x000009f3
10000a38:	0000060a 	.word	0x0000060a
10000a3c:	1000afd0 	.word	0x1000afd0
10000a40:	1000b008 	.word	0x1000b008
10000a44:	1000b038 	.word	0x1000b038
10000a48:	1000afe4 	.word	0x1000afe4
10000a4c:	1000b01c 	.word	0x1000b01c
10000a50:	1000b044 	.word	0x1000b044
10000a54:	1000afbc 	.word	0x1000afbc
10000a58:	1000aff4 	.word	0x1000aff4
10000a5c:	1000b02c 	.word	0x1000b02c

10000a60 <identificar_gesto>:
10000a60:	b5f0      	push	{r4, r5, r6, r7, lr}
10000a62:	4647      	mov	r7, r8
10000a64:	46ce      	mov	lr, r9
10000a66:	4b26      	ldr	r3, [pc, #152]	@ (10000b00 <identificar_gesto+0xa0>)
10000a68:	2200      	movs	r2, #0
10000a6a:	b580      	push	{r7, lr}
10000a6c:	001f      	movs	r7, r3
10000a6e:	4690      	mov	r8, r2
10000a70:	2500      	movs	r5, #0
10000a72:	4691      	mov	r9, r2
10000a74:	4694      	mov	ip, r2
10000a76:	2400      	movs	r4, #0
10000a78:	4822      	ldr	r0, [pc, #136]	@ (10000b04 <identificar_gesto+0xa4>)
10000a7a:	4e23      	ldr	r6, [pc, #140]	@ (10000b08 <identificar_gesto+0xa8>)
10000a7c:	37a0      	adds	r7, #160	@ 0xa0
10000a7e:	e011      	b.n	10000aa4 <identificar_gesto+0x44>
10000a80:	0fca      	lsrs	r2, r1, #31
10000a82:	428e      	cmp	r6, r1
10000a84:	4162      	adcs	r2, r4
10000a86:	4649      	mov	r1, r9
10000a88:	4311      	orrs	r1, r2
10000a8a:	b2ca      	uxtb	r2, r1
10000a8c:	6859      	ldr	r1, [r3, #4]
10000a8e:	4691      	mov	r9, r2
10000a90:	4281      	cmp	r1, r0
10000a92:	dc0f      	bgt.n	10000ab4 <identificar_gesto+0x54>
10000a94:	0fca      	lsrs	r2, r1, #31
10000a96:	428e      	cmp	r6, r1
10000a98:	4162      	adcs	r2, r4
10000a9a:	3308      	adds	r3, #8
10000a9c:	4315      	orrs	r5, r2
10000a9e:	b2ed      	uxtb	r5, r5
10000aa0:	42bb      	cmp	r3, r7
10000aa2:	d00c      	beq.n	10000abe <identificar_gesto+0x5e>
10000aa4:	6819      	ldr	r1, [r3, #0]
10000aa6:	4281      	cmp	r1, r0
10000aa8:	ddea      	ble.n	10000a80 <identificar_gesto+0x20>
10000aaa:	2201      	movs	r2, #1
10000aac:	6859      	ldr	r1, [r3, #4]
10000aae:	4694      	mov	ip, r2
10000ab0:	4281      	cmp	r1, r0
10000ab2:	ddef      	ble.n	10000a94 <identificar_gesto+0x34>
10000ab4:	2201      	movs	r2, #1
10000ab6:	3308      	adds	r3, #8
10000ab8:	4690      	mov	r8, r2
10000aba:	42bb      	cmp	r3, r7
10000abc:	d1f2      	bne.n	10000aa4 <identificar_gesto+0x44>
10000abe:	4663      	mov	r3, ip
10000ac0:	2b00      	cmp	r3, #0
10000ac2:	d008      	beq.n	10000ad6 <identificar_gesto+0x76>
10000ac4:	464b      	mov	r3, r9
10000ac6:	2b00      	cmp	r3, #0
10000ac8:	d012      	beq.n	10000af0 <identificar_gesto+0x90>
10000aca:	4640      	mov	r0, r8
10000acc:	4028      	ands	r0, r5
10000ace:	bcc0      	pop	{r6, r7}
10000ad0:	46b9      	mov	r9, r7
10000ad2:	46b0      	mov	r8, r6
10000ad4:	bdf0      	pop	{r4, r5, r6, r7, pc}
10000ad6:	464b      	mov	r3, r9
10000ad8:	2000      	movs	r0, #0
10000ada:	2b00      	cmp	r3, #0
10000adc:	d0f7      	beq.n	10000ace <identificar_gesto+0x6e>
10000ade:	4643      	mov	r3, r8
10000ae0:	2b00      	cmp	r3, #0
10000ae2:	d0f4      	beq.n	10000ace <identificar_gesto+0x6e>
10000ae4:	1e6b      	subs	r3, r5, #1
10000ae6:	419d      	sbcs	r5, r3
10000ae8:	3003      	adds	r0, #3
10000aea:	426d      	negs	r5, r5
10000aec:	4028      	ands	r0, r5
10000aee:	e7ee      	b.n	10000ace <identificar_gesto+0x6e>
10000af0:	4643      	mov	r3, r8
10000af2:	2000      	movs	r0, #0
10000af4:	2b00      	cmp	r3, #0
10000af6:	d0ea      	beq.n	10000ace <identificar_gesto+0x6e>
10000af8:	0068      	lsls	r0, r5, #1
10000afa:	b2c0      	uxtb	r0, r0
10000afc:	e7e7      	b.n	10000ace <identificar_gesto+0x6e>
10000afe:	46c0      	nop			@ (mov r8, r8)
10000b00:	20003f28 	.word	0x20003f28
10000b04:	000009f3 	.word	0x000009f3
10000b08:	0000060a 	.word	0x0000060a

10000b0c <detectar_gesto>:
10000b0c:	b570      	push	{r4, r5, r6, lr}
10000b0e:	4c10      	ldr	r4, [pc, #64]	@ (10000b50 <detectar_gesto+0x44>)
10000b10:	4b10      	ldr	r3, [pc, #64]	@ (10000b54 <detectar_gesto+0x48>)
10000b12:	6822      	ldr	r2, [r4, #0]
10000b14:	00d5      	lsls	r5, r2, #3
10000b16:	5158      	str	r0, [r3, r5]
10000b18:	195b      	adds	r3, r3, r5
10000b1a:	6059      	str	r1, [r3, #4]
10000b1c:	1c50      	adds	r0, r2, #1
10000b1e:	2114      	movs	r1, #20
10000b20:	f004 f9ac 	bl	10004e7c <__wrap___aeabi_idiv>
10000b24:	6021      	str	r1, [r4, #0]
10000b26:	f7ff ff9b 	bl	10000a60 <identificar_gesto>
10000b2a:	2802      	cmp	r0, #2
10000b2c:	d00b      	beq.n	10000b46 <detectar_gesto+0x3a>
10000b2e:	2803      	cmp	r0, #3
10000b30:	d005      	beq.n	10000b3e <detectar_gesto+0x32>
10000b32:	2801      	cmp	r0, #1
10000b34:	d102      	bne.n	10000b3c <detectar_gesto+0x30>
10000b36:	4808      	ldr	r0, [pc, #32]	@ (10000b58 <detectar_gesto+0x4c>)
10000b38:	f006 fc58 	bl	100073ec <__wrap_puts>
10000b3c:	bd70      	pop	{r4, r5, r6, pc}
10000b3e:	4807      	ldr	r0, [pc, #28]	@ (10000b5c <detectar_gesto+0x50>)
10000b40:	f006 fc54 	bl	100073ec <__wrap_puts>
10000b44:	e7fa      	b.n	10000b3c <detectar_gesto+0x30>
10000b46:	4806      	ldr	r0, [pc, #24]	@ (10000b60 <detectar_gesto+0x54>)
10000b48:	f006 fc50 	bl	100073ec <__wrap_puts>
10000b4c:	e7f6      	b.n	10000b3c <detectar_gesto+0x30>
10000b4e:	46c0      	nop			@ (mov r8, r8)
10000b50:	20005168 	.word	0x20005168
10000b54:	20003f28 	.word	0x20003f28
10000b58:	1000b058 	.word	0x1000b058
10000b5c:	1000b090 	.word	0x1000b090
10000b60:	1000b074 	.word	0x1000b074

10000b64 <ssd1306_Fill>:
10000b64:	1e43      	subs	r3, r0, #1
10000b66:	4198      	sbcs	r0, r3
10000b68:	21ff      	movs	r1, #255	@ 0xff
10000b6a:	2280      	movs	r2, #128	@ 0x80
10000b6c:	b510      	push	{r4, lr}
10000b6e:	4240      	negs	r0, r0
10000b70:	4001      	ands	r1, r0
10000b72:	00d2      	lsls	r2, r2, #3
10000b74:	4801      	ldr	r0, [pc, #4]	@ (10000b7c <ssd1306_Fill+0x18>)
10000b76:	f004 fdef 	bl	10005758 <__wrap_memset>
10000b7a:	bd10      	pop	{r4, pc}
10000b7c:	200040d8 	.word	0x200040d8

10000b80 <ssd1306_UpdateScreen>:
10000b80:	b5f0      	push	{r4, r5, r6, r7, lr}
10000b82:	464e      	mov	r6, r9
10000b84:	4645      	mov	r5, r8
10000b86:	4657      	mov	r7, sl
10000b88:	46de      	mov	lr, fp
10000b8a:	4b24      	ldr	r3, [pc, #144]	@ (10000c1c <ssd1306_UpdateScreen+0x9c>)
10000b8c:	b5e0      	push	{r5, r6, r7, lr}
10000b8e:	4699      	mov	r9, r3
10000b90:	4b23      	ldr	r3, [pc, #140]	@ (10000c20 <ssd1306_UpdateScreen+0xa0>)
10000b92:	26b0      	movs	r6, #176	@ 0xb0
10000b94:	4698      	mov	r8, r3
10000b96:	2500      	movs	r5, #0
10000b98:	b085      	sub	sp, #20
10000b9a:	af02      	add	r7, sp, #8
10000b9c:	1d3c      	adds	r4, r7, #4
10000b9e:	7066      	strb	r6, [r4, #1]
10000ba0:	2302      	movs	r3, #2
10000ba2:	0022      	movs	r2, r4
10000ba4:	213c      	movs	r1, #60	@ 0x3c
10000ba6:	7025      	strb	r5, [r4, #0]
10000ba8:	4640      	mov	r0, r8
10000baa:	9500      	str	r5, [sp, #0]
10000bac:	f009 fae2 	bl	1000a174 <i2c_write_blocking>
10000bb0:	2302      	movs	r3, #2
10000bb2:	0022      	movs	r2, r4
10000bb4:	213c      	movs	r1, #60	@ 0x3c
10000bb6:	8025      	strh	r5, [r4, #0]
10000bb8:	4640      	mov	r0, r8
10000bba:	9500      	str	r5, [sp, #0]
10000bbc:	f009 fada 	bl	1000a174 <i2c_write_blocking>
10000bc0:	2380      	movs	r3, #128	@ 0x80
10000bc2:	015b      	lsls	r3, r3, #5
10000bc4:	8023      	strh	r3, [r4, #0]
10000bc6:	0022      	movs	r2, r4
10000bc8:	9500      	str	r5, [sp, #0]
10000bca:	2302      	movs	r3, #2
10000bcc:	213c      	movs	r1, #60	@ 0x3c
10000bce:	4640      	mov	r0, r8
10000bd0:	f009 fad0 	bl	1000a174 <i2c_write_blocking>
10000bd4:	46eb      	mov	fp, sp
10000bd6:	b0a2      	sub	sp, #136	@ 0x88
10000bd8:	ab02      	add	r3, sp, #8
10000bda:	2240      	movs	r2, #64	@ 0x40
10000bdc:	2009      	movs	r0, #9
10000bde:	469a      	mov	sl, r3
10000be0:	4649      	mov	r1, r9
10000be2:	701a      	strb	r2, [r3, #0]
10000be4:	4468      	add	r0, sp
10000be6:	3240      	adds	r2, #64	@ 0x40
10000be8:	f004 fdbc 	bl	10005764 <__wrap___aeabi_memcpy>
10000bec:	2381      	movs	r3, #129	@ 0x81
10000bee:	9500      	str	r5, [sp, #0]
10000bf0:	4652      	mov	r2, sl
10000bf2:	213c      	movs	r1, #60	@ 0x3c
10000bf4:	4640      	mov	r0, r8
10000bf6:	f009 fabd 	bl	1000a174 <i2c_write_blocking>
10000bfa:	2380      	movs	r3, #128	@ 0x80
10000bfc:	469c      	mov	ip, r3
10000bfe:	3601      	adds	r6, #1
10000c00:	b2f6      	uxtb	r6, r6
10000c02:	46dd      	mov	sp, fp
10000c04:	44e1      	add	r9, ip
10000c06:	2eb8      	cmp	r6, #184	@ 0xb8
10000c08:	d1c9      	bne.n	10000b9e <ssd1306_UpdateScreen+0x1e>
10000c0a:	46bd      	mov	sp, r7
10000c0c:	b003      	add	sp, #12
10000c0e:	bcf0      	pop	{r4, r5, r6, r7}
10000c10:	46bb      	mov	fp, r7
10000c12:	46b2      	mov	sl, r6
10000c14:	46a9      	mov	r9, r5
10000c16:	46a0      	mov	r8, r4
10000c18:	bdf0      	pop	{r4, r5, r6, r7, pc}
10000c1a:	46c0      	nop			@ (mov r8, r8)
10000c1c:	200040d8 	.word	0x200040d8
10000c20:	200036f8 	.word	0x200036f8

10000c24 <ssd1306_Init>:
10000c24:	b5f0      	push	{r4, r5, r6, r7, lr}
10000c26:	2064      	movs	r0, #100	@ 0x64
10000c28:	b085      	sub	sp, #20
10000c2a:	f003 fb03 	bl	10004234 <sleep_ms>
10000c2e:	4da2      	ldr	r5, [pc, #648]	@ (10000eb8 <ssd1306_Init+0x294>)
10000c30:	49a2      	ldr	r1, [pc, #648]	@ (10000ebc <ssd1306_Init+0x298>)
10000c32:	0028      	movs	r0, r5
10000c34:	f009 fa76 	bl	1000a124 <i2c_init>
10000c38:	2103      	movs	r1, #3
10000c3a:	200e      	movs	r0, #14
10000c3c:	f002 fb46 	bl	100032cc <gpio_set_function>
10000c40:	2103      	movs	r1, #3
10000c42:	200f      	movs	r0, #15
10000c44:	f002 fb42 	bl	100032cc <gpio_set_function>
10000c48:	2200      	movs	r2, #0
10000c4a:	2101      	movs	r1, #1
10000c4c:	200e      	movs	r0, #14
10000c4e:	f002 fb57 	bl	10003300 <gpio_set_pulls>
10000c52:	2200      	movs	r2, #0
10000c54:	2101      	movs	r1, #1
10000c56:	200f      	movs	r0, #15
10000c58:	2400      	movs	r4, #0
10000c5a:	f002 fb51 	bl	10003300 <gpio_set_pulls>
10000c5e:	466a      	mov	r2, sp
10000c60:	4e97      	ldr	r6, [pc, #604]	@ (10000ec0 <ssd1306_Init+0x29c>)
10000c62:	4b98      	ldr	r3, [pc, #608]	@ (10000ec4 <ssd1306_Init+0x2a0>)
10000c64:	7174      	strb	r4, [r6, #5]
10000c66:	8193      	strh	r3, [r2, #12]
10000c68:	213c      	movs	r1, #60	@ 0x3c
10000c6a:	aa03      	add	r2, sp, #12
10000c6c:	2302      	movs	r3, #2
10000c6e:	0028      	movs	r0, r5
10000c70:	9400      	str	r4, [sp, #0]
10000c72:	2780      	movs	r7, #128	@ 0x80
10000c74:	f009 fa7e 	bl	1000a174 <i2c_write_blocking>
10000c78:	466b      	mov	r3, sp
10000c7a:	01bf      	lsls	r7, r7, #6
10000c7c:	819f      	strh	r7, [r3, #12]
10000c7e:	aa03      	add	r2, sp, #12
10000c80:	2302      	movs	r3, #2
10000c82:	213c      	movs	r1, #60	@ 0x3c
10000c84:	0028      	movs	r0, r5
10000c86:	9400      	str	r4, [sp, #0]
10000c88:	f009 fa74 	bl	1000a174 <i2c_write_blocking>
10000c8c:	466b      	mov	r3, sp
10000c8e:	aa03      	add	r2, sp, #12
10000c90:	819c      	strh	r4, [r3, #12]
10000c92:	213c      	movs	r1, #60	@ 0x3c
10000c94:	2302      	movs	r3, #2
10000c96:	0028      	movs	r0, r5
10000c98:	9400      	str	r4, [sp, #0]
10000c9a:	f009 fa6b 	bl	1000a174 <i2c_write_blocking>
10000c9e:	466a      	mov	r2, sp
10000ca0:	4b89      	ldr	r3, [pc, #548]	@ (10000ec8 <ssd1306_Init+0x2a4>)
10000ca2:	213c      	movs	r1, #60	@ 0x3c
10000ca4:	8193      	strh	r3, [r2, #12]
10000ca6:	0028      	movs	r0, r5
10000ca8:	aa03      	add	r2, sp, #12
10000caa:	2302      	movs	r3, #2
10000cac:	9400      	str	r4, [sp, #0]
10000cae:	f009 fa61 	bl	1000a174 <i2c_write_blocking>
10000cb2:	466a      	mov	r2, sp
10000cb4:	4b85      	ldr	r3, [pc, #532]	@ (10000ecc <ssd1306_Init+0x2a8>)
10000cb6:	213c      	movs	r1, #60	@ 0x3c
10000cb8:	8193      	strh	r3, [r2, #12]
10000cba:	0028      	movs	r0, r5
10000cbc:	aa03      	add	r2, sp, #12
10000cbe:	2302      	movs	r3, #2
10000cc0:	9400      	str	r4, [sp, #0]
10000cc2:	f009 fa57 	bl	1000a174 <i2c_write_blocking>
10000cc6:	466b      	mov	r3, sp
10000cc8:	aa03      	add	r2, sp, #12
10000cca:	819c      	strh	r4, [r3, #12]
10000ccc:	213c      	movs	r1, #60	@ 0x3c
10000cce:	2302      	movs	r3, #2
10000cd0:	0028      	movs	r0, r5
10000cd2:	9400      	str	r4, [sp, #0]
10000cd4:	f009 fa4e 	bl	1000a174 <i2c_write_blocking>
10000cd8:	2380      	movs	r3, #128	@ 0x80
10000cda:	466a      	mov	r2, sp
10000cdc:	015b      	lsls	r3, r3, #5
10000cde:	8193      	strh	r3, [r2, #12]
10000ce0:	213c      	movs	r1, #60	@ 0x3c
10000ce2:	aa03      	add	r2, sp, #12
10000ce4:	2302      	movs	r3, #2
10000ce6:	0028      	movs	r0, r5
10000ce8:	9400      	str	r4, [sp, #0]
10000cea:	f009 fa43 	bl	1000a174 <i2c_write_blocking>
10000cee:	2380      	movs	r3, #128	@ 0x80
10000cf0:	466a      	mov	r2, sp
10000cf2:	01db      	lsls	r3, r3, #7
10000cf4:	8193      	strh	r3, [r2, #12]
10000cf6:	213c      	movs	r1, #60	@ 0x3c
10000cf8:	aa03      	add	r2, sp, #12
10000cfa:	2302      	movs	r3, #2
10000cfc:	0028      	movs	r0, r5
10000cfe:	9400      	str	r4, [sp, #0]
10000d00:	f009 fa38 	bl	1000a174 <i2c_write_blocking>
10000d04:	466a      	mov	r2, sp
10000d06:	4b72      	ldr	r3, [pc, #456]	@ (10000ed0 <ssd1306_Init+0x2ac>)
10000d08:	213c      	movs	r1, #60	@ 0x3c
10000d0a:	8193      	strh	r3, [r2, #12]
10000d0c:	0028      	movs	r0, r5
10000d0e:	aa03      	add	r2, sp, #12
10000d10:	2302      	movs	r3, #2
10000d12:	9400      	str	r4, [sp, #0]
10000d14:	f009 fa2e 	bl	1000a174 <i2c_write_blocking>
10000d18:	466a      	mov	r2, sp
10000d1a:	4b6e      	ldr	r3, [pc, #440]	@ (10000ed4 <ssd1306_Init+0x2b0>)
10000d1c:	213c      	movs	r1, #60	@ 0x3c
10000d1e:	8193      	strh	r3, [r2, #12]
10000d20:	3303      	adds	r3, #3
10000d22:	aa03      	add	r2, sp, #12
10000d24:	0028      	movs	r0, r5
10000d26:	9400      	str	r4, [sp, #0]
10000d28:	33ff      	adds	r3, #255	@ 0xff
10000d2a:	f009 fa23 	bl	1000a174 <i2c_write_blocking>
10000d2e:	466a      	mov	r2, sp
10000d30:	4b69      	ldr	r3, [pc, #420]	@ (10000ed8 <ssd1306_Init+0x2b4>)
10000d32:	213c      	movs	r1, #60	@ 0x3c
10000d34:	8193      	strh	r3, [r2, #12]
10000d36:	0028      	movs	r0, r5
10000d38:	aa03      	add	r2, sp, #12
10000d3a:	2302      	movs	r3, #2
10000d3c:	9400      	str	r4, [sp, #0]
10000d3e:	f009 fa19 	bl	1000a174 <i2c_write_blocking>
10000d42:	466a      	mov	r2, sp
10000d44:	4b65      	ldr	r3, [pc, #404]	@ (10000edc <ssd1306_Init+0x2b8>)
10000d46:	213c      	movs	r1, #60	@ 0x3c
10000d48:	8193      	strh	r3, [r2, #12]
10000d4a:	0028      	movs	r0, r5
10000d4c:	aa03      	add	r2, sp, #12
10000d4e:	2302      	movs	r3, #2
10000d50:	9400      	str	r4, [sp, #0]
10000d52:	f009 fa0f 	bl	1000a174 <i2c_write_blocking>
10000d56:	466a      	mov	r2, sp
10000d58:	4b61      	ldr	r3, [pc, #388]	@ (10000ee0 <ssd1306_Init+0x2bc>)
10000d5a:	213c      	movs	r1, #60	@ 0x3c
10000d5c:	8193      	strh	r3, [r2, #12]
10000d5e:	0028      	movs	r0, r5
10000d60:	aa03      	add	r2, sp, #12
10000d62:	2302      	movs	r3, #2
10000d64:	9400      	str	r4, [sp, #0]
10000d66:	f009 fa05 	bl	1000a174 <i2c_write_blocking>
10000d6a:	23fc      	movs	r3, #252	@ 0xfc
10000d6c:	466a      	mov	r2, sp
10000d6e:	019b      	lsls	r3, r3, #6
10000d70:	8193      	strh	r3, [r2, #12]
10000d72:	213c      	movs	r1, #60	@ 0x3c
10000d74:	aa03      	add	r2, sp, #12
10000d76:	2302      	movs	r3, #2
10000d78:	0028      	movs	r0, r5
10000d7a:	9400      	str	r4, [sp, #0]
10000d7c:	f009 f9fa 	bl	1000a174 <i2c_write_blocking>
10000d80:	466a      	mov	r2, sp
10000d82:	4b58      	ldr	r3, [pc, #352]	@ (10000ee4 <ssd1306_Init+0x2c0>)
10000d84:	213c      	movs	r1, #60	@ 0x3c
10000d86:	8193      	strh	r3, [r2, #12]
10000d88:	0028      	movs	r0, r5
10000d8a:	aa03      	add	r2, sp, #12
10000d8c:	2302      	movs	r3, #2
10000d8e:	9400      	str	r4, [sp, #0]
10000d90:	f009 f9f0 	bl	1000a174 <i2c_write_blocking>
10000d94:	466a      	mov	r2, sp
10000d96:	4b54      	ldr	r3, [pc, #336]	@ (10000ee8 <ssd1306_Init+0x2c4>)
10000d98:	213c      	movs	r1, #60	@ 0x3c
10000d9a:	8193      	strh	r3, [r2, #12]
10000d9c:	0028      	movs	r0, r5
10000d9e:	aa03      	add	r2, sp, #12
10000da0:	2302      	movs	r3, #2
10000da2:	9400      	str	r4, [sp, #0]
10000da4:	f009 f9e6 	bl	1000a174 <i2c_write_blocking>
10000da8:	466b      	mov	r3, sp
10000daa:	aa03      	add	r2, sp, #12
10000dac:	819c      	strh	r4, [r3, #12]
10000dae:	213c      	movs	r1, #60	@ 0x3c
10000db0:	2302      	movs	r3, #2
10000db2:	0028      	movs	r0, r5
10000db4:	9400      	str	r4, [sp, #0]
10000db6:	f009 f9dd 	bl	1000a174 <i2c_write_blocking>
10000dba:	466a      	mov	r2, sp
10000dbc:	4b4b      	ldr	r3, [pc, #300]	@ (10000eec <ssd1306_Init+0x2c8>)
10000dbe:	213c      	movs	r1, #60	@ 0x3c
10000dc0:	8193      	strh	r3, [r2, #12]
10000dc2:	0028      	movs	r0, r5
10000dc4:	aa03      	add	r2, sp, #12
10000dc6:	2302      	movs	r3, #2
10000dc8:	9400      	str	r4, [sp, #0]
10000dca:	f009 f9d3 	bl	1000a174 <i2c_write_blocking>
10000dce:	466a      	mov	r2, sp
10000dd0:	4b47      	ldr	r3, [pc, #284]	@ (10000ef0 <ssd1306_Init+0x2cc>)
10000dd2:	213c      	movs	r1, #60	@ 0x3c
10000dd4:	8193      	strh	r3, [r2, #12]
10000dd6:	0028      	movs	r0, r5
10000dd8:	aa03      	add	r2, sp, #12
10000dda:	2302      	movs	r3, #2
10000ddc:	9400      	str	r4, [sp, #0]
10000dde:	f009 f9c9 	bl	1000a174 <i2c_write_blocking>
10000de2:	466a      	mov	r2, sp
10000de4:	4b43      	ldr	r3, [pc, #268]	@ (10000ef4 <ssd1306_Init+0x2d0>)
10000de6:	213c      	movs	r1, #60	@ 0x3c
10000de8:	8193      	strh	r3, [r2, #12]
10000dea:	0028      	movs	r0, r5
10000dec:	aa03      	add	r2, sp, #12
10000dee:	2302      	movs	r3, #2
10000df0:	9400      	str	r4, [sp, #0]
10000df2:	f009 f9bf 	bl	1000a174 <i2c_write_blocking>
10000df6:	2388      	movs	r3, #136	@ 0x88
10000df8:	466a      	mov	r2, sp
10000dfa:	019b      	lsls	r3, r3, #6
10000dfc:	8193      	strh	r3, [r2, #12]
10000dfe:	213c      	movs	r1, #60	@ 0x3c
10000e00:	aa03      	add	r2, sp, #12
10000e02:	2302      	movs	r3, #2
10000e04:	0028      	movs	r0, r5
10000e06:	9400      	str	r4, [sp, #0]
10000e08:	f009 f9b4 	bl	1000a174 <i2c_write_blocking>
10000e0c:	466a      	mov	r2, sp
10000e0e:	4b3a      	ldr	r3, [pc, #232]	@ (10000ef8 <ssd1306_Init+0x2d4>)
10000e10:	213c      	movs	r1, #60	@ 0x3c
10000e12:	8193      	strh	r3, [r2, #12]
10000e14:	0028      	movs	r0, r5
10000e16:	aa03      	add	r2, sp, #12
10000e18:	2302      	movs	r3, #2
10000e1a:	9400      	str	r4, [sp, #0]
10000e1c:	f009 f9aa 	bl	1000a174 <i2c_write_blocking>
10000e20:	2390      	movs	r3, #144	@ 0x90
10000e22:	466a      	mov	r2, sp
10000e24:	015b      	lsls	r3, r3, #5
10000e26:	8193      	strh	r3, [r2, #12]
10000e28:	213c      	movs	r1, #60	@ 0x3c
10000e2a:	aa03      	add	r2, sp, #12
10000e2c:	2302      	movs	r3, #2
10000e2e:	0028      	movs	r0, r5
10000e30:	9400      	str	r4, [sp, #0]
10000e32:	f009 f99f 	bl	1000a174 <i2c_write_blocking>
10000e36:	466a      	mov	r2, sp
10000e38:	4b30      	ldr	r3, [pc, #192]	@ (10000efc <ssd1306_Init+0x2d8>)
10000e3a:	213c      	movs	r1, #60	@ 0x3c
10000e3c:	8193      	strh	r3, [r2, #12]
10000e3e:	0028      	movs	r0, r5
10000e40:	aa03      	add	r2, sp, #12
10000e42:	2302      	movs	r3, #2
10000e44:	9400      	str	r4, [sp, #0]
10000e46:	f009 f995 	bl	1000a174 <i2c_write_blocking>
10000e4a:	466b      	mov	r3, sp
10000e4c:	aa03      	add	r2, sp, #12
10000e4e:	819f      	strh	r7, [r3, #12]
10000e50:	213c      	movs	r1, #60	@ 0x3c
10000e52:	2302      	movs	r3, #2
10000e54:	0028      	movs	r0, r5
10000e56:	9400      	str	r4, [sp, #0]
10000e58:	f009 f98c 	bl	1000a174 <i2c_write_blocking>
10000e5c:	466a      	mov	r2, sp
10000e5e:	4b28      	ldr	r3, [pc, #160]	@ (10000f00 <ssd1306_Init+0x2dc>)
10000e60:	213c      	movs	r1, #60	@ 0x3c
10000e62:	8193      	strh	r3, [r2, #12]
10000e64:	0028      	movs	r0, r5
10000e66:	aa03      	add	r2, sp, #12
10000e68:	2302      	movs	r3, #2
10000e6a:	9400      	str	r4, [sp, #0]
10000e6c:	f009 f982 	bl	1000a174 <i2c_write_blocking>
10000e70:	23a0      	movs	r3, #160	@ 0xa0
10000e72:	466a      	mov	r2, sp
10000e74:	015b      	lsls	r3, r3, #5
10000e76:	8193      	strh	r3, [r2, #12]
10000e78:	213c      	movs	r1, #60	@ 0x3c
10000e7a:	aa03      	add	r2, sp, #12
10000e7c:	2302      	movs	r3, #2
10000e7e:	0028      	movs	r0, r5
10000e80:	9400      	str	r4, [sp, #0]
10000e82:	f009 f977 	bl	1000a174 <i2c_write_blocking>
10000e86:	2701      	movs	r7, #1
10000e88:	466a      	mov	r2, sp
10000e8a:	4b1e      	ldr	r3, [pc, #120]	@ (10000f04 <ssd1306_Init+0x2e0>)
10000e8c:	7177      	strb	r7, [r6, #5]
10000e8e:	8193      	strh	r3, [r2, #12]
10000e90:	213c      	movs	r1, #60	@ 0x3c
10000e92:	2302      	movs	r3, #2
10000e94:	aa03      	add	r2, sp, #12
10000e96:	0028      	movs	r0, r5
10000e98:	9400      	str	r4, [sp, #0]
10000e9a:	f009 f96b 	bl	1000a174 <i2c_write_blocking>
10000e9e:	2280      	movs	r2, #128	@ 0x80
10000ea0:	2100      	movs	r1, #0
10000ea2:	00d2      	lsls	r2, r2, #3
10000ea4:	4818      	ldr	r0, [pc, #96]	@ (10000f08 <ssd1306_Init+0x2e4>)
10000ea6:	f004 fc57 	bl	10005758 <__wrap_memset>
10000eaa:	f7ff fe69 	bl	10000b80 <ssd1306_UpdateScreen>
10000eae:	6034      	str	r4, [r6, #0]
10000eb0:	7137      	strb	r7, [r6, #4]
10000eb2:	b005      	add	sp, #20
10000eb4:	bdf0      	pop	{r4, r5, r6, r7, pc}
10000eb6:	46c0      	nop			@ (mov r8, r8)
10000eb8:	200036f8 	.word	0x200036f8
10000ebc:	00061a80 	.word	0x00061a80
10000ec0:	200040d0 	.word	0x200040d0
10000ec4:	ffffae00 	.word	0xffffae00
10000ec8:	ffffb000 	.word	0xffffb000
10000ecc:	ffffc800 	.word	0xffffc800
10000ed0:	ffff8100 	.word	0xffff8100
10000ed4:	ffffff00 	.word	0xffffff00
10000ed8:	ffffa100 	.word	0xffffa100
10000edc:	ffffa600 	.word	0xffffa600
10000ee0:	ffffa800 	.word	0xffffa800
10000ee4:	ffffa400 	.word	0xffffa400
10000ee8:	ffffd300 	.word	0xffffd300
10000eec:	ffffd500 	.word	0xffffd500
10000ef0:	fffff000 	.word	0xfffff000
10000ef4:	ffffd900 	.word	0xffffd900
10000ef8:	ffffda00 	.word	0xffffda00
10000efc:	ffffdb00 	.word	0xffffdb00
10000f00:	ffff8d00 	.word	0xffff8d00
10000f04:	ffffaf00 	.word	0xffffaf00
10000f08:	200040d8 	.word	0x200040d8

10000f0c <ssd1306_WriteChar>:
10000f0c:	b5f0      	push	{r4, r5, r6, r7, lr}
10000f0e:	4645      	mov	r5, r8
10000f10:	4657      	mov	r7, sl
10000f12:	46de      	mov	lr, fp
10000f14:	464e      	mov	r6, r9
10000f16:	b5e0      	push	{r5, r6, r7, lr}
10000f18:	0007      	movs	r7, r0
10000f1a:	b08d      	sub	sp, #52	@ 0x34
10000f1c:	930b      	str	r3, [sp, #44]	@ 0x2c
10000f1e:	ab16      	add	r3, sp, #88	@ 0x58
10000f20:	781b      	ldrb	r3, [r3, #0]
10000f22:	3f20      	subs	r7, #32
10000f24:	469a      	mov	sl, r3
10000f26:	b2fb      	uxtb	r3, r7
10000f28:	ad09      	add	r5, sp, #36	@ 0x24
10000f2a:	0004      	movs	r4, r0
10000f2c:	9109      	str	r1, [sp, #36]	@ 0x24
10000f2e:	606a      	str	r2, [r5, #4]
10000f30:	2b5e      	cmp	r3, #94	@ 0x5e
10000f32:	d87c      	bhi.n	1000102e <ssd1306_WriteChar+0x122>
10000f34:	4b64      	ldr	r3, [pc, #400]	@ (100010c8 <ssd1306_WriteChar+0x1bc>)
10000f36:	7829      	ldrb	r1, [r5, #0]
10000f38:	881a      	ldrh	r2, [r3, #0]
10000f3a:	9202      	str	r2, [sp, #8]
10000f3c:	1852      	adds	r2, r2, r1
10000f3e:	2a80      	cmp	r2, #128	@ 0x80
10000f40:	dc75      	bgt.n	1000102e <ssd1306_WriteChar+0x122>
10000f42:	7868      	ldrb	r0, [r5, #1]
10000f44:	4683      	mov	fp, r0
10000f46:	8858      	ldrh	r0, [r3, #2]
10000f48:	465e      	mov	r6, fp
10000f4a:	4680      	mov	r8, r0
10000f4c:	4446      	add	r6, r8
10000f4e:	2e40      	cmp	r6, #64	@ 0x40
10000f50:	dc6d      	bgt.n	1000102e <ssd1306_WriteChar+0x122>
10000f52:	4658      	mov	r0, fp
10000f54:	68ae      	ldr	r6, [r5, #8]
10000f56:	2800      	cmp	r0, #0
10000f58:	d05f      	beq.n	1000101a <ssd1306_WriteChar+0x10e>
10000f5a:	4347      	muls	r7, r0
10000f5c:	686d      	ldr	r5, [r5, #4]
10000f5e:	2900      	cmp	r1, #0
10000f60:	d05b      	beq.n	1000101a <ssd1306_WriteChar+0x10e>
10000f62:	46ac      	mov	ip, r5
10000f64:	007f      	lsls	r7, r7, #1
10000f66:	4640      	mov	r0, r8
10000f68:	44bc      	add	ip, r7
10000f6a:	2700      	movs	r7, #0
10000f6c:	4d57      	ldr	r5, [pc, #348]	@ (100010cc <ssd1306_WriteChar+0x1c0>)
10000f6e:	b2c0      	uxtb	r0, r0
10000f70:	9605      	str	r6, [sp, #20]
10000f72:	9406      	str	r4, [sp, #24]
10000f74:	9307      	str	r3, [sp, #28]
10000f76:	9208      	str	r2, [sp, #32]
10000f78:	283f      	cmp	r0, #63	@ 0x3f
10000f7a:	d842      	bhi.n	10001002 <ssd1306_WriteChar+0xf6>
10000f7c:	4663      	mov	r3, ip
10000f7e:	881c      	ldrh	r4, [r3, #0]
10000f80:	466b      	mov	r3, sp
10000f82:	7a1b      	ldrb	r3, [r3, #8]
10000f84:	2200      	movs	r2, #0
10000f86:	9300      	str	r3, [sp, #0]
10000f88:	4653      	mov	r3, sl
10000f8a:	2b00      	cmp	r3, #0
10000f8c:	d05c      	beq.n	10001048 <ssd1306_WriteChar+0x13c>
10000f8e:	08c3      	lsrs	r3, r0, #3
10000f90:	2607      	movs	r6, #7
10000f92:	4698      	mov	r8, r3
10000f94:	2301      	movs	r3, #1
10000f96:	4006      	ands	r6, r0
10000f98:	40b3      	lsls	r3, r6
10000f9a:	9304      	str	r3, [sp, #16]
10000f9c:	43db      	mvns	r3, r3
10000f9e:	4699      	mov	r9, r3
10000fa0:	4646      	mov	r6, r8
10000fa2:	4680      	mov	r8, r0
10000fa4:	4648      	mov	r0, r9
10000fa6:	9b00      	ldr	r3, [sp, #0]
10000fa8:	9703      	str	r7, [sp, #12]
10000faa:	9001      	str	r0, [sp, #4]
10000fac:	9600      	str	r6, [sp, #0]
10000fae:	e013      	b.n	10000fd8 <ssd1306_WriteChar+0xcc>
10000fb0:	b25e      	sxtb	r6, r3
10000fb2:	2e00      	cmp	r6, #0
10000fb4:	db0b      	blt.n	10000fce <ssd1306_WriteChar+0xc2>
10000fb6:	9800      	ldr	r0, [sp, #0]
10000fb8:	01c6      	lsls	r6, r0, #7
10000fba:	18f6      	adds	r6, r6, r3
10000fbc:	5da8      	ldrb	r0, [r5, r6]
10000fbe:	4681      	mov	r9, r0
10000fc0:	4650      	mov	r0, sl
10000fc2:	2801      	cmp	r0, #1
10000fc4:	d03b      	beq.n	1000103e <ssd1306_WriteChar+0x132>
10000fc6:	4648      	mov	r0, r9
10000fc8:	9f01      	ldr	r7, [sp, #4]
10000fca:	4038      	ands	r0, r7
10000fcc:	55a8      	strb	r0, [r5, r6]
10000fce:	3301      	adds	r3, #1
10000fd0:	3201      	adds	r2, #1
10000fd2:	b2db      	uxtb	r3, r3
10000fd4:	4291      	cmp	r1, r2
10000fd6:	d912      	bls.n	10000ffe <ssd1306_WriteChar+0xf2>
10000fd8:	0026      	movs	r6, r4
10000fda:	4096      	lsls	r6, r2
10000fdc:	0436      	lsls	r6, r6, #16
10000fde:	d4e7      	bmi.n	10000fb0 <ssd1306_WriteChar+0xa4>
10000fe0:	b25e      	sxtb	r6, r3
10000fe2:	2e00      	cmp	r6, #0
10000fe4:	dbf3      	blt.n	10000fce <ssd1306_WriteChar+0xc2>
10000fe6:	9800      	ldr	r0, [sp, #0]
10000fe8:	9f01      	ldr	r7, [sp, #4]
10000fea:	01c6      	lsls	r6, r0, #7
10000fec:	18f6      	adds	r6, r6, r3
10000fee:	5da8      	ldrb	r0, [r5, r6]
10000ff0:	3301      	adds	r3, #1
10000ff2:	4038      	ands	r0, r7
10000ff4:	3201      	adds	r2, #1
10000ff6:	55a8      	strb	r0, [r5, r6]
10000ff8:	b2db      	uxtb	r3, r3
10000ffa:	4291      	cmp	r1, r2
10000ffc:	d8ec      	bhi.n	10000fd8 <ssd1306_WriteChar+0xcc>
10000ffe:	4640      	mov	r0, r8
10001000:	9f03      	ldr	r7, [sp, #12]
10001002:	2302      	movs	r3, #2
10001004:	4698      	mov	r8, r3
10001006:	3001      	adds	r0, #1
10001008:	3701      	adds	r7, #1
1000100a:	44c4      	add	ip, r8
1000100c:	b2c0      	uxtb	r0, r0
1000100e:	45bb      	cmp	fp, r7
10001010:	d8b2      	bhi.n	10000f78 <ssd1306_WriteChar+0x6c>
10001012:	9e05      	ldr	r6, [sp, #20]
10001014:	9c06      	ldr	r4, [sp, #24]
10001016:	9b07      	ldr	r3, [sp, #28]
10001018:	9a08      	ldr	r2, [sp, #32]
1000101a:	2e00      	cmp	r6, #0
1000101c:	d004      	beq.n	10001028 <ssd1306_WriteChar+0x11c>
1000101e:	1936      	adds	r6, r6, r4
10001020:	3e20      	subs	r6, #32
10001022:	7831      	ldrb	r1, [r6, #0]
10001024:	9a02      	ldr	r2, [sp, #8]
10001026:	1852      	adds	r2, r2, r1
10001028:	0020      	movs	r0, r4
1000102a:	801a      	strh	r2, [r3, #0]
1000102c:	e000      	b.n	10001030 <ssd1306_WriteChar+0x124>
1000102e:	2000      	movs	r0, #0
10001030:	b00d      	add	sp, #52	@ 0x34
10001032:	bcf0      	pop	{r4, r5, r6, r7}
10001034:	46bb      	mov	fp, r7
10001036:	46b2      	mov	sl, r6
10001038:	46a9      	mov	r9, r5
1000103a:	46a0      	mov	r8, r4
1000103c:	bdf0      	pop	{r4, r5, r6, r7, pc}
1000103e:	4648      	mov	r0, r9
10001040:	9f04      	ldr	r7, [sp, #16]
10001042:	4338      	orrs	r0, r7
10001044:	55a8      	strb	r0, [r5, r6]
10001046:	e7c2      	b.n	10000fce <ssd1306_WriteChar+0xc2>
10001048:	08c3      	lsrs	r3, r0, #3
1000104a:	2607      	movs	r6, #7
1000104c:	4698      	mov	r8, r3
1000104e:	2301      	movs	r3, #1
10001050:	4006      	ands	r6, r0
10001052:	40b3      	lsls	r3, r6
10001054:	4699      	mov	r9, r3
10001056:	4646      	mov	r6, r8
10001058:	43db      	mvns	r3, r3
1000105a:	4680      	mov	r8, r0
1000105c:	4648      	mov	r0, r9
1000105e:	9301      	str	r3, [sp, #4]
10001060:	9704      	str	r7, [sp, #16]
10001062:	9b00      	ldr	r3, [sp, #0]
10001064:	9003      	str	r0, [sp, #12]
10001066:	9600      	str	r6, [sp, #0]
10001068:	e00e      	b.n	10001088 <ssd1306_WriteChar+0x17c>
1000106a:	b25e      	sxtb	r6, r3
1000106c:	2e00      	cmp	r6, #0
1000106e:	db06      	blt.n	1000107e <ssd1306_WriteChar+0x172>
10001070:	9800      	ldr	r0, [sp, #0]
10001072:	01c6      	lsls	r6, r0, #7
10001074:	18f6      	adds	r6, r6, r3
10001076:	5daf      	ldrb	r7, [r5, r6]
10001078:	9803      	ldr	r0, [sp, #12]
1000107a:	4307      	orrs	r7, r0
1000107c:	55af      	strb	r7, [r5, r6]
1000107e:	3301      	adds	r3, #1
10001080:	3201      	adds	r2, #1
10001082:	b2db      	uxtb	r3, r3
10001084:	428a      	cmp	r2, r1
10001086:	d213      	bcs.n	100010b0 <ssd1306_WriteChar+0x1a4>
10001088:	0026      	movs	r6, r4
1000108a:	4096      	lsls	r6, r2
1000108c:	0436      	lsls	r6, r6, #16
1000108e:	d5ec      	bpl.n	1000106a <ssd1306_WriteChar+0x15e>
10001090:	b25e      	sxtb	r6, r3
10001092:	2e00      	cmp	r6, #0
10001094:	dbf3      	blt.n	1000107e <ssd1306_WriteChar+0x172>
10001096:	9800      	ldr	r0, [sp, #0]
10001098:	3201      	adds	r2, #1
1000109a:	01c6      	lsls	r6, r0, #7
1000109c:	18f6      	adds	r6, r6, r3
1000109e:	5da8      	ldrb	r0, [r5, r6]
100010a0:	3301      	adds	r3, #1
100010a2:	0007      	movs	r7, r0
100010a4:	9801      	ldr	r0, [sp, #4]
100010a6:	b2db      	uxtb	r3, r3
100010a8:	4007      	ands	r7, r0
100010aa:	55af      	strb	r7, [r5, r6]
100010ac:	428a      	cmp	r2, r1
100010ae:	d3eb      	bcc.n	10001088 <ssd1306_WriteChar+0x17c>
100010b0:	2302      	movs	r3, #2
100010b2:	4640      	mov	r0, r8
100010b4:	4698      	mov	r8, r3
100010b6:	9f04      	ldr	r7, [sp, #16]
100010b8:	3001      	adds	r0, #1
100010ba:	3701      	adds	r7, #1
100010bc:	44c4      	add	ip, r8
100010be:	b2c0      	uxtb	r0, r0
100010c0:	45bb      	cmp	fp, r7
100010c2:	d900      	bls.n	100010c6 <ssd1306_WriteChar+0x1ba>
100010c4:	e758      	b.n	10000f78 <ssd1306_WriteChar+0x6c>
100010c6:	e7a4      	b.n	10001012 <ssd1306_WriteChar+0x106>
100010c8:	200040d0 	.word	0x200040d0
100010cc:	200040d8 	.word	0x200040d8

100010d0 <ssd1306_WriteString>:
100010d0:	b570      	push	{r4, r5, r6, lr}
100010d2:	b086      	sub	sp, #24
100010d4:	9305      	str	r3, [sp, #20]
100010d6:	9103      	str	r1, [sp, #12]
100010d8:	9204      	str	r2, [sp, #16]
100010da:	0004      	movs	r4, r0
100010dc:	7800      	ldrb	r0, [r0, #0]
100010de:	ab0a      	add	r3, sp, #40	@ 0x28
100010e0:	ad03      	add	r5, sp, #12
100010e2:	781e      	ldrb	r6, [r3, #0]
100010e4:	2800      	cmp	r0, #0
100010e6:	d104      	bne.n	100010f2 <ssd1306_WriteString+0x22>
100010e8:	e00f      	b.n	1000110a <ssd1306_WriteString+0x3a>
100010ea:	7860      	ldrb	r0, [r4, #1]
100010ec:	3401      	adds	r4, #1
100010ee:	2800      	cmp	r0, #0
100010f0:	d00b      	beq.n	1000110a <ssd1306_WriteString+0x3a>
100010f2:	9600      	str	r6, [sp, #0]
100010f4:	68ab      	ldr	r3, [r5, #8]
100010f6:	6829      	ldr	r1, [r5, #0]
100010f8:	686a      	ldr	r2, [r5, #4]
100010fa:	f7ff ff07 	bl	10000f0c <ssd1306_WriteChar>
100010fe:	7823      	ldrb	r3, [r4, #0]
10001100:	4298      	cmp	r0, r3
10001102:	d0f2      	beq.n	100010ea <ssd1306_WriteString+0x1a>
10001104:	0018      	movs	r0, r3
10001106:	b006      	add	sp, #24
10001108:	bd70      	pop	{r4, r5, r6, pc}
1000110a:	2300      	movs	r3, #0
1000110c:	e7fa      	b.n	10001104 <ssd1306_WriteString+0x34>
1000110e:	46c0      	nop			@ (mov r8, r8)

10001110 <ssd1306_SetCursor>:
10001110:	4b01      	ldr	r3, [pc, #4]	@ (10001118 <ssd1306_SetCursor+0x8>)
10001112:	8018      	strh	r0, [r3, #0]
10001114:	8059      	strh	r1, [r3, #2]
10001116:	4770      	bx	lr
10001118:	200040d0 	.word	0x200040d0

1000111c <menu_draw.constprop.0>:
1000111c:	b5f0      	push	{r4, r5, r6, r7, lr}
1000111e:	46de      	mov	lr, fp
10001120:	4657      	mov	r7, sl
10001122:	464e      	mov	r6, r9
10001124:	4645      	mov	r5, r8
10001126:	b5e0      	push	{r5, r6, r7, lr}
10001128:	4680      	mov	r8, r0
1000112a:	b083      	sub	sp, #12
1000112c:	2000      	movs	r0, #0
1000112e:	f7ff fd19 	bl	10000b64 <ssd1306_Fill>
10001132:	4b1a      	ldr	r3, [pc, #104]	@ (1000119c <menu_draw.constprop.0+0x80>)
10001134:	2600      	movs	r6, #0
10001136:	4699      	mov	r9, r3
10001138:	4b19      	ldr	r3, [pc, #100]	@ (100011a0 <menu_draw.constprop.0+0x84>)
1000113a:	2500      	movs	r5, #0
1000113c:	469a      	mov	sl, r3
1000113e:	4b19      	ldr	r3, [pc, #100]	@ (100011a4 <menu_draw.constprop.0+0x88>)
10001140:	2701      	movs	r7, #1
10001142:	469b      	mov	fp, r3
10001144:	4c18      	ldr	r4, [pc, #96]	@ (100011a8 <menu_draw.constprop.0+0x8c>)
10001146:	e011      	b.n	1000116c <menu_draw.constprop.0+0x50>
10001148:	4650      	mov	r0, sl
1000114a:	68a3      	ldr	r3, [r4, #8]
1000114c:	f7ff ffc0 	bl	100010d0 <ssd1306_WriteString>
10001150:	4642      	mov	r2, r8
10001152:	00ab      	lsls	r3, r5, #2
10001154:	58d0      	ldr	r0, [r2, r3]
10001156:	6821      	ldr	r1, [r4, #0]
10001158:	6862      	ldr	r2, [r4, #4]
1000115a:	68a3      	ldr	r3, [r4, #8]
1000115c:	9700      	str	r7, [sp, #0]
1000115e:	360c      	adds	r6, #12
10001160:	3501      	adds	r5, #1
10001162:	f7ff ffb5 	bl	100010d0 <ssd1306_WriteString>
10001166:	b2f6      	uxtb	r6, r6
10001168:	2d04      	cmp	r5, #4
1000116a:	d00d      	beq.n	10001188 <menu_draw.constprop.0+0x6c>
1000116c:	0031      	movs	r1, r6
1000116e:	200a      	movs	r0, #10
10001170:	f7ff ffce 	bl	10001110 <ssd1306_SetCursor>
10001174:	464b      	mov	r3, r9
10001176:	681b      	ldr	r3, [r3, #0]
10001178:	6821      	ldr	r1, [r4, #0]
1000117a:	6862      	ldr	r2, [r4, #4]
1000117c:	9700      	str	r7, [sp, #0]
1000117e:	42ab      	cmp	r3, r5
10001180:	d1e2      	bne.n	10001148 <menu_draw.constprop.0+0x2c>
10001182:	4658      	mov	r0, fp
10001184:	68a3      	ldr	r3, [r4, #8]
10001186:	e7e1      	b.n	1000114c <menu_draw.constprop.0+0x30>
10001188:	f7ff fcfa 	bl	10000b80 <ssd1306_UpdateScreen>
1000118c:	b003      	add	sp, #12
1000118e:	bcf0      	pop	{r4, r5, r6, r7}
10001190:	46bb      	mov	fp, r7
10001192:	46b2      	mov	sl, r6
10001194:	46a9      	mov	r9, r5
10001196:	46a0      	mov	r8, r4
10001198:	bdf0      	pop	{r4, r5, r6, r7, pc}
1000119a:	46c0      	nop			@ (mov r8, r8)
1000119c:	200051c0 	.word	0x200051c0
100011a0:	1000b0b4 	.word	0x1000b0b4
100011a4:	1000b0b0 	.word	0x1000b0b0
100011a8:	1000b788 	.word	0x1000b788

100011ac <menu_draw.constprop.1>:
100011ac:	b5f0      	push	{r4, r5, r6, r7, lr}
100011ae:	46de      	mov	lr, fp
100011b0:	4657      	mov	r7, sl
100011b2:	464e      	mov	r6, r9
100011b4:	4645      	mov	r5, r8
100011b6:	b5e0      	push	{r5, r6, r7, lr}
100011b8:	2000      	movs	r0, #0
100011ba:	b083      	sub	sp, #12
100011bc:	f7ff fcd2 	bl	10000b64 <ssd1306_Fill>
100011c0:	4b1a      	ldr	r3, [pc, #104]	@ (1000122c <menu_draw.constprop.1+0x80>)
100011c2:	2500      	movs	r5, #0
100011c4:	4698      	mov	r8, r3
100011c6:	4b1a      	ldr	r3, [pc, #104]	@ (10001230 <menu_draw.constprop.1+0x84>)
100011c8:	2600      	movs	r6, #0
100011ca:	4699      	mov	r9, r3
100011cc:	4b19      	ldr	r3, [pc, #100]	@ (10001234 <menu_draw.constprop.1+0x88>)
100011ce:	2701      	movs	r7, #1
100011d0:	469a      	mov	sl, r3
100011d2:	4b19      	ldr	r3, [pc, #100]	@ (10001238 <menu_draw.constprop.1+0x8c>)
100011d4:	4c19      	ldr	r4, [pc, #100]	@ (1000123c <menu_draw.constprop.1+0x90>)
100011d6:	469b      	mov	fp, r3
100011d8:	e011      	b.n	100011fe <menu_draw.constprop.1+0x52>
100011da:	4650      	mov	r0, sl
100011dc:	68a3      	ldr	r3, [r4, #8]
100011de:	f7ff ff77 	bl	100010d0 <ssd1306_WriteString>
100011e2:	4643      	mov	r3, r8
100011e4:	cb01      	ldmia	r3!, {r0}
100011e6:	6821      	ldr	r1, [r4, #0]
100011e8:	4698      	mov	r8, r3
100011ea:	6862      	ldr	r2, [r4, #4]
100011ec:	68a3      	ldr	r3, [r4, #8]
100011ee:	9700      	str	r7, [sp, #0]
100011f0:	350c      	adds	r5, #12
100011f2:	3601      	adds	r6, #1
100011f4:	f7ff ff6c 	bl	100010d0 <ssd1306_WriteString>
100011f8:	b2ed      	uxtb	r5, r5
100011fa:	2e03      	cmp	r6, #3
100011fc:	d00d      	beq.n	1000121a <menu_draw.constprop.1+0x6e>
100011fe:	0029      	movs	r1, r5
10001200:	200a      	movs	r0, #10
10001202:	f7ff ff85 	bl	10001110 <ssd1306_SetCursor>
10001206:	464b      	mov	r3, r9
10001208:	681b      	ldr	r3, [r3, #0]
1000120a:	6821      	ldr	r1, [r4, #0]
1000120c:	6862      	ldr	r2, [r4, #4]
1000120e:	9700      	str	r7, [sp, #0]
10001210:	42b3      	cmp	r3, r6
10001212:	d1e2      	bne.n	100011da <menu_draw.constprop.1+0x2e>
10001214:	4658      	mov	r0, fp
10001216:	68a3      	ldr	r3, [r4, #8]
10001218:	e7e1      	b.n	100011de <menu_draw.constprop.1+0x32>
1000121a:	f7ff fcb1 	bl	10000b80 <ssd1306_UpdateScreen>
1000121e:	b003      	add	sp, #12
10001220:	bcf0      	pop	{r4, r5, r6, r7}
10001222:	46bb      	mov	fp, r7
10001224:	46b2      	mov	sl, r6
10001226:	46a9      	mov	r9, r5
10001228:	46a0      	mov	r8, r4
1000122a:	bdf0      	pop	{r4, r5, r6, r7, pc}
1000122c:	20000fc0 	.word	0x20000fc0
10001230:	200051c0 	.word	0x200051c0
10001234:	1000b0b4 	.word	0x1000b0b4
10001238:	1000b0b0 	.word	0x1000b0b0
1000123c:	1000b788 	.word	0x1000b788

10001240 <menu_init>:
10001240:	b510      	push	{r4, lr}
10001242:	f7ff fcef 	bl	10000c24 <ssd1306_Init>
10001246:	f7ff ffb1 	bl	100011ac <menu_draw.constprop.1>
1000124a:	bd10      	pop	{r4, pc}

1000124c <ajustar_intensidade_leds>:
1000124c:	b5f0      	push	{r4, r5, r6, r7, lr}
1000124e:	4b3d      	ldr	r3, [pc, #244]	@ (10001344 <ajustar_intensidade_leds+0xf8>)
10001250:	b08f      	sub	sp, #60	@ 0x3c
10001252:	4298      	cmp	r0, r3
10001254:	dd56      	ble.n	10001304 <ajustar_intensidade_leds+0xb8>
10001256:	4d3c      	ldr	r5, [pc, #240]	@ (10001348 <ajustar_intensidade_leds+0xfc>)
10001258:	2200      	movs	r2, #0
1000125a:	682e      	ldr	r6, [r5, #0]
1000125c:	686f      	ldr	r7, [r5, #4]
1000125e:	4b3b      	ldr	r3, [pc, #236]	@ (1000134c <ajustar_intensidade_leds+0x100>)
10001260:	0030      	movs	r0, r6
10001262:	0039      	movs	r1, r7
10001264:	f004 f8d0 	bl	10005408 <__wrap___aeabi_dcmplt>
10001268:	2800      	cmp	r0, #0
1000126a:	d000      	beq.n	1000126e <ajustar_intensidade_leds+0x22>
1000126c:	e066      	b.n	1000133c <ajustar_intensidade_leds+0xf0>
1000126e:	2200      	movs	r2, #0
10001270:	2300      	movs	r3, #0
10001272:	0030      	movs	r0, r6
10001274:	0039      	movs	r1, r7
10001276:	f004 f869 	bl	1000534c <__wrap___aeabi_dadd>
1000127a:	2600      	movs	r6, #0
1000127c:	4f33      	ldr	r7, [pc, #204]	@ (1000134c <ajustar_intensidade_leds+0x100>)
1000127e:	6028      	str	r0, [r5, #0]
10001280:	6069      	str	r1, [r5, #4]
10001282:	4833      	ldr	r0, [pc, #204]	@ (10001350 <ajustar_intensidade_leds+0x104>)
10001284:	f006 f936 	bl	100074f4 <__wrap_printf>
10001288:	6828      	ldr	r0, [r5, #0]
1000128a:	6869      	ldr	r1, [r5, #4]
1000128c:	0032      	movs	r2, r6
1000128e:	003b      	movs	r3, r7
10001290:	f004 f8d0 	bl	10005434 <__wrap___aeabi_dcmpgt>
10001294:	2800      	cmp	r0, #0
10001296:	d001      	beq.n	1000129c <ajustar_intensidade_leds+0x50>
10001298:	602e      	str	r6, [r5, #0]
1000129a:	606f      	str	r7, [r5, #4]
1000129c:	2000      	movs	r0, #0
1000129e:	f7ff fc61 	bl	10000b64 <ssd1306_Fill>
100012a2:	210a      	movs	r1, #10
100012a4:	200a      	movs	r0, #10
100012a6:	f7ff ff33 	bl	10001110 <ssd1306_SetCursor>
100012aa:	6828      	ldr	r0, [r5, #0]
100012ac:	6869      	ldr	r1, [r5, #4]
100012ae:	4a29      	ldr	r2, [pc, #164]	@ (10001354 <ajustar_intensidade_leds+0x108>)
100012b0:	9000      	str	r0, [sp, #0]
100012b2:	9101      	str	r1, [sp, #4]
100012b4:	2114      	movs	r1, #20
100012b6:	a809      	add	r0, sp, #36	@ 0x24
100012b8:	f005 feae 	bl	10007018 <__wrap_snprintf>
100012bc:	2201      	movs	r2, #1
100012be:	4b26      	ldr	r3, [pc, #152]	@ (10001358 <ajustar_intensidade_leds+0x10c>)
100012c0:	9200      	str	r2, [sp, #0]
100012c2:	a809      	add	r0, sp, #36	@ 0x24
100012c4:	cb0e      	ldmia	r3, {r1, r2, r3}
100012c6:	f7ff ff03 	bl	100010d0 <ssd1306_WriteString>
100012ca:	f7ff fc59 	bl	10000b80 <ssd1306_UpdateScreen>
100012ce:	682a      	ldr	r2, [r5, #0]
100012d0:	686b      	ldr	r3, [r5, #4]
100012d2:	4c22      	ldr	r4, [pc, #136]	@ (1000135c <ajustar_intensidade_leds+0x110>)
100012d4:	9206      	str	r2, [sp, #24]
100012d6:	9307      	str	r3, [sp, #28]
100012d8:	0021      	movs	r1, r4
100012da:	4b21      	ldr	r3, [pc, #132]	@ (10001360 <ajustar_intensidade_leds+0x114>)
100012dc:	4e21      	ldr	r6, [pc, #132]	@ (10001364 <ajustar_intensidade_leds+0x118>)
100012de:	681b      	ldr	r3, [r3, #0]
100012e0:	3108      	adds	r1, #8
100012e2:	9305      	str	r3, [sp, #20]
100012e4:	4b20      	ldr	r3, [pc, #128]	@ (10001368 <ajustar_intensidade_leds+0x11c>)
100012e6:	2210      	movs	r2, #16
100012e8:	681b      	ldr	r3, [r3, #0]
100012ea:	4668      	mov	r0, sp
100012ec:	9304      	str	r3, [sp, #16]
100012ee:	f004 fa39 	bl	10005764 <__wrap___aeabi_memcpy>
100012f2:	cc0c      	ldmia	r4!, {r2, r3}
100012f4:	0030      	movs	r0, r6
100012f6:	f000 fcf5 	bl	10001ce4 <exibir_frame>
100012fa:	481c      	ldr	r0, [pc, #112]	@ (1000136c <ajustar_intensidade_leds+0x120>)
100012fc:	f006 f8fa 	bl	100074f4 <__wrap_printf>
10001300:	b00f      	add	sp, #60	@ 0x3c
10001302:	bdf0      	pop	{r4, r5, r6, r7, pc}
10001304:	4b1a      	ldr	r3, [pc, #104]	@ (10001370 <ajustar_intensidade_leds+0x124>)
10001306:	4d10      	ldr	r5, [pc, #64]	@ (10001348 <ajustar_intensidade_leds+0xfc>)
10001308:	4298      	cmp	r0, r3
1000130a:	dcc7      	bgt.n	1000129c <ajustar_intensidade_leds+0x50>
1000130c:	682e      	ldr	r6, [r5, #0]
1000130e:	686f      	ldr	r7, [r5, #4]
10001310:	4a18      	ldr	r2, [pc, #96]	@ (10001374 <ajustar_intensidade_leds+0x128>)
10001312:	0030      	movs	r0, r6
10001314:	0039      	movs	r1, r7
10001316:	4b18      	ldr	r3, [pc, #96]	@ (10001378 <ajustar_intensidade_leds+0x12c>)
10001318:	f004 f88c 	bl	10005434 <__wrap___aeabi_dcmpgt>
1000131c:	2800      	cmp	r0, #0
1000131e:	d007      	beq.n	10001330 <ajustar_intensidade_leds+0xe4>
10001320:	0030      	movs	r0, r6
10001322:	0039      	movs	r1, r7
10001324:	4a13      	ldr	r2, [pc, #76]	@ (10001374 <ajustar_intensidade_leds+0x128>)
10001326:	4b14      	ldr	r3, [pc, #80]	@ (10001378 <ajustar_intensidade_leds+0x12c>)
10001328:	f004 f80b 	bl	10005342 <__wrap___aeabi_dsub>
1000132c:	0006      	movs	r6, r0
1000132e:	000f      	movs	r7, r1
10001330:	4812      	ldr	r0, [pc, #72]	@ (1000137c <ajustar_intensidade_leds+0x130>)
10001332:	602e      	str	r6, [r5, #0]
10001334:	606f      	str	r7, [r5, #4]
10001336:	f006 f8dd 	bl	100074f4 <__wrap_printf>
1000133a:	e7af      	b.n	1000129c <ajustar_intensidade_leds+0x50>
1000133c:	4a0d      	ldr	r2, [pc, #52]	@ (10001374 <ajustar_intensidade_leds+0x128>)
1000133e:	4b0e      	ldr	r3, [pc, #56]	@ (10001378 <ajustar_intensidade_leds+0x12c>)
10001340:	e797      	b.n	10001272 <ajustar_intensidade_leds+0x26>
10001342:	46c0      	nop			@ (mov r8, r8)
10001344:	000009f3 	.word	0x000009f3
10001348:	20000f98 	.word	0x20000f98
1000134c:	3ff00000 	.word	0x3ff00000
10001350:	1000b0b8 	.word	0x1000b0b8
10001354:	1000b0f0 	.word	0x1000b0f0
10001358:	1000b788 	.word	0x1000b788
1000135c:	20000fd0 	.word	0x20000fd0
10001360:	200052cc 	.word	0x200052cc
10001364:	20001178 	.word	0x20001178
10001368:	2000519c 	.word	0x2000519c
1000136c:	1000b100 	.word	0x1000b100
10001370:	0000060a 	.word	0x0000060a
10001374:	47ae147b 	.word	0x47ae147b
10001378:	3f847ae1 	.word	0x3f847ae1
1000137c:	1000b0d4 	.word	0x1000b0d4

10001380 <display_frase>:
10001380:	b530      	push	{r4, r5, lr}
10001382:	4819      	ldr	r0, [pc, #100]	@ (100013e8 <display_frase+0x68>)
10001384:	b091      	sub	sp, #68	@ 0x44
10001386:	f006 f831 	bl	100073ec <__wrap_puts>
1000138a:	2000      	movs	r0, #0
1000138c:	f7ff fbea 	bl	10000b64 <ssd1306_Fill>
10001390:	210a      	movs	r1, #10
10001392:	200a      	movs	r0, #10
10001394:	f7ff febc 	bl	10001110 <ssd1306_SetCursor>
10001398:	2201      	movs	r2, #1
1000139a:	4b14      	ldr	r3, [pc, #80]	@ (100013ec <display_frase+0x6c>)
1000139c:	9200      	str	r2, [sp, #0]
1000139e:	ad0a      	add	r5, sp, #40	@ 0x28
100013a0:	cb0e      	ldmia	r3, {r1, r2, r3}
100013a2:	4813      	ldr	r0, [pc, #76]	@ (100013f0 <display_frase+0x70>)
100013a4:	f7ff fe94 	bl	100010d0 <ssd1306_WriteString>
100013a8:	2218      	movs	r2, #24
100013aa:	0028      	movs	r0, r5
100013ac:	4911      	ldr	r1, [pc, #68]	@ (100013f4 <display_frase+0x74>)
100013ae:	f004 f9d9 	bl	10005764 <__wrap___aeabi_memcpy>
100013b2:	2305      	movs	r3, #5
100013b4:	9309      	str	r3, [sp, #36]	@ 0x24
100013b6:	335f      	adds	r3, #95	@ 0x5f
100013b8:	9308      	str	r3, [sp, #32]
100013ba:	4a0f      	ldr	r2, [pc, #60]	@ (100013f8 <display_frase+0x78>)
100013bc:	4b0f      	ldr	r3, [pc, #60]	@ (100013fc <display_frase+0x7c>)
100013be:	4c10      	ldr	r4, [pc, #64]	@ (10001400 <display_frase+0x80>)
100013c0:	9206      	str	r2, [sp, #24]
100013c2:	9307      	str	r3, [sp, #28]
100013c4:	4b0f      	ldr	r3, [pc, #60]	@ (10001404 <display_frase+0x84>)
100013c6:	a90c      	add	r1, sp, #48	@ 0x30
100013c8:	681b      	ldr	r3, [r3, #0]
100013ca:	2210      	movs	r2, #16
100013cc:	9305      	str	r3, [sp, #20]
100013ce:	4b0e      	ldr	r3, [pc, #56]	@ (10001408 <display_frase+0x88>)
100013d0:	4668      	mov	r0, sp
100013d2:	681b      	ldr	r3, [r3, #0]
100013d4:	9304      	str	r3, [sp, #16]
100013d6:	f004 f9c5 	bl	10005764 <__wrap___aeabi_memcpy>
100013da:	0020      	movs	r0, r4
100013dc:	9a0a      	ldr	r2, [sp, #40]	@ 0x28
100013de:	9b0b      	ldr	r3, [sp, #44]	@ 0x2c
100013e0:	f000 fe3a 	bl	10002058 <exibir_frase_rolagem>
100013e4:	b011      	add	sp, #68	@ 0x44
100013e6:	bd30      	pop	{r4, r5, pc}
100013e8:	1000b11c 	.word	0x1000b11c
100013ec:	1000b788 	.word	0x1000b788
100013f0:	1000ae88 	.word	0x1000ae88
100013f4:	1000bf28 	.word	0x1000bf28
100013f8:	9999999a 	.word	0x9999999a
100013fc:	3fb99999 	.word	0x3fb99999
10001400:	1000b130 	.word	0x1000b130
10001404:	200052cc 	.word	0x200052cc
10001408:	2000519c 	.word	0x2000519c

1000140c <display_animacao>:
1000140c:	b5f0      	push	{r4, r5, r6, r7, lr}
1000140e:	46de      	mov	lr, fp
10001410:	4657      	mov	r7, sl
10001412:	464e      	mov	r6, r9
10001414:	4645      	mov	r5, r8
10001416:	b5e0      	push	{r5, r6, r7, lr}
10001418:	483c      	ldr	r0, [pc, #240]	@ (1000150c <display_animacao+0x100>)
1000141a:	b091      	sub	sp, #68	@ 0x44
1000141c:	f005 ffe6 	bl	100073ec <__wrap_puts>
10001420:	2000      	movs	r0, #0
10001422:	f7ff fb9f 	bl	10000b64 <ssd1306_Fill>
10001426:	210a      	movs	r1, #10
10001428:	200a      	movs	r0, #10
1000142a:	f7ff fe71 	bl	10001110 <ssd1306_SetCursor>
1000142e:	2201      	movs	r2, #1
10001430:	4b37      	ldr	r3, [pc, #220]	@ (10001510 <display_animacao+0x104>)
10001432:	9200      	str	r2, [sp, #0]
10001434:	4837      	ldr	r0, [pc, #220]	@ (10001514 <display_animacao+0x108>)
10001436:	cb0e      	ldmia	r3, {r1, r2, r3}
10001438:	ac0a      	add	r4, sp, #40	@ 0x28
1000143a:	f7ff fe49 	bl	100010d0 <ssd1306_WriteString>
1000143e:	2218      	movs	r2, #24
10001440:	0020      	movs	r0, r4
10001442:	4935      	ldr	r1, [pc, #212]	@ (10001518 <display_animacao+0x10c>)
10001444:	f004 f98e 	bl	10005764 <__wrap___aeabi_memcpy>
10001448:	4b34      	ldr	r3, [pc, #208]	@ (1000151c <display_animacao+0x110>)
1000144a:	2505      	movs	r5, #5
1000144c:	469b      	mov	fp, r3
1000144e:	4b34      	ldr	r3, [pc, #208]	@ (10001520 <display_animacao+0x114>)
10001450:	4e34      	ldr	r6, [pc, #208]	@ (10001524 <display_animacao+0x118>)
10001452:	4699      	mov	r9, r3
10001454:	4b34      	ldr	r3, [pc, #208]	@ (10001528 <display_animacao+0x11c>)
10001456:	4f35      	ldr	r7, [pc, #212]	@ (1000152c <display_animacao+0x120>)
10001458:	4698      	mov	r8, r3
1000145a:	4b35      	ldr	r3, [pc, #212]	@ (10001530 <display_animacao+0x124>)
1000145c:	9309      	str	r3, [sp, #36]	@ 0x24
1000145e:	23d0      	movs	r3, #208	@ 0xd0
10001460:	061b      	lsls	r3, r3, #24
10001462:	469a      	mov	sl, r3
10001464:	464b      	mov	r3, r9
10001466:	9606      	str	r6, [sp, #24]
10001468:	9707      	str	r7, [sp, #28]
1000146a:	681b      	ldr	r3, [r3, #0]
1000146c:	a90c      	add	r1, sp, #48	@ 0x30
1000146e:	9305      	str	r3, [sp, #20]
10001470:	4643      	mov	r3, r8
10001472:	681b      	ldr	r3, [r3, #0]
10001474:	2210      	movs	r2, #16
10001476:	4668      	mov	r0, sp
10001478:	9304      	str	r3, [sp, #16]
1000147a:	f004 f973 	bl	10005764 <__wrap___aeabi_memcpy>
1000147e:	6822      	ldr	r2, [r4, #0]
10001480:	6863      	ldr	r3, [r4, #4]
10001482:	4658      	mov	r0, fp
10001484:	f000 fc2e 	bl	10001ce4 <exibir_frame>
10001488:	20fa      	movs	r0, #250	@ 0xfa
1000148a:	0040      	lsls	r0, r0, #1
1000148c:	f002 fed2 	bl	10004234 <sleep_ms>
10001490:	464b      	mov	r3, r9
10001492:	9606      	str	r6, [sp, #24]
10001494:	9707      	str	r7, [sp, #28]
10001496:	681b      	ldr	r3, [r3, #0]
10001498:	a90c      	add	r1, sp, #48	@ 0x30
1000149a:	9305      	str	r3, [sp, #20]
1000149c:	4643      	mov	r3, r8
1000149e:	681b      	ldr	r3, [r3, #0]
100014a0:	2210      	movs	r2, #16
100014a2:	4668      	mov	r0, sp
100014a4:	9304      	str	r3, [sp, #16]
100014a6:	f004 f95d 	bl	10005764 <__wrap___aeabi_memcpy>
100014aa:	6863      	ldr	r3, [r4, #4]
100014ac:	6822      	ldr	r2, [r4, #0]
100014ae:	9809      	ldr	r0, [sp, #36]	@ 0x24
100014b0:	f000 fc18 	bl	10001ce4 <exibir_frame>
100014b4:	20fa      	movs	r0, #250	@ 0xfa
100014b6:	0040      	lsls	r0, r0, #1
100014b8:	f002 febc 	bl	10004234 <sleep_ms>
100014bc:	4653      	mov	r3, sl
100014be:	685b      	ldr	r3, [r3, #4]
100014c0:	069b      	lsls	r3, r3, #26
100014c2:	d51e      	bpl.n	10001502 <display_animacao+0xf6>
100014c4:	3d01      	subs	r5, #1
100014c6:	2d00      	cmp	r5, #0
100014c8:	d1cc      	bne.n	10001464 <display_animacao+0x58>
100014ca:	4a16      	ldr	r2, [pc, #88]	@ (10001524 <display_animacao+0x118>)
100014cc:	4b17      	ldr	r3, [pc, #92]	@ (1000152c <display_animacao+0x120>)
100014ce:	4d19      	ldr	r5, [pc, #100]	@ (10001534 <display_animacao+0x128>)
100014d0:	9206      	str	r2, [sp, #24]
100014d2:	9307      	str	r3, [sp, #28]
100014d4:	464b      	mov	r3, r9
100014d6:	681b      	ldr	r3, [r3, #0]
100014d8:	a90c      	add	r1, sp, #48	@ 0x30
100014da:	9305      	str	r3, [sp, #20]
100014dc:	4643      	mov	r3, r8
100014de:	681b      	ldr	r3, [r3, #0]
100014e0:	2210      	movs	r2, #16
100014e2:	4668      	mov	r0, sp
100014e4:	9304      	str	r3, [sp, #16]
100014e6:	f004 f93d 	bl	10005764 <__wrap___aeabi_memcpy>
100014ea:	0028      	movs	r0, r5
100014ec:	9a0a      	ldr	r2, [sp, #40]	@ 0x28
100014ee:	6863      	ldr	r3, [r4, #4]
100014f0:	f000 fbf8 	bl	10001ce4 <exibir_frame>
100014f4:	b011      	add	sp, #68	@ 0x44
100014f6:	bcf0      	pop	{r4, r5, r6, r7}
100014f8:	46bb      	mov	fp, r7
100014fa:	46b2      	mov	sl, r6
100014fc:	46a9      	mov	r9, r5
100014fe:	46a0      	mov	r8, r4
10001500:	bdf0      	pop	{r4, r5, r6, r7, pc}
10001502:	480d      	ldr	r0, [pc, #52]	@ (10001538 <display_animacao+0x12c>)
10001504:	f005 ff72 	bl	100073ec <__wrap_puts>
10001508:	e7df      	b.n	100014ca <display_animacao+0xbe>
1000150a:	46c0      	nop			@ (mov r8, r8)
1000150c:	1000b134 	.word	0x1000b134
10001510:	1000b788 	.word	0x1000b788
10001514:	1000b14c 	.word	0x1000b14c
10001518:	1000bf28 	.word	0x1000bf28
1000151c:	200010b0 	.word	0x200010b0
10001520:	200052cc 	.word	0x200052cc
10001524:	9999999a 	.word	0x9999999a
10001528:	2000519c 	.word	0x2000519c
1000152c:	3fb99999 	.word	0x3fb99999
10001530:	20000fe8 	.word	0x20000fe8
10001534:	20003de8 	.word	0x20003de8
10001538:	1000b164 	.word	0x1000b164

1000153c <display_gestures>:
1000153c:	b570      	push	{r4, r5, r6, lr}
1000153e:	0004      	movs	r4, r0
10001540:	000d      	movs	r5, r1
10001542:	2601      	movs	r6, #1
10001544:	b082      	sub	sp, #8
10001546:	2000      	movs	r0, #0
10001548:	f7ff fb0c 	bl	10000b64 <ssd1306_Fill>
1000154c:	0029      	movs	r1, r5
1000154e:	0020      	movs	r0, r4
10001550:	f7ff fadc 	bl	10000b0c <detectar_gesto>
10001554:	210a      	movs	r1, #10
10001556:	200a      	movs	r0, #10
10001558:	f7ff fdda 	bl	10001110 <ssd1306_SetCursor>
1000155c:	4c16      	ldr	r4, [pc, #88]	@ (100015b8 <display_gestures+0x7c>)
1000155e:	4817      	ldr	r0, [pc, #92]	@ (100015bc <display_gestures+0x80>)
10001560:	6821      	ldr	r1, [r4, #0]
10001562:	6862      	ldr	r2, [r4, #4]
10001564:	68a3      	ldr	r3, [r4, #8]
10001566:	9600      	str	r6, [sp, #0]
10001568:	f7ff fdb2 	bl	100010d0 <ssd1306_WriteString>
1000156c:	f7ff fa78 	bl	10000a60 <identificar_gesto>
10001570:	2119      	movs	r1, #25
10001572:	0005      	movs	r5, r0
10001574:	200a      	movs	r0, #10
10001576:	2d02      	cmp	r5, #2
10001578:	d016      	beq.n	100015a8 <display_gestures+0x6c>
1000157a:	2d03      	cmp	r5, #3
1000157c:	d00c      	beq.n	10001598 <display_gestures+0x5c>
1000157e:	2d01      	cmp	r5, #1
10001580:	d116      	bne.n	100015b0 <display_gestures+0x74>
10001582:	f7ff fdc5 	bl	10001110 <ssd1306_SetCursor>
10001586:	cc0e      	ldmia	r4!, {r1, r2, r3}
10001588:	480d      	ldr	r0, [pc, #52]	@ (100015c0 <display_gestures+0x84>)
1000158a:	9500      	str	r5, [sp, #0]
1000158c:	f7ff fda0 	bl	100010d0 <ssd1306_WriteString>
10001590:	f7ff faf6 	bl	10000b80 <ssd1306_UpdateScreen>
10001594:	b002      	add	sp, #8
10001596:	bd70      	pop	{r4, r5, r6, pc}
10001598:	f7ff fdba 	bl	10001110 <ssd1306_SetCursor>
1000159c:	4809      	ldr	r0, [pc, #36]	@ (100015c4 <display_gestures+0x88>)
1000159e:	9600      	str	r6, [sp, #0]
100015a0:	cc0e      	ldmia	r4!, {r1, r2, r3}
100015a2:	f7ff fd95 	bl	100010d0 <ssd1306_WriteString>
100015a6:	e7f3      	b.n	10001590 <display_gestures+0x54>
100015a8:	f7ff fdb2 	bl	10001110 <ssd1306_SetCursor>
100015ac:	4806      	ldr	r0, [pc, #24]	@ (100015c8 <display_gestures+0x8c>)
100015ae:	e7f6      	b.n	1000159e <display_gestures+0x62>
100015b0:	f7ff fdae 	bl	10001110 <ssd1306_SetCursor>
100015b4:	4805      	ldr	r0, [pc, #20]	@ (100015cc <display_gestures+0x90>)
100015b6:	e7f2      	b.n	1000159e <display_gestures+0x62>
100015b8:	1000b788 	.word	0x1000b788
100015bc:	1000b194 	.word	0x1000b194
100015c0:	1000b19c 	.word	0x1000b19c
100015c4:	1000b1b8 	.word	0x1000b1b8
100015c8:	1000b1ac 	.word	0x1000b1ac
100015cc:	1000b1c8 	.word	0x1000b1c8

100015d0 <display_directions>:
100015d0:	b570      	push	{r4, r5, r6, lr}
100015d2:	0004      	movs	r4, r0
100015d4:	000d      	movs	r5, r1
100015d6:	0016      	movs	r6, r2
100015d8:	b082      	sub	sp, #8
100015da:	2000      	movs	r0, #0
100015dc:	f7ff fac2 	bl	10000b64 <ssd1306_Fill>
100015e0:	0032      	movs	r2, r6
100015e2:	0029      	movs	r1, r5
100015e4:	0020      	movs	r0, r4
100015e6:	f7ff f9dd 	bl	100009a4 <print_direction>
100015ea:	210a      	movs	r1, #10
100015ec:	0004      	movs	r4, r0
100015ee:	200a      	movs	r0, #10
100015f0:	f7ff fd8e 	bl	10001110 <ssd1306_SetCursor>
100015f4:	2301      	movs	r3, #1
100015f6:	4d14      	ldr	r5, [pc, #80]	@ (10001648 <display_directions+0x78>)
100015f8:	9300      	str	r3, [sp, #0]
100015fa:	4814      	ldr	r0, [pc, #80]	@ (1000164c <display_directions+0x7c>)
100015fc:	6829      	ldr	r1, [r5, #0]
100015fe:	686a      	ldr	r2, [r5, #4]
10001600:	68ab      	ldr	r3, [r5, #8]
10001602:	f7ff fd65 	bl	100010d0 <ssd1306_WriteString>
10001606:	2c08      	cmp	r4, #8
10001608:	d81b      	bhi.n	10001642 <display_directions+0x72>
1000160a:	4b11      	ldr	r3, [pc, #68]	@ (10001650 <display_directions+0x80>)
1000160c:	00a4      	lsls	r4, r4, #2
1000160e:	591b      	ldr	r3, [r3, r4]
10001610:	469f      	mov	pc, r3
10001612:	4810      	ldr	r0, [pc, #64]	@ (10001654 <display_directions+0x84>)
10001614:	2301      	movs	r3, #1
10001616:	9300      	str	r3, [sp, #0]
10001618:	cd0e      	ldmia	r5!, {r1, r2, r3}
1000161a:	f7ff fd59 	bl	100010d0 <ssd1306_WriteString>
1000161e:	f7ff faaf 	bl	10000b80 <ssd1306_UpdateScreen>
10001622:	b002      	add	sp, #8
10001624:	bd70      	pop	{r4, r5, r6, pc}
10001626:	480c      	ldr	r0, [pc, #48]	@ (10001658 <display_directions+0x88>)
10001628:	e7f4      	b.n	10001614 <display_directions+0x44>
1000162a:	480c      	ldr	r0, [pc, #48]	@ (1000165c <display_directions+0x8c>)
1000162c:	e7f2      	b.n	10001614 <display_directions+0x44>
1000162e:	480c      	ldr	r0, [pc, #48]	@ (10001660 <display_directions+0x90>)
10001630:	e7f0      	b.n	10001614 <display_directions+0x44>
10001632:	480c      	ldr	r0, [pc, #48]	@ (10001664 <display_directions+0x94>)
10001634:	e7ee      	b.n	10001614 <display_directions+0x44>
10001636:	480c      	ldr	r0, [pc, #48]	@ (10001668 <display_directions+0x98>)
10001638:	e7ec      	b.n	10001614 <display_directions+0x44>
1000163a:	480c      	ldr	r0, [pc, #48]	@ (1000166c <display_directions+0x9c>)
1000163c:	e7ea      	b.n	10001614 <display_directions+0x44>
1000163e:	480c      	ldr	r0, [pc, #48]	@ (10001670 <display_directions+0xa0>)
10001640:	e7e8      	b.n	10001614 <display_directions+0x44>
10001642:	480c      	ldr	r0, [pc, #48]	@ (10001674 <display_directions+0xa4>)
10001644:	e7e6      	b.n	10001614 <display_directions+0x44>
10001646:	46c0      	nop			@ (mov r8, r8)
10001648:	1000b788 	.word	0x1000b788
1000164c:	1000b1e0 	.word	0x1000b1e0
10001650:	1000bf00 	.word	0x1000bf00
10001654:	1000b21c 	.word	0x1000b21c
10001658:	1000ad6c 	.word	0x1000ad6c
1000165c:	1000ad94 	.word	0x1000ad94
10001660:	1000b1ec 	.word	0x1000b1ec
10001664:	1000ad1c 	.word	0x1000ad1c
10001668:	1000b1f8 	.word	0x1000b1f8
1000166c:	1000b204 	.word	0x1000b204
10001670:	1000b210 	.word	0x1000b210
10001674:	1000b228 	.word	0x1000b228

10001678 <display_percentages>:
10001678:	b5f0      	push	{r4, r5, r6, r7, lr}
1000167a:	46c6      	mov	lr, r8
1000167c:	0005      	movs	r5, r0
1000167e:	b500      	push	{lr}
10001680:	2000      	movs	r0, #0
10001682:	b088      	sub	sp, #32
10001684:	000c      	movs	r4, r1
10001686:	f7ff fa6d 	bl	10000b64 <ssd1306_Fill>
1000168a:	4b36      	ldr	r3, [pc, #216]	@ (10001764 <display_percentages+0xec>)
1000168c:	18ea      	adds	r2, r5, r3
1000168e:	23fa      	movs	r3, #250	@ 0xfa
10001690:	009b      	lsls	r3, r3, #2
10001692:	429a      	cmp	r2, r3
10001694:	d963      	bls.n	1000175e <display_percentages+0xe6>
10001696:	4b34      	ldr	r3, [pc, #208]	@ (10001768 <display_percentages+0xf0>)
10001698:	18e8      	adds	r0, r5, r3
1000169a:	f003 ffdd 	bl	10005658 <__wrap___aeabi_i2f>
1000169e:	4933      	ldr	r1, [pc, #204]	@ (1000176c <display_percentages+0xf4>)
100016a0:	f003 ffb9 	bl	10005616 <__wrap___aeabi_fdiv>
100016a4:	4932      	ldr	r1, [pc, #200]	@ (10001770 <display_percentages+0xf8>)
100016a6:	f003 ffca 	bl	1000563e <__wrap___aeabi_fmul>
100016aa:	4680      	mov	r8, r0
100016ac:	22fa      	movs	r2, #250	@ 0xfa
100016ae:	4b2d      	ldr	r3, [pc, #180]	@ (10001764 <display_percentages+0xec>)
100016b0:	2700      	movs	r7, #0
100016b2:	18e3      	adds	r3, r4, r3
100016b4:	0092      	lsls	r2, r2, #2
100016b6:	4293      	cmp	r3, r2
100016b8:	d90a      	bls.n	100016d0 <display_percentages+0x58>
100016ba:	4b2b      	ldr	r3, [pc, #172]	@ (10001768 <display_percentages+0xf0>)
100016bc:	18e0      	adds	r0, r4, r3
100016be:	f003 ffcb 	bl	10005658 <__wrap___aeabi_i2f>
100016c2:	492a      	ldr	r1, [pc, #168]	@ (1000176c <display_percentages+0xf4>)
100016c4:	f003 ffa7 	bl	10005616 <__wrap___aeabi_fdiv>
100016c8:	4929      	ldr	r1, [pc, #164]	@ (10001770 <display_percentages+0xf8>)
100016ca:	f003 ffb8 	bl	1000563e <__wrap___aeabi_fmul>
100016ce:	1c07      	adds	r7, r0, #0
100016d0:	2501      	movs	r5, #1
100016d2:	210a      	movs	r1, #10
100016d4:	200a      	movs	r0, #10
100016d6:	f7ff fd1b 	bl	10001110 <ssd1306_SetCursor>
100016da:	4c26      	ldr	r4, [pc, #152]	@ (10001774 <display_percentages+0xfc>)
100016dc:	9500      	str	r5, [sp, #0]
100016de:	68a3      	ldr	r3, [r4, #8]
100016e0:	6862      	ldr	r2, [r4, #4]
100016e2:	6821      	ldr	r1, [r4, #0]
100016e4:	4824      	ldr	r0, [pc, #144]	@ (10001778 <display_percentages+0x100>)
100016e6:	f7ff fcf3 	bl	100010d0 <ssd1306_WriteString>
100016ea:	210a      	movs	r1, #10
100016ec:	201e      	movs	r0, #30
100016ee:	f7ff fd0f 	bl	10001110 <ssd1306_SetCursor>
100016f2:	4640      	mov	r0, r8
100016f4:	f003 ffd8 	bl	100056a8 <__wrap___aeabi_f2d>
100016f8:	4e20      	ldr	r6, [pc, #128]	@ (1000177c <display_percentages+0x104>)
100016fa:	9000      	str	r0, [sp, #0]
100016fc:	9101      	str	r1, [sp, #4]
100016fe:	0032      	movs	r2, r6
10001700:	210a      	movs	r1, #10
10001702:	a802      	add	r0, sp, #8
10001704:	f005 fc88 	bl	10007018 <__wrap_snprintf>
10001708:	6862      	ldr	r2, [r4, #4]
1000170a:	68a3      	ldr	r3, [r4, #8]
1000170c:	6821      	ldr	r1, [r4, #0]
1000170e:	9500      	str	r5, [sp, #0]
10001710:	a802      	add	r0, sp, #8
10001712:	f7ff fcdd 	bl	100010d0 <ssd1306_WriteString>
10001716:	2114      	movs	r1, #20
10001718:	200a      	movs	r0, #10
1000171a:	f7ff fcf9 	bl	10001110 <ssd1306_SetCursor>
1000171e:	6862      	ldr	r2, [r4, #4]
10001720:	68a3      	ldr	r3, [r4, #8]
10001722:	6821      	ldr	r1, [r4, #0]
10001724:	9500      	str	r5, [sp, #0]
10001726:	4816      	ldr	r0, [pc, #88]	@ (10001780 <display_percentages+0x108>)
10001728:	f7ff fcd2 	bl	100010d0 <ssd1306_WriteString>
1000172c:	2114      	movs	r1, #20
1000172e:	201e      	movs	r0, #30
10001730:	f7ff fcee 	bl	10001110 <ssd1306_SetCursor>
10001734:	1c38      	adds	r0, r7, #0
10001736:	f003 ffb7 	bl	100056a8 <__wrap___aeabi_f2d>
1000173a:	0032      	movs	r2, r6
1000173c:	9000      	str	r0, [sp, #0]
1000173e:	9101      	str	r1, [sp, #4]
10001740:	210a      	movs	r1, #10
10001742:	a805      	add	r0, sp, #20
10001744:	f005 fc68 	bl	10007018 <__wrap_snprintf>
10001748:	cc0e      	ldmia	r4!, {r1, r2, r3}
1000174a:	9500      	str	r5, [sp, #0]
1000174c:	a805      	add	r0, sp, #20
1000174e:	f7ff fcbf 	bl	100010d0 <ssd1306_WriteString>
10001752:	f7ff fa15 	bl	10000b80 <ssd1306_UpdateScreen>
10001756:	b008      	add	sp, #32
10001758:	bc80      	pop	{r7}
1000175a:	46b8      	mov	r8, r7
1000175c:	bdf0      	pop	{r4, r5, r6, r7, pc}
1000175e:	2300      	movs	r3, #0
10001760:	4698      	mov	r8, r3
10001762:	e7a3      	b.n	100016ac <display_percentages+0x34>
10001764:	fffff9f5 	.word	0xfffff9f5
10001768:	fffff801 	.word	0xfffff801
1000176c:	44ffe000 	.word	0x44ffe000
10001770:	42c80000 	.word	0x42c80000
10001774:	1000b788 	.word	0x1000b788
10001778:	1000b238 	.word	0x1000b238
1000177c:	1000b23c 	.word	0x1000b23c
10001780:	1000b244 	.word	0x1000b244

10001784 <menu_update>:
10001784:	b570      	push	{r4, r5, r6, lr}
10001786:	0004      	movs	r4, r0
10001788:	0013      	movs	r3, r2
1000178a:	000d      	movs	r5, r1
1000178c:	0016      	movs	r6, r2
1000178e:	484a      	ldr	r0, [pc, #296]	@ (100018b8 <menu_update+0x134>)
10001790:	000a      	movs	r2, r1
10001792:	0021      	movs	r1, r4
10001794:	f005 feae 	bl	100074f4 <__wrap_printf>
10001798:	4b48      	ldr	r3, [pc, #288]	@ (100018bc <menu_update+0x138>)
1000179a:	781b      	ldrb	r3, [r3, #0]
1000179c:	2b00      	cmp	r3, #0
1000179e:	d021      	beq.n	100017e4 <menu_update+0x60>
100017a0:	4a47      	ldr	r2, [pc, #284]	@ (100018c0 <menu_update+0x13c>)
100017a2:	4b48      	ldr	r3, [pc, #288]	@ (100018c4 <menu_update+0x140>)
100017a4:	7812      	ldrb	r2, [r2, #0]
100017a6:	681b      	ldr	r3, [r3, #0]
100017a8:	2a00      	cmp	r2, #0
100017aa:	d00f      	beq.n	100017cc <menu_update+0x48>
100017ac:	2b01      	cmp	r3, #1
100017ae:	d05b      	beq.n	10001868 <menu_update+0xe4>
100017b0:	2b02      	cmp	r3, #2
100017b2:	d100      	bne.n	100017b6 <menu_update+0x32>
100017b4:	e06b      	b.n	1000188e <menu_update+0x10a>
100017b6:	2b00      	cmp	r3, #0
100017b8:	d165      	bne.n	10001886 <menu_update+0x102>
100017ba:	0020      	movs	r0, r4
100017bc:	0032      	movs	r2, r6
100017be:	0029      	movs	r1, r5
100017c0:	f7ff ff06 	bl	100015d0 <display_directions>
100017c4:	4840      	ldr	r0, [pc, #256]	@ (100018c8 <menu_update+0x144>)
100017c6:	f005 fe95 	bl	100074f4 <__wrap_printf>
100017ca:	bd70      	pop	{r4, r5, r6, pc}
100017cc:	2b01      	cmp	r3, #1
100017ce:	d045      	beq.n	1000185c <menu_update+0xd8>
100017d0:	2b02      	cmp	r3, #2
100017d2:	d068      	beq.n	100018a6 <menu_update+0x122>
100017d4:	2b00      	cmp	r3, #0
100017d6:	d162      	bne.n	1000189e <menu_update+0x11a>
100017d8:	f7ff fdd2 	bl	10001380 <display_frase>
100017dc:	483b      	ldr	r0, [pc, #236]	@ (100018cc <menu_update+0x148>)
100017de:	f005 fe89 	bl	100074f4 <__wrap_printf>
100017e2:	e7f2      	b.n	100017ca <menu_update+0x46>
100017e4:	0032      	movs	r2, r6
100017e6:	0029      	movs	r1, r5
100017e8:	0020      	movs	r0, r4
100017ea:	f7ff f8db 	bl	100009a4 <print_direction>
100017ee:	0006      	movs	r6, r0
100017f0:	4837      	ldr	r0, [pc, #220]	@ (100018d0 <menu_update+0x14c>)
100017f2:	0031      	movs	r1, r6
100017f4:	f005 fe7e 	bl	100074f4 <__wrap_printf>
100017f8:	4c36      	ldr	r4, [pc, #216]	@ (100018d4 <menu_update+0x150>)
100017fa:	4d32      	ldr	r5, [pc, #200]	@ (100018c4 <menu_update+0x140>)
100017fc:	7823      	ldrb	r3, [r4, #0]
100017fe:	6829      	ldr	r1, [r5, #0]
10001800:	3303      	adds	r3, #3
10001802:	2e01      	cmp	r6, #1
10001804:	d038      	beq.n	10001878 <menu_update+0xf4>
10001806:	2e02      	cmp	r6, #2
10001808:	d017      	beq.n	1000183a <menu_update+0xb6>
1000180a:	4833      	ldr	r0, [pc, #204]	@ (100018d8 <menu_update+0x154>)
1000180c:	f005 fe72 	bl	100074f4 <__wrap_printf>
10001810:	7823      	ldrb	r3, [r4, #0]
10001812:	2b00      	cmp	r3, #0
10001814:	d01c      	beq.n	10001850 <menu_update+0xcc>
10001816:	4b2a      	ldr	r3, [pc, #168]	@ (100018c0 <menu_update+0x13c>)
10001818:	781b      	ldrb	r3, [r3, #0]
1000181a:	2b00      	cmp	r3, #0
1000181c:	d006      	beq.n	1000182c <menu_update+0xa8>
1000181e:	482f      	ldr	r0, [pc, #188]	@ (100018dc <menu_update+0x158>)
10001820:	f7ff fc7c 	bl	1000111c <menu_draw.constprop.0>
10001824:	482e      	ldr	r0, [pc, #184]	@ (100018e0 <menu_update+0x15c>)
10001826:	f005 fe65 	bl	100074f4 <__wrap_printf>
1000182a:	e7ce      	b.n	100017ca <menu_update+0x46>
1000182c:	482d      	ldr	r0, [pc, #180]	@ (100018e4 <menu_update+0x160>)
1000182e:	f7ff fc75 	bl	1000111c <menu_draw.constprop.0>
10001832:	482d      	ldr	r0, [pc, #180]	@ (100018e8 <menu_update+0x164>)
10001834:	f005 fe5e 	bl	100074f4 <__wrap_printf>
10001838:	e7c7      	b.n	100017ca <menu_update+0x46>
1000183a:	1c48      	adds	r0, r1, #1
1000183c:	0019      	movs	r1, r3
1000183e:	f003 fb1d 	bl	10004e7c <__wrap___aeabi_idiv>
10001842:	4825      	ldr	r0, [pc, #148]	@ (100018d8 <menu_update+0x154>)
10001844:	6029      	str	r1, [r5, #0]
10001846:	f005 fe55 	bl	100074f4 <__wrap_printf>
1000184a:	7823      	ldrb	r3, [r4, #0]
1000184c:	2b00      	cmp	r3, #0
1000184e:	d1e2      	bne.n	10001816 <menu_update+0x92>
10001850:	f7ff fcac 	bl	100011ac <menu_draw.constprop.1>
10001854:	4825      	ldr	r0, [pc, #148]	@ (100018ec <menu_update+0x168>)
10001856:	f005 fe4d 	bl	100074f4 <__wrap_printf>
1000185a:	e7b6      	b.n	100017ca <menu_update+0x46>
1000185c:	f7ff fdd6 	bl	1000140c <display_animacao>
10001860:	4823      	ldr	r0, [pc, #140]	@ (100018f0 <menu_update+0x16c>)
10001862:	f005 fe47 	bl	100074f4 <__wrap_printf>
10001866:	e7b0      	b.n	100017ca <menu_update+0x46>
10001868:	0020      	movs	r0, r4
1000186a:	0029      	movs	r1, r5
1000186c:	f7ff ff04 	bl	10001678 <display_percentages>
10001870:	4820      	ldr	r0, [pc, #128]	@ (100018f4 <menu_update+0x170>)
10001872:	f005 fe3f 	bl	100074f4 <__wrap_printf>
10001876:	e7a8      	b.n	100017ca <menu_update+0x46>
10001878:	3901      	subs	r1, #1
1000187a:	18c8      	adds	r0, r1, r3
1000187c:	0019      	movs	r1, r3
1000187e:	f003 fafd 	bl	10004e7c <__wrap___aeabi_idiv>
10001882:	6029      	str	r1, [r5, #0]
10001884:	e7c1      	b.n	1000180a <menu_update+0x86>
10001886:	481c      	ldr	r0, [pc, #112]	@ (100018f8 <menu_update+0x174>)
10001888:	f005 fe34 	bl	100074f4 <__wrap_printf>
1000188c:	e79d      	b.n	100017ca <menu_update+0x46>
1000188e:	0020      	movs	r0, r4
10001890:	0029      	movs	r1, r5
10001892:	f7ff fe53 	bl	1000153c <display_gestures>
10001896:	4819      	ldr	r0, [pc, #100]	@ (100018fc <menu_update+0x178>)
10001898:	f005 fe2c 	bl	100074f4 <__wrap_printf>
1000189c:	e795      	b.n	100017ca <menu_update+0x46>
1000189e:	4818      	ldr	r0, [pc, #96]	@ (10001900 <menu_update+0x17c>)
100018a0:	f005 fe28 	bl	100074f4 <__wrap_printf>
100018a4:	e791      	b.n	100017ca <menu_update+0x46>
100018a6:	0020      	movs	r0, r4
100018a8:	0029      	movs	r1, r5
100018aa:	f7ff fccf 	bl	1000124c <ajustar_intensidade_leds>
100018ae:	4815      	ldr	r0, [pc, #84]	@ (10001904 <menu_update+0x180>)
100018b0:	f005 fe20 	bl	100074f4 <__wrap_printf>
100018b4:	e789      	b.n	100017ca <menu_update+0x46>
100018b6:	46c0      	nop			@ (mov r8, r8)
100018b8:	1000b248 	.word	0x1000b248
100018bc:	20005306 	.word	0x20005306
100018c0:	20005309 	.word	0x20005309
100018c4:	200051c0 	.word	0x200051c0
100018c8:	1000b278 	.word	0x1000b278
100018cc:	1000b2cc 	.word	0x1000b2cc
100018d0:	1000b31c 	.word	0x1000b31c
100018d4:	20005307 	.word	0x20005307
100018d8:	1000b338 	.word	0x1000b338
100018dc:	20000fb0 	.word	0x20000fb0
100018e0:	1000b368 	.word	0x1000b368
100018e4:	20000fa0 	.word	0x20000fa0
100018e8:	1000b374 	.word	0x1000b374
100018ec:	1000b380 	.word	0x1000b380
100018f0:	1000b2e0 	.word	0x1000b2e0
100018f4:	1000b28c 	.word	0x1000b28c
100018f8:	1000b2b8 	.word	0x1000b2b8
100018fc:	1000b2a4 	.word	0x1000b2a4
10001900:	1000b30c 	.word	0x1000b30c
10001904:	1000b2f4 	.word	0x1000b2f4

10001908 <menu_handle_button_a>:
10001908:	b5f0      	push	{r4, r5, r6, r7, lr}
1000190a:	4646      	mov	r6, r8
1000190c:	464f      	mov	r7, r9
1000190e:	46d6      	mov	lr, sl
10001910:	4c5a      	ldr	r4, [pc, #360]	@ (10001a7c <menu_handle_button_a+0x174>)
10001912:	b5c0      	push	{r6, r7, lr}
10001914:	7823      	ldrb	r3, [r4, #0]
10001916:	4680      	mov	r8, r0
10001918:	000f      	movs	r7, r1
1000191a:	0016      	movs	r6, r2
1000191c:	2b00      	cmp	r3, #0
1000191e:	d144      	bne.n	100019aa <menu_handle_button_a+0xa2>
10001920:	4b57      	ldr	r3, [pc, #348]	@ (10001a80 <menu_handle_button_a+0x178>)
10001922:	469a      	mov	sl, r3
10001924:	681d      	ldr	r5, [r3, #0]
10001926:	4b57      	ldr	r3, [pc, #348]	@ (10001a84 <menu_handle_button_a+0x17c>)
10001928:	4699      	mov	r9, r3
1000192a:	781b      	ldrb	r3, [r3, #0]
1000192c:	2b00      	cmp	r3, #0
1000192e:	d019      	beq.n	10001964 <menu_handle_button_a+0x5c>
10001930:	4b55      	ldr	r3, [pc, #340]	@ (10001a88 <menu_handle_button_a+0x180>)
10001932:	4956      	ldr	r1, [pc, #344]	@ (10001a8c <menu_handle_button_a+0x184>)
10001934:	781b      	ldrb	r3, [r3, #0]
10001936:	2b00      	cmp	r3, #0
10001938:	d141      	bne.n	100019be <menu_handle_button_a+0xb6>
1000193a:	4b55      	ldr	r3, [pc, #340]	@ (10001a90 <menu_handle_button_a+0x188>)
1000193c:	00aa      	lsls	r2, r5, #2
1000193e:	58d0      	ldr	r0, [r2, r3]
10001940:	f008 ff56 	bl	1000a7f0 <strcmp>
10001944:	2800      	cmp	r0, #0
10001946:	d052      	beq.n	100019ee <menu_handle_button_a+0xe6>
10001948:	2301      	movs	r3, #1
1000194a:	7023      	strb	r3, [r4, #0]
1000194c:	2d01      	cmp	r5, #1
1000194e:	d100      	bne.n	10001952 <menu_handle_button_a+0x4a>
10001950:	e083      	b.n	10001a5a <menu_handle_button_a+0x152>
10001952:	2d02      	cmp	r5, #2
10001954:	d100      	bne.n	10001958 <menu_handle_button_a+0x50>
10001956:	e07c      	b.n	10001a52 <menu_handle_button_a+0x14a>
10001958:	2d00      	cmp	r5, #0
1000195a:	d12b      	bne.n	100019b4 <menu_handle_button_a+0xac>
1000195c:	2202      	movs	r2, #2
1000195e:	4b4d      	ldr	r3, [pc, #308]	@ (10001a94 <menu_handle_button_a+0x18c>)
10001960:	701a      	strb	r2, [r3, #0]
10001962:	e027      	b.n	100019b4 <menu_handle_button_a+0xac>
10001964:	0029      	movs	r1, r5
10001966:	484c      	ldr	r0, [pc, #304]	@ (10001a98 <menu_handle_button_a+0x190>)
10001968:	f005 fdc4 	bl	100074f4 <__wrap_printf>
1000196c:	2d02      	cmp	r5, #2
1000196e:	d84b      	bhi.n	10001a08 <menu_handle_button_a+0x100>
10001970:	4b4a      	ldr	r3, [pc, #296]	@ (10001a9c <menu_handle_button_a+0x194>)
10001972:	00ad      	lsls	r5, r5, #2
10001974:	58ec      	ldr	r4, [r5, r3]
10001976:	484a      	ldr	r0, [pc, #296]	@ (10001aa0 <menu_handle_button_a+0x198>)
10001978:	0021      	movs	r1, r4
1000197a:	f005 fdbb 	bl	100074f4 <__wrap_printf>
1000197e:	0020      	movs	r0, r4
10001980:	4948      	ldr	r1, [pc, #288]	@ (10001aa4 <menu_handle_button_a+0x19c>)
10001982:	f008 ff35 	bl	1000a7f0 <strcmp>
10001986:	2800      	cmp	r0, #0
10001988:	d04f      	beq.n	10001a2a <menu_handle_button_a+0x122>
1000198a:	0020      	movs	r0, r4
1000198c:	4946      	ldr	r1, [pc, #280]	@ (10001aa8 <menu_handle_button_a+0x1a0>)
1000198e:	f008 ff2f 	bl	1000a7f0 <strcmp>
10001992:	2800      	cmp	r0, #0
10001994:	d03d      	beq.n	10001a12 <menu_handle_button_a+0x10a>
10001996:	0020      	movs	r0, r4
10001998:	4944      	ldr	r1, [pc, #272]	@ (10001aac <menu_handle_button_a+0x1a4>)
1000199a:	f008 ff29 	bl	1000a7f0 <strcmp>
1000199e:	2800      	cmp	r0, #0
100019a0:	d167      	bne.n	10001a72 <menu_handle_button_a+0x16a>
100019a2:	2205      	movs	r2, #5
100019a4:	4b3b      	ldr	r3, [pc, #236]	@ (10001a94 <menu_handle_button_a+0x18c>)
100019a6:	701a      	strb	r2, [r3, #0]
100019a8:	e004      	b.n	100019b4 <menu_handle_button_a+0xac>
100019aa:	2300      	movs	r3, #0
100019ac:	2201      	movs	r2, #1
100019ae:	7023      	strb	r3, [r4, #0]
100019b0:	4b38      	ldr	r3, [pc, #224]	@ (10001a94 <menu_handle_button_a+0x18c>)
100019b2:	701a      	strb	r2, [r3, #0]
100019b4:	bce0      	pop	{r5, r6, r7}
100019b6:	46ba      	mov	sl, r7
100019b8:	46b1      	mov	r9, r6
100019ba:	46a8      	mov	r8, r5
100019bc:	bdf0      	pop	{r4, r5, r6, r7, pc}
100019be:	4b3c      	ldr	r3, [pc, #240]	@ (10001ab0 <menu_handle_button_a+0x1a8>)
100019c0:	00aa      	lsls	r2, r5, #2
100019c2:	58d0      	ldr	r0, [r2, r3]
100019c4:	f008 ff14 	bl	1000a7f0 <strcmp>
100019c8:	2800      	cmp	r0, #0
100019ca:	d010      	beq.n	100019ee <menu_handle_button_a+0xe6>
100019cc:	2301      	movs	r3, #1
100019ce:	7023      	strb	r3, [r4, #0]
100019d0:	2d01      	cmp	r5, #1
100019d2:	d036      	beq.n	10001a42 <menu_handle_button_a+0x13a>
100019d4:	2d02      	cmp	r5, #2
100019d6:	d044      	beq.n	10001a62 <menu_handle_button_a+0x15a>
100019d8:	2d00      	cmp	r5, #0
100019da:	d1eb      	bne.n	100019b4 <menu_handle_button_a+0xac>
100019dc:	4640      	mov	r0, r8
100019de:	0032      	movs	r2, r6
100019e0:	0039      	movs	r1, r7
100019e2:	f7ff fdf5 	bl	100015d0 <display_directions>
100019e6:	4833      	ldr	r0, [pc, #204]	@ (10001ab4 <menu_handle_button_a+0x1ac>)
100019e8:	f005 fd84 	bl	100074f4 <__wrap_printf>
100019ec:	e7e2      	b.n	100019b4 <menu_handle_button_a+0xac>
100019ee:	2300      	movs	r3, #0
100019f0:	464a      	mov	r2, r9
100019f2:	7013      	strb	r3, [r2, #0]
100019f4:	4652      	mov	r2, sl
100019f6:	6013      	str	r3, [r2, #0]
100019f8:	4a26      	ldr	r2, [pc, #152]	@ (10001a94 <menu_handle_button_a+0x18c>)
100019fa:	7013      	strb	r3, [r2, #0]
100019fc:	f7ff fbd6 	bl	100011ac <menu_draw.constprop.1>
10001a00:	482d      	ldr	r0, [pc, #180]	@ (10001ab8 <menu_handle_button_a+0x1b0>)
10001a02:	f005 fcf3 	bl	100073ec <__wrap_puts>
10001a06:	e7d5      	b.n	100019b4 <menu_handle_button_a+0xac>
10001a08:	0029      	movs	r1, r5
10001a0a:	482c      	ldr	r0, [pc, #176]	@ (10001abc <menu_handle_button_a+0x1b4>)
10001a0c:	f005 fd72 	bl	100074f4 <__wrap_printf>
10001a10:	e7d0      	b.n	100019b4 <menu_handle_button_a+0xac>
10001a12:	464a      	mov	r2, r9
10001a14:	2301      	movs	r3, #1
10001a16:	7013      	strb	r3, [r2, #0]
10001a18:	4b1b      	ldr	r3, [pc, #108]	@ (10001a88 <menu_handle_button_a+0x180>)
10001a1a:	7018      	strb	r0, [r3, #0]
10001a1c:	4828      	ldr	r0, [pc, #160]	@ (10001ac0 <menu_handle_button_a+0x1b8>)
10001a1e:	f005 fce5 	bl	100073ec <__wrap_puts>
10001a22:	481b      	ldr	r0, [pc, #108]	@ (10001a90 <menu_handle_button_a+0x188>)
10001a24:	f7ff fb7a 	bl	1000111c <menu_draw.constprop.0>
10001a28:	e7c4      	b.n	100019b4 <menu_handle_button_a+0xac>
10001a2a:	2301      	movs	r3, #1
10001a2c:	464a      	mov	r2, r9
10001a2e:	7013      	strb	r3, [r2, #0]
10001a30:	4a15      	ldr	r2, [pc, #84]	@ (10001a88 <menu_handle_button_a+0x180>)
10001a32:	4824      	ldr	r0, [pc, #144]	@ (10001ac4 <menu_handle_button_a+0x1bc>)
10001a34:	7013      	strb	r3, [r2, #0]
10001a36:	f005 fcd9 	bl	100073ec <__wrap_puts>
10001a3a:	481d      	ldr	r0, [pc, #116]	@ (10001ab0 <menu_handle_button_a+0x1a8>)
10001a3c:	f7ff fb6e 	bl	1000111c <menu_draw.constprop.0>
10001a40:	e7b8      	b.n	100019b4 <menu_handle_button_a+0xac>
10001a42:	4640      	mov	r0, r8
10001a44:	0039      	movs	r1, r7
10001a46:	f7ff fe17 	bl	10001678 <display_percentages>
10001a4a:	481f      	ldr	r0, [pc, #124]	@ (10001ac8 <menu_handle_button_a+0x1c0>)
10001a4c:	f005 fd52 	bl	100074f4 <__wrap_printf>
10001a50:	e7b0      	b.n	100019b4 <menu_handle_button_a+0xac>
10001a52:	2204      	movs	r2, #4
10001a54:	4b0f      	ldr	r3, [pc, #60]	@ (10001a94 <menu_handle_button_a+0x18c>)
10001a56:	701a      	strb	r2, [r3, #0]
10001a58:	e7ac      	b.n	100019b4 <menu_handle_button_a+0xac>
10001a5a:	2203      	movs	r2, #3
10001a5c:	4b0d      	ldr	r3, [pc, #52]	@ (10001a94 <menu_handle_button_a+0x18c>)
10001a5e:	701a      	strb	r2, [r3, #0]
10001a60:	e7a8      	b.n	100019b4 <menu_handle_button_a+0xac>
10001a62:	4640      	mov	r0, r8
10001a64:	0039      	movs	r1, r7
10001a66:	f7ff fd69 	bl	1000153c <display_gestures>
10001a6a:	4818      	ldr	r0, [pc, #96]	@ (10001acc <menu_handle_button_a+0x1c4>)
10001a6c:	f005 fd42 	bl	100074f4 <__wrap_printf>
10001a70:	e7a0      	b.n	100019b4 <menu_handle_button_a+0xac>
10001a72:	4817      	ldr	r0, [pc, #92]	@ (10001ad0 <menu_handle_button_a+0x1c8>)
10001a74:	f005 fcba 	bl	100073ec <__wrap_puts>
10001a78:	e79c      	b.n	100019b4 <menu_handle_button_a+0xac>
10001a7a:	46c0      	nop			@ (mov r8, r8)
10001a7c:	20005306 	.word	0x20005306
10001a80:	200051c0 	.word	0x200051c0
10001a84:	20005307 	.word	0x20005307
10001a88:	20005309 	.word	0x20005309
10001a8c:	1000b38c 	.word	0x1000b38c
10001a90:	20000fa0 	.word	0x20000fa0
10001a94:	20005304 	.word	0x20005304
10001a98:	1000b3f4 	.word	0x1000b3f4
10001a9c:	20000fc0 	.word	0x20000fc0
10001aa0:	1000b420 	.word	0x1000b420
10001aa4:	1000b444 	.word	0x1000b444
10001aa8:	1000b474 	.word	0x1000b474
10001aac:	1000b4ac 	.word	0x1000b4ac
10001ab0:	20000fb0 	.word	0x20000fb0
10001ab4:	1000b3b4 	.word	0x1000b3b4
10001ab8:	1000b394 	.word	0x1000b394
10001abc:	1000b4e8 	.word	0x1000b4e8
10001ac0:	1000b484 	.word	0x1000b484
10001ac4:	1000b450 	.word	0x1000b450
10001ac8:	1000b3c8 	.word	0x1000b3c8
10001acc:	1000b3e0 	.word	0x1000b3e0
10001ad0:	1000b4c4 	.word	0x1000b4c4

10001ad4 <main_program_init>:
10001ad4:	b5f0      	push	{r4, r5, r6, r7, lr}
10001ad6:	46ce      	mov	lr, r9
10001ad8:	4647      	mov	r7, r8
10001ada:	4699      	mov	r9, r3
10001adc:	2380      	movs	r3, #128	@ 0x80
10001ade:	b580      	push	{r7, lr}
10001ae0:	025b      	lsls	r3, r3, #9
10001ae2:	b087      	sub	sp, #28
10001ae4:	9302      	str	r3, [sp, #8]
10001ae6:	0013      	movs	r3, r2
10001ae8:	3306      	adds	r3, #6
10001aea:	4690      	mov	r8, r2
10001aec:	031b      	lsls	r3, r3, #12
10001aee:	01d2      	lsls	r2, r2, #7
10001af0:	4313      	orrs	r3, r2
10001af2:	4a33      	ldr	r2, [pc, #204]	@ (10001bc0 <main_program_init+0xec>)
10001af4:	ae02      	add	r6, sp, #8
10001af6:	4013      	ands	r3, r2
10001af8:	6073      	str	r3, [r6, #4]
10001afa:	23c0      	movs	r3, #192	@ 0xc0
10001afc:	031b      	lsls	r3, r3, #12
10001afe:	9304      	str	r3, [sp, #16]
10001b00:	464b      	mov	r3, r9
10001b02:	015a      	lsls	r2, r3, #5
10001b04:	23f8      	movs	r3, #248	@ 0xf8
10001b06:	009b      	lsls	r3, r3, #2
10001b08:	401a      	ands	r2, r3
10001b0a:	2390      	movs	r3, #144	@ 0x90
10001b0c:	059b      	lsls	r3, r3, #22
10001b0e:	4313      	orrs	r3, r2
10001b10:	60f3      	str	r3, [r6, #12]
10001b12:	4b2c      	ldr	r3, [pc, #176]	@ (10001bc4 <main_program_init+0xf0>)
10001b14:	000f      	movs	r7, r1
10001b16:	18c1      	adds	r1, r0, r3
10001b18:	0d09      	lsrs	r1, r1, #20
10001b1a:	3106      	adds	r1, #6
10001b1c:	0005      	movs	r5, r0
10001b1e:	b2c9      	uxtb	r1, r1
10001b20:	4648      	mov	r0, r9
10001b22:	f001 fbd3 	bl	100032cc <gpio_set_function>
10001b26:	2301      	movs	r3, #1
10001b28:	464a      	mov	r2, r9
10001b2a:	9300      	str	r3, [sp, #0]
10001b2c:	0039      	movs	r1, r7
10001b2e:	0028      	movs	r0, r5
10001b30:	f008 f958 	bl	10009de4 <pio_sm_set_consecutive_pindirs>
10001b34:	2005      	movs	r0, #5
10001b36:	f002 fd9b 	bl	10004670 <clock_get_hz>
10001b3a:	f003 fc8d 	bl	10005458 <__wrap___aeabi_ui2d>
10001b3e:	4b22      	ldr	r3, [pc, #136]	@ (10001bc8 <main_program_init+0xf4>)
10001b40:	2200      	movs	r2, #0
10001b42:	f003 fc08 	bl	10005356 <__wrap___aeabi_ddiv>
10001b46:	f003 fccf 	bl	100054e8 <__wrap___aeabi_d2f>
10001b4a:	21ec      	movs	r1, #236	@ 0xec
10001b4c:	0589      	lsls	r1, r1, #22
10001b4e:	f003 fd5f 	bl	10005610 <__wrap___aeabi_fadd>
10001b52:	4681      	mov	r9, r0
10001b54:	f003 fda2 	bl	1000569c <__wrap___aeabi_f2uiz>
10001b58:	b284      	uxth	r4, r0
10001b5a:	2300      	movs	r3, #0
10001b5c:	2c00      	cmp	r4, #0
10001b5e:	d00e      	beq.n	10001b7e <main_program_init+0xaa>
10001b60:	0020      	movs	r0, r4
10001b62:	f003 fd73 	bl	1000564c <__wrap___aeabi_ui2f>
10001b66:	1c01      	adds	r1, r0, #0
10001b68:	4648      	mov	r0, r9
10001b6a:	f003 fd4e 	bl	1000560a <__wrap___aeabi_fsub>
10001b6e:	2187      	movs	r1, #135	@ 0x87
10001b70:	05c9      	lsls	r1, r1, #23
10001b72:	f003 fd64 	bl	1000563e <__wrap___aeabi_fmul>
10001b76:	f003 fd91 	bl	1000569c <__wrap___aeabi_f2uiz>
10001b7a:	b2c3      	uxtb	r3, r0
10001b7c:	021b      	lsls	r3, r3, #8
10001b7e:	0424      	lsls	r4, r4, #16
10001b80:	68b2      	ldr	r2, [r6, #8]
10001b82:	431c      	orrs	r4, r3
10001b84:	4b11      	ldr	r3, [pc, #68]	@ (10001bcc <main_program_init+0xf8>)
10001b86:	0039      	movs	r1, r7
10001b88:	401a      	ands	r2, r3
10001b8a:	4b11      	ldr	r3, [pc, #68]	@ (10001bd0 <main_program_init+0xfc>)
10001b8c:	0028      	movs	r0, r5
10001b8e:	4313      	orrs	r3, r2
10001b90:	60b3      	str	r3, [r6, #8]
10001b92:	6872      	ldr	r2, [r6, #4]
10001b94:	4b0f      	ldr	r3, [pc, #60]	@ (10001bd4 <main_program_init+0x100>)
10001b96:	9402      	str	r4, [sp, #8]
10001b98:	401a      	ands	r2, r3
10001b9a:	2380      	movs	r3, #128	@ 0x80
10001b9c:	029b      	lsls	r3, r3, #10
10001b9e:	4313      	orrs	r3, r2
10001ba0:	6073      	str	r3, [r6, #4]
10001ba2:	4642      	mov	r2, r8
10001ba4:	0033      	movs	r3, r6
10001ba6:	f008 f977 	bl	10009e98 <pio_sm_init>
10001baa:	2301      	movs	r3, #1
10001bac:	40bb      	lsls	r3, r7
10001bae:	682a      	ldr	r2, [r5, #0]
10001bb0:	4313      	orrs	r3, r2
10001bb2:	602b      	str	r3, [r5, #0]
10001bb4:	b007      	add	sp, #28
10001bb6:	bcc0      	pop	{r6, r7}
10001bb8:	46b9      	mov	r9, r7
10001bba:	46b0      	mov	r8, r6
10001bbc:	bdf0      	pop	{r4, r5, r6, r7, pc}
10001bbe:	46c0      	nop			@ (mov r8, r8)
10001bc0:	9fffffff 	.word	0x9fffffff
10001bc4:	afe00000 	.word	0xafe00000
10001bc8:	415e8480 	.word	0x415e8480
10001bcc:	01f5ffff 	.word	0x01f5ffff
10001bd0:	70020000 	.word	0x70020000
10001bd4:	ff01ffff 	.word	0xff01ffff

10001bd8 <criar_frase_da_string>:
10001bd8:	b5f0      	push	{r4, r5, r6, r7, lr}
10001bda:	46de      	mov	lr, fp
10001bdc:	4645      	mov	r5, r8
10001bde:	4657      	mov	r7, sl
10001be0:	464e      	mov	r6, r9
10001be2:	b5e0      	push	{r5, r6, r7, lr}
10001be4:	b083      	sub	sp, #12
10001be6:	000c      	movs	r4, r1
10001be8:	0005      	movs	r5, r0
10001bea:	f008 fe45 	bl	1000a878 <strlen>
10001bee:	9001      	str	r0, [sp, #4]
10001bf0:	3001      	adds	r0, #1
10001bf2:	0080      	lsls	r0, r0, #2
10001bf4:	f003 fd92 	bl	1000571c <__wrap_malloc>
10001bf8:	4680      	mov	r8, r0
10001bfa:	2c03      	cmp	r4, #3
10001bfc:	d067      	beq.n	10001cce <criar_frase_da_string+0xf6>
10001bfe:	4c35      	ldr	r4, [pc, #212]	@ (10001cd4 <criar_frase_da_string+0xfc>)
10001c00:	6ea3      	ldr	r3, [r4, #104]	@ 0x68
10001c02:	4699      	mov	r9, r3
10001c04:	9b01      	ldr	r3, [sp, #4]
10001c06:	2b00      	cmp	r3, #0
10001c08:	d01c      	beq.n	10001c44 <criar_frase_da_string+0x6c>
10001c0a:	18e8      	adds	r0, r5, r3
10001c0c:	23ff      	movs	r3, #255	@ 0xff
10001c0e:	469a      	mov	sl, r3
10001c10:	4b31      	ldr	r3, [pc, #196]	@ (10001cd8 <criar_frase_da_string+0x100>)
10001c12:	002a      	movs	r2, r5
10001c14:	4641      	mov	r1, r8
10001c16:	2503      	movs	r5, #3
10001c18:	469c      	mov	ip, r3
10001c1a:	4e30      	ldr	r6, [pc, #192]	@ (10001cdc <criar_frase_da_string+0x104>)
10001c1c:	7813      	ldrb	r3, [r2, #0]
10001c1e:	5cf7      	ldrb	r7, [r6, r3]
10001c20:	402f      	ands	r7, r5
10001c22:	2f02      	cmp	r7, #2
10001c24:	d102      	bne.n	10001c2c <criar_frase_da_string+0x54>
10001c26:	4657      	mov	r7, sl
10001c28:	3b20      	subs	r3, #32
10001c2a:	403b      	ands	r3, r7
10001c2c:	3b21      	subs	r3, #33	@ 0x21
10001c2e:	2b39      	cmp	r3, #57	@ 0x39
10001c30:	d803      	bhi.n	10001c3a <criar_frase_da_string+0x62>
10001c32:	4667      	mov	r7, ip
10001c34:	009b      	lsls	r3, r3, #2
10001c36:	58fb      	ldr	r3, [r7, r3]
10001c38:	469f      	mov	pc, r3
10001c3a:	464b      	mov	r3, r9
10001c3c:	3201      	adds	r2, #1
10001c3e:	c108      	stmia	r1!, {r3}
10001c40:	4290      	cmp	r0, r2
10001c42:	d1eb      	bne.n	10001c1c <criar_frase_da_string+0x44>
10001c44:	9b01      	ldr	r3, [sp, #4]
10001c46:	464a      	mov	r2, r9
10001c48:	009f      	lsls	r7, r3, #2
10001c4a:	4640      	mov	r0, r8
10001c4c:	4643      	mov	r3, r8
10001c4e:	50fa      	str	r2, [r7, r3]
10001c50:	b003      	add	sp, #12
10001c52:	bcf0      	pop	{r4, r5, r6, r7}
10001c54:	46bb      	mov	fp, r7
10001c56:	46b2      	mov	sl, r6
10001c58:	46a9      	mov	r9, r5
10001c5a:	46a0      	mov	r8, r4
10001c5c:	bdf0      	pop	{r4, r5, r6, r7, pc}
10001c5e:	6e63      	ldr	r3, [r4, #100]	@ 0x64
10001c60:	e7ec      	b.n	10001c3c <criar_frase_da_string+0x64>
10001c62:	6e23      	ldr	r3, [r4, #96]	@ 0x60
10001c64:	e7ea      	b.n	10001c3c <criar_frase_da_string+0x64>
10001c66:	6de3      	ldr	r3, [r4, #92]	@ 0x5c
10001c68:	e7e8      	b.n	10001c3c <criar_frase_da_string+0x64>
10001c6a:	6da3      	ldr	r3, [r4, #88]	@ 0x58
10001c6c:	e7e6      	b.n	10001c3c <criar_frase_da_string+0x64>
10001c6e:	6d63      	ldr	r3, [r4, #84]	@ 0x54
10001c70:	e7e4      	b.n	10001c3c <criar_frase_da_string+0x64>
10001c72:	6d23      	ldr	r3, [r4, #80]	@ 0x50
10001c74:	e7e2      	b.n	10001c3c <criar_frase_da_string+0x64>
10001c76:	6ce3      	ldr	r3, [r4, #76]	@ 0x4c
10001c78:	e7e0      	b.n	10001c3c <criar_frase_da_string+0x64>
10001c7a:	6ca3      	ldr	r3, [r4, #72]	@ 0x48
10001c7c:	e7de      	b.n	10001c3c <criar_frase_da_string+0x64>
10001c7e:	6c63      	ldr	r3, [r4, #68]	@ 0x44
10001c80:	e7dc      	b.n	10001c3c <criar_frase_da_string+0x64>
10001c82:	6c23      	ldr	r3, [r4, #64]	@ 0x40
10001c84:	e7da      	b.n	10001c3c <criar_frase_da_string+0x64>
10001c86:	6be3      	ldr	r3, [r4, #60]	@ 0x3c
10001c88:	e7d8      	b.n	10001c3c <criar_frase_da_string+0x64>
10001c8a:	6ba3      	ldr	r3, [r4, #56]	@ 0x38
10001c8c:	e7d6      	b.n	10001c3c <criar_frase_da_string+0x64>
10001c8e:	6b63      	ldr	r3, [r4, #52]	@ 0x34
10001c90:	e7d4      	b.n	10001c3c <criar_frase_da_string+0x64>
10001c92:	6b23      	ldr	r3, [r4, #48]	@ 0x30
10001c94:	e7d2      	b.n	10001c3c <criar_frase_da_string+0x64>
10001c96:	6ae3      	ldr	r3, [r4, #44]	@ 0x2c
10001c98:	e7d0      	b.n	10001c3c <criar_frase_da_string+0x64>
10001c9a:	6aa3      	ldr	r3, [r4, #40]	@ 0x28
10001c9c:	e7ce      	b.n	10001c3c <criar_frase_da_string+0x64>
10001c9e:	6a63      	ldr	r3, [r4, #36]	@ 0x24
10001ca0:	e7cc      	b.n	10001c3c <criar_frase_da_string+0x64>
10001ca2:	6a23      	ldr	r3, [r4, #32]
10001ca4:	e7ca      	b.n	10001c3c <criar_frase_da_string+0x64>
10001ca6:	69e3      	ldr	r3, [r4, #28]
10001ca8:	e7c8      	b.n	10001c3c <criar_frase_da_string+0x64>
10001caa:	69a3      	ldr	r3, [r4, #24]
10001cac:	e7c6      	b.n	10001c3c <criar_frase_da_string+0x64>
10001cae:	6963      	ldr	r3, [r4, #20]
10001cb0:	e7c4      	b.n	10001c3c <criar_frase_da_string+0x64>
10001cb2:	6923      	ldr	r3, [r4, #16]
10001cb4:	e7c2      	b.n	10001c3c <criar_frase_da_string+0x64>
10001cb6:	68e3      	ldr	r3, [r4, #12]
10001cb8:	e7c0      	b.n	10001c3c <criar_frase_da_string+0x64>
10001cba:	68a3      	ldr	r3, [r4, #8]
10001cbc:	e7be      	b.n	10001c3c <criar_frase_da_string+0x64>
10001cbe:	6863      	ldr	r3, [r4, #4]
10001cc0:	e7bc      	b.n	10001c3c <criar_frase_da_string+0x64>
10001cc2:	6823      	ldr	r3, [r4, #0]
10001cc4:	e7ba      	b.n	10001c3c <criar_frase_da_string+0x64>
10001cc6:	6f23      	ldr	r3, [r4, #112]	@ 0x70
10001cc8:	e7b8      	b.n	10001c3c <criar_frase_da_string+0x64>
10001cca:	6ee3      	ldr	r3, [r4, #108]	@ 0x6c
10001ccc:	e7b6      	b.n	10001c3c <criar_frase_da_string+0x64>
10001cce:	4c04      	ldr	r4, [pc, #16]	@ (10001ce0 <criar_frase_da_string+0x108>)
10001cd0:	e796      	b.n	10001c00 <criar_frase_da_string+0x28>
10001cd2:	46c0      	nop			@ (mov r8, r8)
10001cd4:	20001fd8 	.word	0x20001fd8
10001cd8:	1000bf40 	.word	0x1000bf40
10001cdc:	1000c4dd 	.word	0x1000c4dd
10001ce0:	20001240 	.word	0x20001240

10001ce4 <exibir_frame>:
10001ce4:	b082      	sub	sp, #8
10001ce6:	b5f0      	push	{r4, r5, r6, r7, lr}
10001ce8:	4645      	mov	r5, r8
10001cea:	46de      	mov	lr, fp
10001cec:	4657      	mov	r7, sl
10001cee:	464e      	mov	r6, r9
10001cf0:	b5e0      	push	{r5, r6, r7, lr}
10001cf2:	b089      	sub	sp, #36	@ 0x24
10001cf4:	9313      	str	r3, [sp, #76]	@ 0x4c
10001cf6:	9b18      	ldr	r3, [sp, #96]	@ 0x60
10001cf8:	9212      	str	r2, [sp, #72]	@ 0x48
10001cfa:	4698      	mov	r8, r3
10001cfc:	9b12      	ldr	r3, [sp, #72]	@ 0x48
10001cfe:	9c13      	ldr	r4, [sp, #76]	@ 0x4c
10001d00:	9006      	str	r0, [sp, #24]
10001d02:	9300      	str	r3, [sp, #0]
10001d04:	9401      	str	r4, [sp, #4]
10001d06:	981a      	ldr	r0, [sp, #104]	@ 0x68
10001d08:	991b      	ldr	r1, [sp, #108]	@ 0x6c
10001d0a:	9b14      	ldr	r3, [sp, #80]	@ 0x50
10001d0c:	9c15      	ldr	r4, [sp, #84]	@ 0x54
10001d0e:	2200      	movs	r2, #0
10001d10:	9304      	str	r3, [sp, #16]
10001d12:	9405      	str	r4, [sp, #20]
10001d14:	9c16      	ldr	r4, [sp, #88]	@ 0x58
10001d16:	9d17      	ldr	r5, [sp, #92]	@ 0x5c
10001d18:	2300      	movs	r3, #0
10001d1a:	f003 fb75 	bl	10005408 <__wrap___aeabi_dcmplt>
10001d1e:	2800      	cmp	r0, #0
10001d20:	d15d      	bne.n	10001dde <exibir_frame+0xfa>
10001d22:	981a      	ldr	r0, [sp, #104]	@ 0x68
10001d24:	991b      	ldr	r1, [sp, #108]	@ 0x6c
10001d26:	2200      	movs	r2, #0
10001d28:	4bc9      	ldr	r3, [pc, #804]	@ (10002050 <exibir_frame+0x36c>)
10001d2a:	f003 fb83 	bl	10005434 <__wrap___aeabi_dcmpgt>
10001d2e:	2800      	cmp	r0, #0
10001d30:	d12d      	bne.n	10001d8e <exibir_frame+0xaa>
10001d32:	9e1a      	ldr	r6, [sp, #104]	@ 0x68
10001d34:	9f1b      	ldr	r7, [sp, #108]	@ 0x6c
10001d36:	9800      	ldr	r0, [sp, #0]
10001d38:	9901      	ldr	r1, [sp, #4]
10001d3a:	2200      	movs	r2, #0
10001d3c:	4bc5      	ldr	r3, [pc, #788]	@ (10002054 <exibir_frame+0x370>)
10001d3e:	f003 fb79 	bl	10005434 <__wrap___aeabi_dcmpgt>
10001d42:	2200      	movs	r2, #0
10001d44:	4bc3      	ldr	r3, [pc, #780]	@ (10002054 <exibir_frame+0x370>)
10001d46:	2800      	cmp	r0, #0
10001d48:	d024      	beq.n	10001d94 <exibir_frame+0xb0>
10001d4a:	0020      	movs	r0, r4
10001d4c:	0029      	movs	r1, r5
10001d4e:	f003 fb71 	bl	10005434 <__wrap___aeabi_dcmpgt>
10001d52:	2200      	movs	r2, #0
10001d54:	4bbf      	ldr	r3, [pc, #764]	@ (10002054 <exibir_frame+0x370>)
10001d56:	2800      	cmp	r0, #0
10001d58:	d044      	beq.n	10001de4 <exibir_frame+0x100>
10001d5a:	9804      	ldr	r0, [sp, #16]
10001d5c:	9905      	ldr	r1, [sp, #20]
10001d5e:	f003 fb69 	bl	10005434 <__wrap___aeabi_dcmpgt>
10001d62:	2800      	cmp	r0, #0
10001d64:	d100      	bne.n	10001d68 <exibir_frame+0x84>
10001d66:	e126      	b.n	10001fb6 <exibir_frame+0x2d2>
10001d68:	2300      	movs	r3, #0
10001d6a:	4cb9      	ldr	r4, [pc, #740]	@ (10002050 <exibir_frame+0x36c>)
10001d6c:	4db9      	ldr	r5, [pc, #740]	@ (10002054 <exibir_frame+0x370>)
10001d6e:	9300      	str	r3, [sp, #0]
10001d70:	9401      	str	r4, [sp, #4]
10001d72:	2400      	movs	r4, #0
10001d74:	0020      	movs	r0, r4
10001d76:	0029      	movs	r1, r5
10001d78:	4bb6      	ldr	r3, [pc, #728]	@ (10002054 <exibir_frame+0x370>)
10001d7a:	2200      	movs	r2, #0
10001d7c:	f003 faeb 	bl	10005356 <__wrap___aeabi_ddiv>
10001d80:	2300      	movs	r3, #0
10001d82:	4cb3      	ldr	r4, [pc, #716]	@ (10002050 <exibir_frame+0x36c>)
10001d84:	9002      	str	r0, [sp, #8]
10001d86:	9103      	str	r1, [sp, #12]
10001d88:	9304      	str	r3, [sp, #16]
10001d8a:	9405      	str	r4, [sp, #20]
10001d8c:	e068      	b.n	10001e60 <exibir_frame+0x17c>
10001d8e:	2600      	movs	r6, #0
10001d90:	4faf      	ldr	r7, [pc, #700]	@ (10002050 <exibir_frame+0x36c>)
10001d92:	e7d0      	b.n	10001d36 <exibir_frame+0x52>
10001d94:	0020      	movs	r0, r4
10001d96:	0029      	movs	r1, r5
10001d98:	f003 fb4c 	bl	10005434 <__wrap___aeabi_dcmpgt>
10001d9c:	2200      	movs	r2, #0
10001d9e:	4bad      	ldr	r3, [pc, #692]	@ (10002054 <exibir_frame+0x370>)
10001da0:	2800      	cmp	r0, #0
10001da2:	d02f      	beq.n	10001e04 <exibir_frame+0x120>
10001da4:	9804      	ldr	r0, [sp, #16]
10001da6:	9905      	ldr	r1, [sp, #20]
10001da8:	f003 fb44 	bl	10005434 <__wrap___aeabi_dcmpgt>
10001dac:	2200      	movs	r2, #0
10001dae:	2300      	movs	r3, #0
10001db0:	2800      	cmp	r0, #0
10001db2:	d100      	bne.n	10001db6 <exibir_frame+0xd2>
10001db4:	e0ea      	b.n	10001f8c <exibir_frame+0x2a8>
10001db6:	9800      	ldr	r0, [sp, #0]
10001db8:	9901      	ldr	r1, [sp, #4]
10001dba:	f003 fb25 	bl	10005408 <__wrap___aeabi_dcmplt>
10001dbe:	2800      	cmp	r0, #0
10001dc0:	d100      	bne.n	10001dc4 <exibir_frame+0xe0>
10001dc2:	e129      	b.n	10002018 <exibir_frame+0x334>
10001dc4:	2300      	movs	r3, #0
10001dc6:	4ca2      	ldr	r4, [pc, #648]	@ (10002050 <exibir_frame+0x36c>)
10001dc8:	9302      	str	r3, [sp, #8]
10001dca:	9403      	str	r4, [sp, #12]
10001dcc:	2300      	movs	r3, #0
10001dce:	4ca0      	ldr	r4, [pc, #640]	@ (10002050 <exibir_frame+0x36c>)
10001dd0:	9304      	str	r3, [sp, #16]
10001dd2:	9405      	str	r4, [sp, #20]
10001dd4:	2300      	movs	r3, #0
10001dd6:	2400      	movs	r4, #0
10001dd8:	9300      	str	r3, [sp, #0]
10001dda:	9401      	str	r4, [sp, #4]
10001ddc:	e040      	b.n	10001e60 <exibir_frame+0x17c>
10001dde:	2600      	movs	r6, #0
10001de0:	2700      	movs	r7, #0
10001de2:	e7a8      	b.n	10001d36 <exibir_frame+0x52>
10001de4:	9804      	ldr	r0, [sp, #16]
10001de6:	9905      	ldr	r1, [sp, #20]
10001de8:	f003 fb24 	bl	10005434 <__wrap___aeabi_dcmpgt>
10001dec:	2800      	cmp	r0, #0
10001dee:	d000      	beq.n	10001df2 <exibir_frame+0x10e>
10001df0:	e0c9      	b.n	10001f86 <exibir_frame+0x2a2>
10001df2:	9a04      	ldr	r2, [sp, #16]
10001df4:	9b05      	ldr	r3, [sp, #20]
10001df6:	9204      	str	r2, [sp, #16]
10001df8:	9305      	str	r3, [sp, #20]
10001dfa:	2200      	movs	r2, #0
10001dfc:	4b94      	ldr	r3, [pc, #592]	@ (10002050 <exibir_frame+0x36c>)
10001dfe:	9200      	str	r2, [sp, #0]
10001e00:	9301      	str	r3, [sp, #4]
10001e02:	e013      	b.n	10001e2c <exibir_frame+0x148>
10001e04:	9804      	ldr	r0, [sp, #16]
10001e06:	9905      	ldr	r1, [sp, #20]
10001e08:	f003 fb14 	bl	10005434 <__wrap___aeabi_dcmpgt>
10001e0c:	2200      	movs	r2, #0
10001e0e:	2300      	movs	r3, #0
10001e10:	2800      	cmp	r0, #0
10001e12:	d000      	beq.n	10001e16 <exibir_frame+0x132>
10001e14:	e09e      	b.n	10001f54 <exibir_frame+0x270>
10001e16:	9800      	ldr	r0, [sp, #0]
10001e18:	9901      	ldr	r1, [sp, #4]
10001e1a:	f003 faf5 	bl	10005408 <__wrap___aeabi_dcmplt>
10001e1e:	2200      	movs	r2, #0
10001e20:	2800      	cmp	r0, #0
10001e22:	d100      	bne.n	10001e26 <exibir_frame+0x142>
10001e24:	e103      	b.n	1000202e <exibir_frame+0x34a>
10001e26:	2300      	movs	r3, #0
10001e28:	9200      	str	r2, [sp, #0]
10001e2a:	9301      	str	r3, [sp, #4]
10001e2c:	2200      	movs	r2, #0
10001e2e:	2300      	movs	r3, #0
10001e30:	0020      	movs	r0, r4
10001e32:	0029      	movs	r1, r5
10001e34:	f003 fae8 	bl	10005408 <__wrap___aeabi_dcmplt>
10001e38:	2800      	cmp	r0, #0
10001e3a:	d100      	bne.n	10001e3e <exibir_frame+0x15a>
10001e3c:	e0c1      	b.n	10001fc2 <exibir_frame+0x2de>
10001e3e:	2300      	movs	r3, #0
10001e40:	2400      	movs	r4, #0
10001e42:	9302      	str	r3, [sp, #8]
10001e44:	9403      	str	r4, [sp, #12]
10001e46:	9804      	ldr	r0, [sp, #16]
10001e48:	9905      	ldr	r1, [sp, #20]
10001e4a:	2200      	movs	r2, #0
10001e4c:	2300      	movs	r3, #0
10001e4e:	f003 fadb 	bl	10005408 <__wrap___aeabi_dcmplt>
10001e52:	2800      	cmp	r0, #0
10001e54:	d100      	bne.n	10001e58 <exibir_frame+0x174>
10001e56:	e0bd      	b.n	10001fd4 <exibir_frame+0x2f0>
10001e58:	2300      	movs	r3, #0
10001e5a:	2400      	movs	r4, #0
10001e5c:	9304      	str	r3, [sp, #16]
10001e5e:	9405      	str	r4, [sp, #20]
10001e60:	2201      	movs	r2, #1
10001e62:	9b19      	ldr	r3, [sp, #100]	@ 0x64
10001e64:	3310      	adds	r3, #16
10001e66:	409a      	lsls	r2, r3
10001e68:	2300      	movs	r3, #0
10001e6a:	4692      	mov	sl, r2
10001e6c:	469b      	mov	fp, r3
10001e6e:	9b19      	ldr	r3, [sp, #100]	@ 0x64
10001e70:	3304      	adds	r3, #4
10001e72:	009b      	lsls	r3, r3, #2
10001e74:	9307      	str	r3, [sp, #28]
10001e76:	2105      	movs	r1, #5
10001e78:	4658      	mov	r0, fp
10001e7a:	4249      	negs	r1, r1
10001e7c:	f002 fffe 	bl	10004e7c <__wrap___aeabi_idiv>
10001e80:	2105      	movs	r1, #5
10001e82:	0004      	movs	r4, r0
10001e84:	1d05      	adds	r5, r0, #4
10001e86:	4658      	mov	r0, fp
10001e88:	f002 fff8 	bl	10004e7c <__wrap___aeabi_idiv>
10001e8c:	2202      	movs	r2, #2
10001e8e:	4394      	bics	r4, r2
10001e90:	000b      	movs	r3, r1
10001e92:	3403      	adds	r4, #3
10001e94:	d001      	beq.n	10001e9a <exibir_frame+0x1b6>
10001e96:	3202      	adds	r2, #2
10001e98:	1a53      	subs	r3, r2, r1
10001e9a:	00a9      	lsls	r1, r5, #2
10001e9c:	1949      	adds	r1, r1, r5
10001e9e:	18c9      	adds	r1, r1, r3
10001ea0:	9b06      	ldr	r3, [sp, #24]
10001ea2:	00c9      	lsls	r1, r1, #3
10001ea4:	469c      	mov	ip, r3
10001ea6:	9a04      	ldr	r2, [sp, #16]
10001ea8:	9b05      	ldr	r3, [sp, #20]
10001eaa:	4461      	add	r1, ip
10001eac:	680c      	ldr	r4, [r1, #0]
10001eae:	684d      	ldr	r5, [r1, #4]
10001eb0:	0020      	movs	r0, r4
10001eb2:	0029      	movs	r1, r5
10001eb4:	f003 fa69 	bl	1000538a <__wrap___aeabi_dmul>
10001eb8:	0032      	movs	r2, r6
10001eba:	003b      	movs	r3, r7
10001ebc:	f003 fa65 	bl	1000538a <__wrap___aeabi_dmul>
10001ec0:	2200      	movs	r2, #0
10001ec2:	4b64      	ldr	r3, [pc, #400]	@ (10002054 <exibir_frame+0x370>)
10001ec4:	f003 fa61 	bl	1000538a <__wrap___aeabi_dmul>
10001ec8:	f003 fb06 	bl	100054d8 <__wrap___aeabi_d2uiz>
10001ecc:	0603      	lsls	r3, r0, #24
10001ece:	4699      	mov	r9, r3
10001ed0:	9a00      	ldr	r2, [sp, #0]
10001ed2:	9b01      	ldr	r3, [sp, #4]
10001ed4:	0020      	movs	r0, r4
10001ed6:	0029      	movs	r1, r5
10001ed8:	f003 fa57 	bl	1000538a <__wrap___aeabi_dmul>
10001edc:	0032      	movs	r2, r6
10001ede:	003b      	movs	r3, r7
10001ee0:	f003 fa53 	bl	1000538a <__wrap___aeabi_dmul>
10001ee4:	2200      	movs	r2, #0
10001ee6:	4b5b      	ldr	r3, [pc, #364]	@ (10002054 <exibir_frame+0x370>)
10001ee8:	f003 fa4f 	bl	1000538a <__wrap___aeabi_dmul>
10001eec:	f003 faf4 	bl	100054d8 <__wrap___aeabi_d2uiz>
10001ef0:	464b      	mov	r3, r9
10001ef2:	b2c0      	uxtb	r0, r0
10001ef4:	0400      	lsls	r0, r0, #16
10001ef6:	4303      	orrs	r3, r0
10001ef8:	4699      	mov	r9, r3
10001efa:	9a02      	ldr	r2, [sp, #8]
10001efc:	9b03      	ldr	r3, [sp, #12]
10001efe:	0020      	movs	r0, r4
10001f00:	0029      	movs	r1, r5
10001f02:	f003 fa42 	bl	1000538a <__wrap___aeabi_dmul>
10001f06:	0032      	movs	r2, r6
10001f08:	003b      	movs	r3, r7
10001f0a:	f003 fa3e 	bl	1000538a <__wrap___aeabi_dmul>
10001f0e:	2200      	movs	r2, #0
10001f10:	4b50      	ldr	r3, [pc, #320]	@ (10002054 <exibir_frame+0x370>)
10001f12:	f003 fa3a 	bl	1000538a <__wrap___aeabi_dmul>
10001f16:	f003 fadf 	bl	100054d8 <__wrap___aeabi_d2uiz>
10001f1a:	464b      	mov	r3, r9
10001f1c:	4652      	mov	r2, sl
10001f1e:	4641      	mov	r1, r8
10001f20:	b2c0      	uxtb	r0, r0
10001f22:	0200      	lsls	r0, r0, #8
10001f24:	4318      	orrs	r0, r3
10001f26:	684b      	ldr	r3, [r1, #4]
10001f28:	421a      	tst	r2, r3
10001f2a:	d1fc      	bne.n	10001f26 <exibir_frame+0x242>
10001f2c:	2301      	movs	r3, #1
10001f2e:	469c      	mov	ip, r3
10001f30:	44e3      	add	fp, ip
10001f32:	465b      	mov	r3, fp
10001f34:	4692      	mov	sl, r2
10001f36:	9a07      	ldr	r2, [sp, #28]
10001f38:	4688      	mov	r8, r1
10001f3a:	5050      	str	r0, [r2, r1]
10001f3c:	2b19      	cmp	r3, #25
10001f3e:	d19a      	bne.n	10001e76 <exibir_frame+0x192>
10001f40:	b009      	add	sp, #36	@ 0x24
10001f42:	bcf0      	pop	{r4, r5, r6, r7}
10001f44:	46bb      	mov	fp, r7
10001f46:	46b2      	mov	sl, r6
10001f48:	46a9      	mov	r9, r5
10001f4a:	46a0      	mov	r8, r4
10001f4c:	bcf0      	pop	{r4, r5, r6, r7}
10001f4e:	bc08      	pop	{r3}
10001f50:	b002      	add	sp, #8
10001f52:	4718      	bx	r3
10001f54:	9800      	ldr	r0, [sp, #0]
10001f56:	9901      	ldr	r1, [sp, #4]
10001f58:	f003 fa56 	bl	10005408 <__wrap___aeabi_dcmplt>
10001f5c:	2200      	movs	r2, #0
10001f5e:	2300      	movs	r3, #0
10001f60:	2800      	cmp	r0, #0
10001f62:	d043      	beq.n	10001fec <exibir_frame+0x308>
10001f64:	0020      	movs	r0, r4
10001f66:	0029      	movs	r1, r5
10001f68:	f003 fa4e 	bl	10005408 <__wrap___aeabi_dcmplt>
10001f6c:	2800      	cmp	r0, #0
10001f6e:	d066      	beq.n	1000203e <exibir_frame+0x35a>
10001f70:	2300      	movs	r3, #0
10001f72:	4c37      	ldr	r4, [pc, #220]	@ (10002050 <exibir_frame+0x36c>)
10001f74:	9304      	str	r3, [sp, #16]
10001f76:	9405      	str	r4, [sp, #20]
10001f78:	2300      	movs	r3, #0
10001f7a:	2400      	movs	r4, #0
10001f7c:	9302      	str	r3, [sp, #8]
10001f7e:	9403      	str	r4, [sp, #12]
10001f80:	9300      	str	r3, [sp, #0]
10001f82:	9401      	str	r4, [sp, #4]
10001f84:	e76c      	b.n	10001e60 <exibir_frame+0x17c>
10001f86:	2200      	movs	r2, #0
10001f88:	4b32      	ldr	r3, [pc, #200]	@ (10002054 <exibir_frame+0x370>)
10001f8a:	e734      	b.n	10001df6 <exibir_frame+0x112>
10001f8c:	9c00      	ldr	r4, [sp, #0]
10001f8e:	9d01      	ldr	r5, [sp, #4]
10001f90:	0020      	movs	r0, r4
10001f92:	0029      	movs	r1, r5
10001f94:	f003 fa38 	bl	10005408 <__wrap___aeabi_dcmplt>
10001f98:	2800      	cmp	r0, #0
10001f9a:	d124      	bne.n	10001fe6 <exibir_frame+0x302>
10001f9c:	0020      	movs	r0, r4
10001f9e:	0029      	movs	r1, r5
10001fa0:	4b2c      	ldr	r3, [pc, #176]	@ (10002054 <exibir_frame+0x370>)
10001fa2:	2200      	movs	r2, #0
10001fa4:	f003 f9d7 	bl	10005356 <__wrap___aeabi_ddiv>
10001fa8:	2300      	movs	r3, #0
10001faa:	4c29      	ldr	r4, [pc, #164]	@ (10002050 <exibir_frame+0x36c>)
10001fac:	9000      	str	r0, [sp, #0]
10001fae:	9101      	str	r1, [sp, #4]
10001fb0:	9302      	str	r3, [sp, #8]
10001fb2:	9403      	str	r4, [sp, #12]
10001fb4:	e747      	b.n	10001e46 <exibir_frame+0x162>
10001fb6:	2200      	movs	r2, #0
10001fb8:	2400      	movs	r4, #0
10001fba:	4b25      	ldr	r3, [pc, #148]	@ (10002050 <exibir_frame+0x36c>)
10001fbc:	4d25      	ldr	r5, [pc, #148]	@ (10002054 <exibir_frame+0x370>)
10001fbe:	9200      	str	r2, [sp, #0]
10001fc0:	9301      	str	r3, [sp, #4]
10001fc2:	2200      	movs	r2, #0
10001fc4:	0020      	movs	r0, r4
10001fc6:	0029      	movs	r1, r5
10001fc8:	4b22      	ldr	r3, [pc, #136]	@ (10002054 <exibir_frame+0x370>)
10001fca:	f003 f9c4 	bl	10005356 <__wrap___aeabi_ddiv>
10001fce:	9002      	str	r0, [sp, #8]
10001fd0:	9103      	str	r1, [sp, #12]
10001fd2:	e738      	b.n	10001e46 <exibir_frame+0x162>
10001fd4:	9804      	ldr	r0, [sp, #16]
10001fd6:	9905      	ldr	r1, [sp, #20]
10001fd8:	2200      	movs	r2, #0
10001fda:	4b1e      	ldr	r3, [pc, #120]	@ (10002054 <exibir_frame+0x370>)
10001fdc:	f003 f9bb 	bl	10005356 <__wrap___aeabi_ddiv>
10001fe0:	9004      	str	r0, [sp, #16]
10001fe2:	9105      	str	r1, [sp, #20]
10001fe4:	e73c      	b.n	10001e60 <exibir_frame+0x17c>
10001fe6:	2000      	movs	r0, #0
10001fe8:	2100      	movs	r1, #0
10001fea:	e7d9      	b.n	10001fa0 <exibir_frame+0x2bc>
10001fec:	0029      	movs	r1, r5
10001fee:	0020      	movs	r0, r4
10001ff0:	f003 fa0a 	bl	10005408 <__wrap___aeabi_dcmplt>
10001ff4:	1e43      	subs	r3, r0, #1
10001ff6:	4198      	sbcs	r0, r3
10001ff8:	4681      	mov	r9, r0
10001ffa:	9800      	ldr	r0, [sp, #0]
10001ffc:	9901      	ldr	r1, [sp, #4]
10001ffe:	4b15      	ldr	r3, [pc, #84]	@ (10002054 <exibir_frame+0x370>)
10002000:	2200      	movs	r2, #0
10002002:	f003 f9a8 	bl	10005356 <__wrap___aeabi_ddiv>
10002006:	464b      	mov	r3, r9
10002008:	9000      	str	r0, [sp, #0]
1000200a:	9101      	str	r1, [sp, #4]
1000200c:	2b00      	cmp	r3, #0
1000200e:	d100      	bne.n	10002012 <exibir_frame+0x32e>
10002010:	e6b0      	b.n	10001d74 <exibir_frame+0x90>
10002012:	2000      	movs	r0, #0
10002014:	2100      	movs	r1, #0
10002016:	e6af      	b.n	10001d78 <exibir_frame+0x94>
10002018:	9800      	ldr	r0, [sp, #0]
1000201a:	9901      	ldr	r1, [sp, #4]
1000201c:	2200      	movs	r2, #0
1000201e:	4b0d      	ldr	r3, [pc, #52]	@ (10002054 <exibir_frame+0x370>)
10002020:	f003 f999 	bl	10005356 <__wrap___aeabi_ddiv>
10002024:	2400      	movs	r4, #0
10002026:	9000      	str	r0, [sp, #0]
10002028:	9101      	str	r1, [sp, #4]
1000202a:	4d0a      	ldr	r5, [pc, #40]	@ (10002054 <exibir_frame+0x370>)
1000202c:	e6a2      	b.n	10001d74 <exibir_frame+0x90>
1000202e:	9800      	ldr	r0, [sp, #0]
10002030:	9901      	ldr	r1, [sp, #4]
10002032:	4b08      	ldr	r3, [pc, #32]	@ (10002054 <exibir_frame+0x370>)
10002034:	f003 f98f 	bl	10005356 <__wrap___aeabi_ddiv>
10002038:	9000      	str	r0, [sp, #0]
1000203a:	9101      	str	r1, [sp, #4]
1000203c:	e6f6      	b.n	10001e2c <exibir_frame+0x148>
1000203e:	2200      	movs	r2, #0
10002040:	0020      	movs	r0, r4
10002042:	0029      	movs	r1, r5
10002044:	4b03      	ldr	r3, [pc, #12]	@ (10002054 <exibir_frame+0x370>)
10002046:	f003 f986 	bl	10005356 <__wrap___aeabi_ddiv>
1000204a:	9002      	str	r0, [sp, #8]
1000204c:	9103      	str	r1, [sp, #12]
1000204e:	e6bd      	b.n	10001dcc <exibir_frame+0xe8>
10002050:	3ff00000 	.word	0x3ff00000
10002054:	406fe000 	.word	0x406fe000

10002058 <exibir_frase_rolagem>:
10002058:	b082      	sub	sp, #8
1000205a:	b5f0      	push	{r4, r5, r6, r7, lr}
1000205c:	21f0      	movs	r1, #240	@ 0xf0
1000205e:	0004      	movs	r4, r0
10002060:	2068      	movs	r0, #104	@ 0x68
10002062:	46de      	mov	lr, fp
10002064:	4657      	mov	r7, sl
10002066:	464e      	mov	r6, r9
10002068:	4645      	mov	r5, r8
1000206a:	1809      	adds	r1, r1, r0
1000206c:	3860      	subs	r0, #96	@ 0x60
1000206e:	4684      	mov	ip, r0
10002070:	b5e0      	push	{r5, r6, r7, lr}
10002072:	b0d7      	sub	sp, #348	@ 0x15c
10002074:	af08      	add	r7, sp, #32
10002076:	44bc      	add	ip, r7
10002078:	4461      	add	r1, ip
1000207a:	600a      	str	r2, [r1, #0]
1000207c:	4684      	mov	ip, r0
1000207e:	22f4      	movs	r2, #244	@ 0xf4
10002080:	2168      	movs	r1, #104	@ 0x68
10002082:	44bc      	add	ip, r7
10002084:	1852      	adds	r2, r2, r1
10002086:	4462      	add	r2, ip
10002088:	46eb      	mov	fp, sp
1000208a:	6013      	str	r3, [r2, #0]
1000208c:	2c00      	cmp	r4, #0
1000208e:	d101      	bne.n	10002094 <exibir_frase_rolagem+0x3c>
10002090:	f000 fe39 	bl	10002d06 <exibir_frase_rolagem+0xcae>
10002094:	238e      	movs	r3, #142	@ 0x8e
10002096:	2268      	movs	r2, #104	@ 0x68
10002098:	005b      	lsls	r3, r3, #1
1000209a:	189b      	adds	r3, r3, r2
1000209c:	3a60      	subs	r2, #96	@ 0x60
1000209e:	4694      	mov	ip, r2
100020a0:	44bc      	add	ip, r7
100020a2:	4463      	add	r3, ip
100020a4:	0020      	movs	r0, r4
100020a6:	6819      	ldr	r1, [r3, #0]
100020a8:	f7ff fd96 	bl	10001bd8 <criar_frase_da_string>
100020ac:	61f8      	str	r0, [r7, #28]
100020ae:	2800      	cmp	r0, #0
100020b0:	d101      	bne.n	100020b6 <exibir_frase_rolagem+0x5e>
100020b2:	f000 ff35 	bl	10002f20 <exibir_frase_rolagem+0xec8>
100020b6:	0020      	movs	r0, r4
100020b8:	f008 fbde 	bl	1000a878 <strlen>
100020bc:	2100      	movs	r1, #0
100020be:	1c43      	adds	r3, r0, #1
100020c0:	469a      	mov	sl, r3
100020c2:	238e      	movs	r3, #142	@ 0x8e
100020c4:	2200      	movs	r2, #0
100020c6:	468c      	mov	ip, r1
100020c8:	005b      	lsls	r3, r3, #1
100020ca:	189a      	adds	r2, r3, r2
100020cc:	44bc      	add	ip, r7
100020ce:	4462      	add	r2, ip
100020d0:	6f12      	ldr	r2, [r2, #112]	@ 0x70
100020d2:	2a03      	cmp	r2, #3
100020d4:	d007      	beq.n	100020e6 <exibir_frase_rolagem+0x8e>
100020d6:	2268      	movs	r2, #104	@ 0x68
100020d8:	189b      	adds	r3, r3, r2
100020da:	3a60      	subs	r2, #96	@ 0x60
100020dc:	4694      	mov	ip, r2
100020de:	44bc      	add	ip, r7
100020e0:	4463      	add	r3, ip
100020e2:	3a03      	subs	r2, #3
100020e4:	601a      	str	r2, [r3, #0]
100020e6:	238e      	movs	r3, #142	@ 0x8e
100020e8:	2268      	movs	r2, #104	@ 0x68
100020ea:	005b      	lsls	r3, r3, #1
100020ec:	189b      	adds	r3, r3, r2
100020ee:	3a60      	subs	r2, #96	@ 0x60
100020f0:	18ba      	adds	r2, r7, r2
100020f2:	189a      	adds	r2, r3, r2
100020f4:	4653      	mov	r3, sl
100020f6:	6812      	ldr	r2, [r2, #0]
100020f8:	4353      	muls	r3, r2
100020fa:	66bb      	str	r3, [r7, #104]	@ 0x68
100020fc:	2bfa      	cmp	r3, #250	@ 0xfa
100020fe:	dd00      	ble.n	10002102 <exibir_frase_rolagem+0xaa>
10002100:	e300      	b.n	10002704 <exibir_frase_rolagem+0x6ac>
10002102:	469c      	mov	ip, r3
10002104:	001c      	movs	r4, r3
10002106:	009a      	lsls	r2, r3, #2
10002108:	466b      	mov	r3, sp
1000210a:	4462      	add	r2, ip
1000210c:	00d2      	lsls	r2, r2, #3
1000210e:	1a9b      	subs	r3, r3, r2
10002110:	469d      	mov	sp, r3
10002112:	ab08      	add	r3, sp, #32
10002114:	0018      	movs	r0, r3
10002116:	2100      	movs	r1, #0
10002118:	63fb      	str	r3, [r7, #60]	@ 0x3c
1000211a:	f003 fb1d 	bl	10005758 <__wrap_memset>
1000211e:	00e3      	lsls	r3, r4, #3
10002120:	64bb      	str	r3, [r7, #72]	@ 0x48
10002122:	238e      	movs	r3, #142	@ 0x8e
10002124:	2268      	movs	r2, #104	@ 0x68
10002126:	005b      	lsls	r3, r3, #1
10002128:	189b      	adds	r3, r3, r2
1000212a:	3a60      	subs	r2, #96	@ 0x60
1000212c:	4694      	mov	ip, r2
1000212e:	44bc      	add	ip, r7
10002130:	4463      	add	r3, ip
10002132:	681b      	ldr	r3, [r3, #0]
10002134:	465a      	mov	r2, fp
10002136:	00db      	lsls	r3, r3, #3
10002138:	4698      	mov	r8, r3
1000213a:	2300      	movs	r3, #0
1000213c:	4699      	mov	r9, r3
1000213e:	469b      	mov	fp, r3
10002140:	663a      	str	r2, [r7, #96]	@ 0x60
10002142:	464b      	mov	r3, r9
10002144:	00dc      	lsls	r4, r3, #3
10002146:	6bfb      	ldr	r3, [r7, #60]	@ 0x3c
10002148:	2505      	movs	r5, #5
1000214a:	469c      	mov	ip, r3
1000214c:	465b      	mov	r3, fp
1000214e:	0099      	lsls	r1, r3, #2
10002150:	69fb      	ldr	r3, [r7, #28]
10002152:	4464      	add	r4, ip
10002154:	585e      	ldr	r6, [r3, r1]
10002156:	0031      	movs	r1, r6
10002158:	0020      	movs	r0, r4
1000215a:	4642      	mov	r2, r8
1000215c:	f003 fb02 	bl	10005764 <__wrap___aeabi_memcpy>
10002160:	6cbb      	ldr	r3, [r7, #72]	@ 0x48
10002162:	3d01      	subs	r5, #1
10002164:	469c      	mov	ip, r3
10002166:	4446      	add	r6, r8
10002168:	4464      	add	r4, ip
1000216a:	2d00      	cmp	r5, #0
1000216c:	d1f3      	bne.n	10002156 <exibir_frase_rolagem+0xfe>
1000216e:	2301      	movs	r3, #1
10002170:	2268      	movs	r2, #104	@ 0x68
10002172:	469c      	mov	ip, r3
10002174:	331c      	adds	r3, #28
10002176:	33ff      	adds	r3, #255	@ 0xff
10002178:	189b      	adds	r3, r3, r2
1000217a:	3a60      	subs	r2, #96	@ 0x60
1000217c:	44e3      	add	fp, ip
1000217e:	4694      	mov	ip, r2
10002180:	44bc      	add	ip, r7
10002182:	4463      	add	r3, ip
10002184:	681b      	ldr	r3, [r3, #0]
10002186:	469c      	mov	ip, r3
10002188:	44e1      	add	r9, ip
1000218a:	45da      	cmp	sl, fp
1000218c:	dcd9      	bgt.n	10002142 <exibir_frase_rolagem+0xea>
1000218e:	2208      	movs	r2, #8
10002190:	6e3b      	ldr	r3, [r7, #96]	@ 0x60
10002192:	2486      	movs	r4, #134	@ 0x86
10002194:	469b      	mov	fp, r3
10002196:	4694      	mov	ip, r2
10002198:	2368      	movs	r3, #104	@ 0x68
1000219a:	2501      	movs	r5, #1
1000219c:	6eb8      	ldr	r0, [r7, #104]	@ 0x68
1000219e:	0064      	lsls	r4, r4, #1
100021a0:	18e3      	adds	r3, r4, r3
100021a2:	44bc      	add	ip, r7
100021a4:	4463      	add	r3, ip
100021a6:	4684      	mov	ip, r0
100021a8:	681b      	ldr	r3, [r3, #0]
100021aa:	6bfa      	ldr	r2, [r7, #60]	@ 0x3c
100021ac:	3310      	adds	r3, #16
100021ae:	409d      	lsls	r5, r3
100021b0:	0143      	lsls	r3, r0, #5
100021b2:	617b      	str	r3, [r7, #20]
100021b4:	3b28      	subs	r3, #40	@ 0x28
100021b6:	18d6      	adds	r6, r2, r3
100021b8:	0043      	lsls	r3, r0, #1
100021ba:	61bb      	str	r3, [r7, #24]
100021bc:	4463      	add	r3, ip
100021be:	4694      	mov	ip, r2
100021c0:	00db      	lsls	r3, r3, #3
100021c2:	3b28      	subs	r3, #40	@ 0x28
100021c4:	4463      	add	r3, ip
100021c6:	62fb      	str	r3, [r7, #44]	@ 0x2c
100021c8:	0103      	lsls	r3, r0, #4
100021ca:	613b      	str	r3, [r7, #16]
100021cc:	3b28      	subs	r3, #40	@ 0x28
100021ce:	4463      	add	r3, ip
100021d0:	637b      	str	r3, [r7, #52]	@ 0x34
100021d2:	6cbb      	ldr	r3, [r7, #72]	@ 0x48
100021d4:	3a28      	subs	r2, #40	@ 0x28
100021d6:	3b28      	subs	r3, #40	@ 0x28
100021d8:	4463      	add	r3, ip
100021da:	63bb      	str	r3, [r7, #56]	@ 0x38
100021dc:	2302      	movs	r3, #2
100021de:	425b      	negs	r3, r3
100021e0:	643b      	str	r3, [r7, #64]	@ 0x40
100021e2:	3301      	adds	r3, #1
100021e4:	647b      	str	r3, [r7, #68]	@ 0x44
100021e6:	3b04      	subs	r3, #4
100021e8:	62bb      	str	r3, [r7, #40]	@ 0x28
100021ea:	336d      	adds	r3, #109	@ 0x6d
100021ec:	469a      	mov	sl, r3
100021ee:	3b60      	subs	r3, #96	@ 0x60
100021f0:	469c      	mov	ip, r3
100021f2:	633a      	str	r2, [r7, #48]	@ 0x30
100021f4:	2208      	movs	r2, #8
100021f6:	44bc      	add	ip, r7
100021f8:	44e2      	add	sl, ip
100021fa:	4694      	mov	ip, r2
100021fc:	3360      	adds	r3, #96	@ 0x60
100021fe:	18e3      	adds	r3, r4, r3
10002200:	44bc      	add	ip, r7
10002202:	4463      	add	r3, ip
10002204:	681b      	ldr	r3, [r3, #0]
10002206:	0034      	movs	r4, r6
10002208:	3304      	adds	r3, #4
1000220a:	60fb      	str	r3, [r7, #12]
1000220c:	465b      	mov	r3, fp
1000220e:	46ab      	mov	fp, r5
10002210:	0005      	movs	r5, r0
10002212:	60bb      	str	r3, [r7, #8]
10002214:	22c8      	movs	r2, #200	@ 0xc8
10002216:	2100      	movs	r1, #0
10002218:	4650      	mov	r0, sl
1000221a:	f003 fa9d 	bl	10005758 <__wrap_memset>
1000221e:	6aba      	ldr	r2, [r7, #40]	@ 0x28
10002220:	2a00      	cmp	r2, #0
10002222:	da00      	bge.n	10002226 <exibir_frase_rolagem+0x1ce>
10002224:	e2b8      	b.n	10002798 <exibir_frase_rolagem+0x740>
10002226:	4651      	mov	r1, sl
10002228:	6b3b      	ldr	r3, [r7, #48]	@ 0x30
1000222a:	681a      	ldr	r2, [r3, #0]
1000222c:	685b      	ldr	r3, [r3, #4]
1000222e:	600a      	str	r2, [r1, #0]
10002230:	604b      	str	r3, [r1, #4]
10002232:	6abb      	ldr	r3, [r7, #40]	@ 0x28
10002234:	1c58      	adds	r0, r3, #1
10002236:	4285      	cmp	r5, r0
10002238:	dd01      	ble.n	1000223e <exibir_frase_rolagem+0x1e6>
1000223a:	f000 feb1 	bl	10002fa0 <exibir_frase_rolagem+0xf48>
1000223e:	2200      	movs	r2, #0
10002240:	2300      	movs	r3, #0
10002242:	4651      	mov	r1, sl
10002244:	608a      	str	r2, [r1, #8]
10002246:	60cb      	str	r3, [r1, #12]
10002248:	6abb      	ldr	r3, [r7, #40]	@ 0x28
1000224a:	2200      	movs	r2, #0
1000224c:	3302      	adds	r3, #2
1000224e:	469c      	mov	ip, r3
10002250:	2300      	movs	r3, #0
10002252:	4565      	cmp	r5, ip
10002254:	dd01      	ble.n	1000225a <exibir_frase_rolagem+0x202>
10002256:	f000 fe4d 	bl	10002ef4 <exibir_frase_rolagem+0xe9c>
1000225a:	4656      	mov	r6, sl
1000225c:	6132      	str	r2, [r6, #16]
1000225e:	6173      	str	r3, [r6, #20]
10002260:	6c3b      	ldr	r3, [r7, #64]	@ 0x40
10002262:	429d      	cmp	r5, r3
10002264:	dd01      	ble.n	1000226a <exibir_frase_rolagem+0x212>
10002266:	f000 fe40 	bl	10002eea <exibir_frase_rolagem+0xe92>
1000226a:	2200      	movs	r2, #0
1000226c:	2300      	movs	r3, #0
1000226e:	4656      	mov	r6, sl
10002270:	61b2      	str	r2, [r6, #24]
10002272:	61f3      	str	r3, [r6, #28]
10002274:	6c7b      	ldr	r3, [r7, #68]	@ 0x44
10002276:	429d      	cmp	r5, r3
10002278:	dd01      	ble.n	1000227e <exibir_frase_rolagem+0x226>
1000227a:	f000 fc4f 	bl	10002b1c <exibir_frase_rolagem+0xac4>
1000227e:	2200      	movs	r2, #0
10002280:	2300      	movs	r3, #0
10002282:	4656      	mov	r6, sl
10002284:	6232      	str	r2, [r6, #32]
10002286:	6273      	str	r3, [r6, #36]	@ 0x24
10002288:	6bbb      	ldr	r3, [r7, #56]	@ 0x38
1000228a:	681a      	ldr	r2, [r3, #0]
1000228c:	685b      	ldr	r3, [r3, #4]
1000228e:	62b2      	str	r2, [r6, #40]	@ 0x28
10002290:	62f3      	str	r3, [r6, #44]	@ 0x2c
10002292:	4285      	cmp	r5, r0
10002294:	dd01      	ble.n	1000229a <exibir_frase_rolagem+0x242>
10002296:	f000 feb0 	bl	10002ffa <exibir_frase_rolagem+0xfa2>
1000229a:	2200      	movs	r2, #0
1000229c:	2300      	movs	r3, #0
1000229e:	4656      	mov	r6, sl
100022a0:	6332      	str	r2, [r6, #48]	@ 0x30
100022a2:	6373      	str	r3, [r6, #52]	@ 0x34
100022a4:	2200      	movs	r2, #0
100022a6:	2300      	movs	r3, #0
100022a8:	4565      	cmp	r5, ip
100022aa:	dd01      	ble.n	100022b0 <exibir_frase_rolagem+0x258>
100022ac:	f000 fe18 	bl	10002ee0 <exibir_frase_rolagem+0xe88>
100022b0:	4656      	mov	r6, sl
100022b2:	63b2      	str	r2, [r6, #56]	@ 0x38
100022b4:	63f3      	str	r3, [r6, #60]	@ 0x3c
100022b6:	6c3b      	ldr	r3, [r7, #64]	@ 0x40
100022b8:	429d      	cmp	r5, r3
100022ba:	dd01      	ble.n	100022c0 <exibir_frase_rolagem+0x268>
100022bc:	f000 fe0b 	bl	10002ed6 <exibir_frase_rolagem+0xe7e>
100022c0:	2200      	movs	r2, #0
100022c2:	2300      	movs	r3, #0
100022c4:	4656      	mov	r6, sl
100022c6:	6432      	str	r2, [r6, #64]	@ 0x40
100022c8:	6473      	str	r3, [r6, #68]	@ 0x44
100022ca:	6c7b      	ldr	r3, [r7, #68]	@ 0x44
100022cc:	429d      	cmp	r5, r3
100022ce:	dd01      	ble.n	100022d4 <exibir_frase_rolagem+0x27c>
100022d0:	f000 fc1f 	bl	10002b12 <exibir_frase_rolagem+0xaba>
100022d4:	2200      	movs	r2, #0
100022d6:	2300      	movs	r3, #0
100022d8:	4656      	mov	r6, sl
100022da:	64b2      	str	r2, [r6, #72]	@ 0x48
100022dc:	64f3      	str	r3, [r6, #76]	@ 0x4c
100022de:	6b7b      	ldr	r3, [r7, #52]	@ 0x34
100022e0:	681a      	ldr	r2, [r3, #0]
100022e2:	685b      	ldr	r3, [r3, #4]
100022e4:	6532      	str	r2, [r6, #80]	@ 0x50
100022e6:	6573      	str	r3, [r6, #84]	@ 0x54
100022e8:	4285      	cmp	r5, r0
100022ea:	dd01      	ble.n	100022f0 <exibir_frase_rolagem+0x298>
100022ec:	f000 fe80 	bl	10002ff0 <exibir_frase_rolagem+0xf98>
100022f0:	2200      	movs	r2, #0
100022f2:	2300      	movs	r3, #0
100022f4:	4656      	mov	r6, sl
100022f6:	65b2      	str	r2, [r6, #88]	@ 0x58
100022f8:	65f3      	str	r3, [r6, #92]	@ 0x5c
100022fa:	2200      	movs	r2, #0
100022fc:	2300      	movs	r3, #0
100022fe:	4565      	cmp	r5, ip
10002300:	dd01      	ble.n	10002306 <exibir_frase_rolagem+0x2ae>
10002302:	f000 fde3 	bl	10002ecc <exibir_frase_rolagem+0xe74>
10002306:	4656      	mov	r6, sl
10002308:	6632      	str	r2, [r6, #96]	@ 0x60
1000230a:	6673      	str	r3, [r6, #100]	@ 0x64
1000230c:	6c3b      	ldr	r3, [r7, #64]	@ 0x40
1000230e:	429d      	cmp	r5, r3
10002310:	dd01      	ble.n	10002316 <exibir_frase_rolagem+0x2be>
10002312:	f000 fdd6 	bl	10002ec2 <exibir_frase_rolagem+0xe6a>
10002316:	2200      	movs	r2, #0
10002318:	2300      	movs	r3, #0
1000231a:	4656      	mov	r6, sl
1000231c:	66b2      	str	r2, [r6, #104]	@ 0x68
1000231e:	66f3      	str	r3, [r6, #108]	@ 0x6c
10002320:	6c7b      	ldr	r3, [r7, #68]	@ 0x44
10002322:	429d      	cmp	r5, r3
10002324:	dd01      	ble.n	1000232a <exibir_frase_rolagem+0x2d2>
10002326:	f000 fbfe 	bl	10002b26 <exibir_frase_rolagem+0xace>
1000232a:	2200      	movs	r2, #0
1000232c:	2300      	movs	r3, #0
1000232e:	4656      	mov	r6, sl
10002330:	6732      	str	r2, [r6, #112]	@ 0x70
10002332:	6773      	str	r3, [r6, #116]	@ 0x74
10002334:	6afb      	ldr	r3, [r7, #44]	@ 0x2c
10002336:	681a      	ldr	r2, [r3, #0]
10002338:	685b      	ldr	r3, [r3, #4]
1000233a:	67b2      	str	r2, [r6, #120]	@ 0x78
1000233c:	67f3      	str	r3, [r6, #124]	@ 0x7c
1000233e:	4285      	cmp	r5, r0
10002340:	dd01      	ble.n	10002346 <exibir_frase_rolagem+0x2ee>
10002342:	f000 fe28 	bl	10002f96 <exibir_frase_rolagem+0xf3e>
10002346:	2200      	movs	r2, #0
10002348:	2300      	movs	r3, #0
1000234a:	2680      	movs	r6, #128	@ 0x80
1000234c:	2168      	movs	r1, #104	@ 0x68
1000234e:	1871      	adds	r1, r6, r1
10002350:	3e78      	subs	r6, #120	@ 0x78
10002352:	19be      	adds	r6, r7, r6
10002354:	198e      	adds	r6, r1, r6
10002356:	6032      	str	r2, [r6, #0]
10002358:	6073      	str	r3, [r6, #4]
1000235a:	2200      	movs	r2, #0
1000235c:	2300      	movs	r3, #0
1000235e:	4565      	cmp	r5, ip
10002360:	dd01      	ble.n	10002366 <exibir_frase_rolagem+0x30e>
10002362:	f000 fdf7 	bl	10002f54 <exibir_frase_rolagem+0xefc>
10002366:	2688      	movs	r6, #136	@ 0x88
10002368:	2168      	movs	r1, #104	@ 0x68
1000236a:	1871      	adds	r1, r6, r1
1000236c:	3e80      	subs	r6, #128	@ 0x80
1000236e:	19be      	adds	r6, r7, r6
10002370:	198e      	adds	r6, r1, r6
10002372:	6032      	str	r2, [r6, #0]
10002374:	6073      	str	r3, [r6, #4]
10002376:	6c3b      	ldr	r3, [r7, #64]	@ 0x40
10002378:	429d      	cmp	r5, r3
1000237a:	dd01      	ble.n	10002380 <exibir_frase_rolagem+0x328>
1000237c:	f000 fde5 	bl	10002f4a <exibir_frase_rolagem+0xef2>
10002380:	2200      	movs	r2, #0
10002382:	2300      	movs	r3, #0
10002384:	2690      	movs	r6, #144	@ 0x90
10002386:	2168      	movs	r1, #104	@ 0x68
10002388:	1871      	adds	r1, r6, r1
1000238a:	3e88      	subs	r6, #136	@ 0x88
1000238c:	19be      	adds	r6, r7, r6
1000238e:	198e      	adds	r6, r1, r6
10002390:	6032      	str	r2, [r6, #0]
10002392:	6073      	str	r3, [r6, #4]
10002394:	6c7b      	ldr	r3, [r7, #68]	@ 0x44
10002396:	429d      	cmp	r5, r3
10002398:	dd00      	ble.n	1000239c <exibir_frase_rolagem+0x344>
1000239a:	e3b5      	b.n	10002b08 <exibir_frase_rolagem+0xab0>
1000239c:	2200      	movs	r2, #0
1000239e:	2300      	movs	r3, #0
100023a0:	2698      	movs	r6, #152	@ 0x98
100023a2:	2168      	movs	r1, #104	@ 0x68
100023a4:	1871      	adds	r1, r6, r1
100023a6:	3e90      	subs	r6, #144	@ 0x90
100023a8:	19be      	adds	r6, r7, r6
100023aa:	198e      	adds	r6, r1, r6
100023ac:	6032      	str	r2, [r6, #0]
100023ae:	6073      	str	r3, [r6, #4]
100023b0:	6822      	ldr	r2, [r4, #0]
100023b2:	6863      	ldr	r3, [r4, #4]
100023b4:	26a0      	movs	r6, #160	@ 0xa0
100023b6:	3998      	subs	r1, #152	@ 0x98
100023b8:	1876      	adds	r6, r6, r1
100023ba:	3960      	subs	r1, #96	@ 0x60
100023bc:	4688      	mov	r8, r1
100023be:	44b8      	add	r8, r7
100023c0:	4446      	add	r6, r8
100023c2:	6032      	str	r2, [r6, #0]
100023c4:	6073      	str	r3, [r6, #4]
100023c6:	4285      	cmp	r5, r0
100023c8:	dd01      	ble.n	100023ce <exibir_frase_rolagem+0x376>
100023ca:	f000 fdee 	bl	10002faa <exibir_frase_rolagem+0xf52>
100023ce:	2200      	movs	r2, #0
100023d0:	2300      	movs	r3, #0
100023d2:	20a8      	movs	r0, #168	@ 0xa8
100023d4:	2168      	movs	r1, #104	@ 0x68
100023d6:	1841      	adds	r1, r0, r1
100023d8:	38a0      	subs	r0, #160	@ 0xa0
100023da:	1838      	adds	r0, r7, r0
100023dc:	1808      	adds	r0, r1, r0
100023de:	6002      	str	r2, [r0, #0]
100023e0:	6043      	str	r3, [r0, #4]
100023e2:	2200      	movs	r2, #0
100023e4:	2300      	movs	r3, #0
100023e6:	4565      	cmp	r5, ip
100023e8:	dd01      	ble.n	100023ee <exibir_frase_rolagem+0x396>
100023ea:	f000 fdaa 	bl	10002f42 <exibir_frase_rolagem+0xeea>
100023ee:	2068      	movs	r0, #104	@ 0x68
100023f0:	21b0      	movs	r1, #176	@ 0xb0
100023f2:	1809      	adds	r1, r1, r0
100023f4:	3860      	subs	r0, #96	@ 0x60
100023f6:	4684      	mov	ip, r0
100023f8:	44bc      	add	ip, r7
100023fa:	4461      	add	r1, ip
100023fc:	600a      	str	r2, [r1, #0]
100023fe:	604b      	str	r3, [r1, #4]
10002400:	6c3b      	ldr	r3, [r7, #64]	@ 0x40
10002402:	429d      	cmp	r5, r3
10002404:	dd01      	ble.n	1000240a <exibir_frase_rolagem+0x3b2>
10002406:	f000 fd98 	bl	10002f3a <exibir_frase_rolagem+0xee2>
1000240a:	2200      	movs	r2, #0
1000240c:	2300      	movs	r3, #0
1000240e:	2068      	movs	r0, #104	@ 0x68
10002410:	21b8      	movs	r1, #184	@ 0xb8
10002412:	1809      	adds	r1, r1, r0
10002414:	3860      	subs	r0, #96	@ 0x60
10002416:	4684      	mov	ip, r0
10002418:	44bc      	add	ip, r7
1000241a:	4461      	add	r1, ip
1000241c:	600a      	str	r2, [r1, #0]
1000241e:	604b      	str	r3, [r1, #4]
10002420:	6c7b      	ldr	r3, [r7, #68]	@ 0x44
10002422:	429d      	cmp	r5, r3
10002424:	dd00      	ble.n	10002428 <exibir_frase_rolagem+0x3d0>
10002426:	e36c      	b.n	10002b02 <exibir_frase_rolagem+0xaaa>
10002428:	2200      	movs	r2, #0
1000242a:	2300      	movs	r3, #0
1000242c:	2068      	movs	r0, #104	@ 0x68
1000242e:	21c0      	movs	r1, #192	@ 0xc0
10002430:	1809      	adds	r1, r1, r0
10002432:	3860      	subs	r0, #96	@ 0x60
10002434:	4684      	mov	ip, r0
10002436:	44bc      	add	ip, r7
10002438:	4461      	add	r1, ip
1000243a:	600a      	str	r2, [r1, #0]
1000243c:	604b      	str	r3, [r1, #4]
1000243e:	4684      	mov	ip, r0
10002440:	2268      	movs	r2, #104	@ 0x68
10002442:	23f0      	movs	r3, #240	@ 0xf0
10002444:	44bc      	add	ip, r7
10002446:	189b      	adds	r3, r3, r2
10002448:	4463      	add	r3, ip
1000244a:	681a      	ldr	r2, [r3, #0]
1000244c:	685b      	ldr	r3, [r3, #4]
1000244e:	4684      	mov	ip, r0
10002450:	663a      	str	r2, [r7, #96]	@ 0x60
10002452:	667b      	str	r3, [r7, #100]	@ 0x64
10002454:	2268      	movs	r2, #104	@ 0x68
10002456:	23f8      	movs	r3, #248	@ 0xf8
10002458:	2188      	movs	r1, #136	@ 0x88
1000245a:	44bc      	add	ip, r7
1000245c:	189b      	adds	r3, r3, r2
1000245e:	4463      	add	r3, ip
10002460:	681a      	ldr	r2, [r3, #0]
10002462:	685b      	ldr	r3, [r3, #4]
10002464:	653a      	str	r2, [r7, #80]	@ 0x50
10002466:	657b      	str	r3, [r7, #84]	@ 0x54
10002468:	23b4      	movs	r3, #180	@ 0xb4
1000246a:	2208      	movs	r2, #8
1000246c:	0049      	lsls	r1, r1, #1
1000246e:	3060      	adds	r0, #96	@ 0x60
10002470:	000e      	movs	r6, r1
10002472:	1809      	adds	r1, r1, r0
10002474:	4660      	mov	r0, ip
10002476:	005b      	lsls	r3, r3, #1
10002478:	189b      	adds	r3, r3, r2
1000247a:	19db      	adds	r3, r3, r7
1000247c:	1808      	adds	r0, r1, r0
1000247e:	681a      	ldr	r2, [r3, #0]
10002480:	685b      	ldr	r3, [r3, #4]
10002482:	6841      	ldr	r1, [r0, #4]
10002484:	6800      	ldr	r0, [r0, #0]
10002486:	65ba      	str	r2, [r7, #88]	@ 0x58
10002488:	65fb      	str	r3, [r7, #92]	@ 0x5c
1000248a:	2200      	movs	r2, #0
1000248c:	2300      	movs	r3, #0
1000248e:	f002 ffbb 	bl	10005408 <__wrap___aeabi_dcmplt>
10002492:	2200      	movs	r2, #0
10002494:	2300      	movs	r3, #0
10002496:	2800      	cmp	r0, #0
10002498:	d112      	bne.n	100024c0 <exibir_frase_rolagem+0x468>
1000249a:	1831      	adds	r1, r6, r0
1000249c:	1838      	adds	r0, r7, r0
1000249e:	1808      	adds	r0, r1, r0
100024a0:	4bb9      	ldr	r3, [pc, #740]	@ (10002788 <exibir_frase_rolagem+0x730>)
100024a2:	6f41      	ldr	r1, [r0, #116]	@ 0x74
100024a4:	6f00      	ldr	r0, [r0, #112]	@ 0x70
100024a6:	f002 ffc5 	bl	10005434 <__wrap___aeabi_dcmpgt>
100024aa:	2800      	cmp	r0, #0
100024ac:	d000      	beq.n	100024b0 <exibir_frase_rolagem+0x458>
100024ae:	e1f1      	b.n	10002894 <exibir_frase_rolagem+0x83c>
100024b0:	2200      	movs	r2, #0
100024b2:	2300      	movs	r3, #0
100024b4:	4694      	mov	ip, r2
100024b6:	18f3      	adds	r3, r6, r3
100024b8:	44bc      	add	ip, r7
100024ba:	4463      	add	r3, ip
100024bc:	6f1a      	ldr	r2, [r3, #112]	@ 0x70
100024be:	6f5b      	ldr	r3, [r3, #116]	@ 0x74
100024c0:	66ba      	str	r2, [r7, #104]	@ 0x68
100024c2:	66fb      	str	r3, [r7, #108]	@ 0x6c
100024c4:	6e38      	ldr	r0, [r7, #96]	@ 0x60
100024c6:	6e79      	ldr	r1, [r7, #100]	@ 0x64
100024c8:	2200      	movs	r2, #0
100024ca:	4bb0      	ldr	r3, [pc, #704]	@ (1000278c <exibir_frase_rolagem+0x734>)
100024cc:	f002 ffb2 	bl	10005434 <__wrap___aeabi_dcmpgt>
100024d0:	2200      	movs	r2, #0
100024d2:	4bae      	ldr	r3, [pc, #696]	@ (1000278c <exibir_frase_rolagem+0x734>)
100024d4:	2800      	cmp	r0, #0
100024d6:	d100      	bne.n	100024da <exibir_frase_rolagem+0x482>
100024d8:	e126      	b.n	10002728 <exibir_frase_rolagem+0x6d0>
100024da:	6db8      	ldr	r0, [r7, #88]	@ 0x58
100024dc:	6df9      	ldr	r1, [r7, #92]	@ 0x5c
100024de:	f002 ffa9 	bl	10005434 <__wrap___aeabi_dcmpgt>
100024e2:	2200      	movs	r2, #0
100024e4:	4ba9      	ldr	r3, [pc, #676]	@ (1000278c <exibir_frase_rolagem+0x734>)
100024e6:	2800      	cmp	r0, #0
100024e8:	d100      	bne.n	100024ec <exibir_frase_rolagem+0x494>
100024ea:	e1d6      	b.n	1000289a <exibir_frase_rolagem+0x842>
100024ec:	6d38      	ldr	r0, [r7, #80]	@ 0x50
100024ee:	6d79      	ldr	r1, [r7, #84]	@ 0x54
100024f0:	f002 ffa0 	bl	10005434 <__wrap___aeabi_dcmpgt>
100024f4:	2200      	movs	r2, #0
100024f6:	4ba5      	ldr	r3, [pc, #660]	@ (1000278c <exibir_frase_rolagem+0x734>)
100024f8:	663a      	str	r2, [r7, #96]	@ 0x60
100024fa:	667b      	str	r3, [r7, #100]	@ 0x64
100024fc:	2800      	cmp	r0, #0
100024fe:	d100      	bne.n	10002502 <exibir_frase_rolagem+0x4aa>
10002500:	e202      	b.n	10002908 <exibir_frase_rolagem+0x8b0>
10002502:	0010      	movs	r0, r2
10002504:	0019      	movs	r1, r3
10002506:	2200      	movs	r2, #0
10002508:	4ba0      	ldr	r3, [pc, #640]	@ (1000278c <exibir_frase_rolagem+0x734>)
1000250a:	f002 ff24 	bl	10005356 <__wrap___aeabi_ddiv>
1000250e:	2200      	movs	r2, #0
10002510:	4b9d      	ldr	r3, [pc, #628]	@ (10002788 <exibir_frase_rolagem+0x730>)
10002512:	6638      	str	r0, [r7, #96]	@ 0x60
10002514:	6679      	str	r1, [r7, #100]	@ 0x64
10002516:	65ba      	str	r2, [r7, #88]	@ 0x58
10002518:	65fb      	str	r3, [r7, #92]	@ 0x5c
1000251a:	2200      	movs	r2, #0
1000251c:	4b9a      	ldr	r3, [pc, #616]	@ (10002788 <exibir_frase_rolagem+0x730>)
1000251e:	653a      	str	r2, [r7, #80]	@ 0x50
10002520:	657b      	str	r3, [r7, #84]	@ 0x54
10002522:	2300      	movs	r3, #0
10002524:	4699      	mov	r9, r3
10002526:	68fb      	ldr	r3, [r7, #12]
10002528:	2268      	movs	r2, #104	@ 0x68
1000252a:	009b      	lsls	r3, r3, #2
1000252c:	64fb      	str	r3, [r7, #76]	@ 0x4c
1000252e:	2384      	movs	r3, #132	@ 0x84
10002530:	005b      	lsls	r3, r3, #1
10002532:	189b      	adds	r3, r3, r2
10002534:	3a60      	subs	r2, #96	@ 0x60
10002536:	4694      	mov	ip, r2
10002538:	46c8      	mov	r8, r9
1000253a:	44bc      	add	ip, r7
1000253c:	4463      	add	r3, ip
1000253e:	681e      	ldr	r6, [r3, #0]
10002540:	627d      	str	r5, [r7, #36]	@ 0x24
10002542:	623c      	str	r4, [r7, #32]
10002544:	2105      	movs	r1, #5
10002546:	4640      	mov	r0, r8
10002548:	4249      	negs	r1, r1
1000254a:	f002 fc97 	bl	10004e7c <__wrap___aeabi_idiv>
1000254e:	2105      	movs	r1, #5
10002550:	0004      	movs	r4, r0
10002552:	1d05      	adds	r5, r0, #4
10002554:	4640      	mov	r0, r8
10002556:	f002 fc91 	bl	10004e7c <__wrap___aeabi_idiv>
1000255a:	2302      	movs	r3, #2
1000255c:	439c      	bics	r4, r3
1000255e:	3403      	adds	r4, #3
10002560:	d001      	beq.n	10002566 <exibir_frase_rolagem+0x50e>
10002562:	3302      	adds	r3, #2
10002564:	1a59      	subs	r1, r3, r1
10002566:	2200      	movs	r2, #0
10002568:	4691      	mov	r9, r2
1000256a:	4694      	mov	ip, r2
1000256c:	00ab      	lsls	r3, r5, #2
1000256e:	195b      	adds	r3, r3, r5
10002570:	185b      	adds	r3, r3, r1
10002572:	44b9      	add	r9, r7
10002574:	00db      	lsls	r3, r3, #3
10002576:	44cc      	add	ip, r9
10002578:	189b      	adds	r3, r3, r2
1000257a:	4463      	add	r3, ip
1000257c:	6f1c      	ldr	r4, [r3, #112]	@ 0x70
1000257e:	6f5d      	ldr	r5, [r3, #116]	@ 0x74
10002580:	6d3a      	ldr	r2, [r7, #80]	@ 0x50
10002582:	6d7b      	ldr	r3, [r7, #84]	@ 0x54
10002584:	0020      	movs	r0, r4
10002586:	0029      	movs	r1, r5
10002588:	f002 feff 	bl	1000538a <__wrap___aeabi_dmul>
1000258c:	6eba      	ldr	r2, [r7, #104]	@ 0x68
1000258e:	6efb      	ldr	r3, [r7, #108]	@ 0x6c
10002590:	f002 fefb 	bl	1000538a <__wrap___aeabi_dmul>
10002594:	2200      	movs	r2, #0
10002596:	4b7d      	ldr	r3, [pc, #500]	@ (1000278c <exibir_frase_rolagem+0x734>)
10002598:	f002 fef7 	bl	1000538a <__wrap___aeabi_dmul>
1000259c:	f002 ff9c 	bl	100054d8 <__wrap___aeabi_d2uiz>
100025a0:	0603      	lsls	r3, r0, #24
100025a2:	4699      	mov	r9, r3
100025a4:	6e3a      	ldr	r2, [r7, #96]	@ 0x60
100025a6:	6e7b      	ldr	r3, [r7, #100]	@ 0x64
100025a8:	0020      	movs	r0, r4
100025aa:	0029      	movs	r1, r5
100025ac:	f002 feed 	bl	1000538a <__wrap___aeabi_dmul>
100025b0:	6eba      	ldr	r2, [r7, #104]	@ 0x68
100025b2:	6efb      	ldr	r3, [r7, #108]	@ 0x6c
100025b4:	f002 fee9 	bl	1000538a <__wrap___aeabi_dmul>
100025b8:	2200      	movs	r2, #0
100025ba:	4b74      	ldr	r3, [pc, #464]	@ (1000278c <exibir_frase_rolagem+0x734>)
100025bc:	f002 fee5 	bl	1000538a <__wrap___aeabi_dmul>
100025c0:	f002 ff8a 	bl	100054d8 <__wrap___aeabi_d2uiz>
100025c4:	464b      	mov	r3, r9
100025c6:	b2c0      	uxtb	r0, r0
100025c8:	0400      	lsls	r0, r0, #16
100025ca:	4303      	orrs	r3, r0
100025cc:	4699      	mov	r9, r3
100025ce:	6dba      	ldr	r2, [r7, #88]	@ 0x58
100025d0:	6dfb      	ldr	r3, [r7, #92]	@ 0x5c
100025d2:	0020      	movs	r0, r4
100025d4:	0029      	movs	r1, r5
100025d6:	f002 fed8 	bl	1000538a <__wrap___aeabi_dmul>
100025da:	6eba      	ldr	r2, [r7, #104]	@ 0x68
100025dc:	6efb      	ldr	r3, [r7, #108]	@ 0x6c
100025de:	f002 fed4 	bl	1000538a <__wrap___aeabi_dmul>
100025e2:	2200      	movs	r2, #0
100025e4:	4b69      	ldr	r3, [pc, #420]	@ (1000278c <exibir_frase_rolagem+0x734>)
100025e6:	f002 fed0 	bl	1000538a <__wrap___aeabi_dmul>
100025ea:	f002 ff75 	bl	100054d8 <__wrap___aeabi_d2uiz>
100025ee:	464b      	mov	r3, r9
100025f0:	465a      	mov	r2, fp
100025f2:	b2c0      	uxtb	r0, r0
100025f4:	0200      	lsls	r0, r0, #8
100025f6:	4318      	orrs	r0, r3
100025f8:	6873      	ldr	r3, [r6, #4]
100025fa:	421a      	tst	r2, r3
100025fc:	d1fc      	bne.n	100025f8 <exibir_frase_rolagem+0x5a0>
100025fe:	6cfb      	ldr	r3, [r7, #76]	@ 0x4c
10002600:	4693      	mov	fp, r2
10002602:	5198      	str	r0, [r3, r6]
10002604:	2301      	movs	r3, #1
10002606:	469c      	mov	ip, r3
10002608:	44e0      	add	r8, ip
1000260a:	4643      	mov	r3, r8
1000260c:	2b19      	cmp	r3, #25
1000260e:	d199      	bne.n	10002544 <exibir_frase_rolagem+0x4ec>
10002610:	2268      	movs	r2, #104	@ 0x68
10002612:	33ef      	adds	r3, #239	@ 0xef
10002614:	189b      	adds	r3, r3, r2
10002616:	3a60      	subs	r2, #96	@ 0x60
10002618:	4694      	mov	ip, r2
1000261a:	44bc      	add	ip, r7
1000261c:	4463      	add	r3, ip
1000261e:	601e      	str	r6, [r3, #0]
10002620:	23d0      	movs	r3, #208	@ 0xd0
10002622:	061b      	lsls	r3, r3, #24
10002624:	685b      	ldr	r3, [r3, #4]
10002626:	6a7d      	ldr	r5, [r7, #36]	@ 0x24
10002628:	6a3c      	ldr	r4, [r7, #32]
1000262a:	069b      	lsls	r3, r3, #26
1000262c:	d400      	bmi.n	10002630 <exibir_frase_rolagem+0x5d8>
1000262e:	e2e9      	b.n	10002c04 <exibir_frase_rolagem+0xbac>
10002630:	238c      	movs	r3, #140	@ 0x8c
10002632:	2268      	movs	r2, #104	@ 0x68
10002634:	005b      	lsls	r3, r3, #1
10002636:	189b      	adds	r3, r3, r2
10002638:	3a60      	subs	r2, #96	@ 0x60
1000263a:	4694      	mov	ip, r2
1000263c:	44bc      	add	ip, r7
1000263e:	4463      	add	r3, ip
10002640:	6818      	ldr	r0, [r3, #0]
10002642:	f001 fdf7 	bl	10004234 <sleep_ms>
10002646:	6c7a      	ldr	r2, [r7, #68]	@ 0x44
10002648:	6abb      	ldr	r3, [r7, #40]	@ 0x28
1000264a:	3201      	adds	r2, #1
1000264c:	647a      	str	r2, [r7, #68]	@ 0x44
1000264e:	6afa      	ldr	r2, [r7, #44]	@ 0x2c
10002650:	3301      	adds	r3, #1
10002652:	3208      	adds	r2, #8
10002654:	62fa      	str	r2, [r7, #44]	@ 0x2c
10002656:	6b7a      	ldr	r2, [r7, #52]	@ 0x34
10002658:	62bb      	str	r3, [r7, #40]	@ 0x28
1000265a:	3208      	adds	r2, #8
1000265c:	637a      	str	r2, [r7, #52]	@ 0x34
1000265e:	6bba      	ldr	r2, [r7, #56]	@ 0x38
10002660:	3408      	adds	r4, #8
10002662:	3208      	adds	r2, #8
10002664:	63ba      	str	r2, [r7, #56]	@ 0x38
10002666:	6b3a      	ldr	r2, [r7, #48]	@ 0x30
10002668:	3208      	adds	r2, #8
1000266a:	633a      	str	r2, [r7, #48]	@ 0x30
1000266c:	6c3a      	ldr	r2, [r7, #64]	@ 0x40
1000266e:	3201      	adds	r2, #1
10002670:	643a      	str	r2, [r7, #64]	@ 0x40
10002672:	429d      	cmp	r5, r3
10002674:	d000      	beq.n	10002678 <exibir_frase_rolagem+0x620>
10002676:	e5cd      	b.n	10002214 <exibir_frase_rolagem+0x1bc>
10002678:	68bb      	ldr	r3, [r7, #8]
1000267a:	2268      	movs	r2, #104	@ 0x68
1000267c:	469b      	mov	fp, r3
1000267e:	23f8      	movs	r3, #248	@ 0xf8
10002680:	189b      	adds	r3, r3, r2
10002682:	3a60      	subs	r2, #96	@ 0x60
10002684:	18ba      	adds	r2, r7, r2
10002686:	4c42      	ldr	r4, [pc, #264]	@ (10002790 <exibir_frase_rolagem+0x738>)
10002688:	189d      	adds	r5, r3, r2
1000268a:	69f8      	ldr	r0, [r7, #28]
1000268c:	f003 f858 	bl	10005740 <__wrap_free>
10002690:	2388      	movs	r3, #136	@ 0x88
10002692:	2268      	movs	r2, #104	@ 0x68
10002694:	005b      	lsls	r3, r3, #1
10002696:	189b      	adds	r3, r3, r2
10002698:	3a60      	subs	r2, #96	@ 0x60
1000269a:	4694      	mov	ip, r2
1000269c:	44bc      	add	ip, r7
1000269e:	4463      	add	r3, ip
100026a0:	681a      	ldr	r2, [r3, #0]
100026a2:	685b      	ldr	r3, [r3, #4]
100026a4:	9206      	str	r2, [sp, #24]
100026a6:	9307      	str	r3, [sp, #28]
100026a8:	2386      	movs	r3, #134	@ 0x86
100026aa:	2268      	movs	r2, #104	@ 0x68
100026ac:	005b      	lsls	r3, r3, #1
100026ae:	189b      	adds	r3, r3, r2
100026b0:	3a60      	subs	r2, #96	@ 0x60
100026b2:	4694      	mov	ip, r2
100026b4:	44bc      	add	ip, r7
100026b6:	4463      	add	r3, ip
100026b8:	681b      	ldr	r3, [r3, #0]
100026ba:	3260      	adds	r2, #96	@ 0x60
100026bc:	9305      	str	r3, [sp, #20]
100026be:	2384      	movs	r3, #132	@ 0x84
100026c0:	005b      	lsls	r3, r3, #1
100026c2:	189b      	adds	r3, r3, r2
100026c4:	3a60      	subs	r2, #96	@ 0x60
100026c6:	4694      	mov	ip, r2
100026c8:	44bc      	add	ip, r7
100026ca:	4463      	add	r3, ip
100026cc:	681b      	ldr	r3, [r3, #0]
100026ce:	0029      	movs	r1, r5
100026d0:	9304      	str	r3, [sp, #16]
100026d2:	4668      	mov	r0, sp
100026d4:	3208      	adds	r2, #8
100026d6:	f003 f845 	bl	10005764 <__wrap___aeabi_memcpy>
100026da:	2268      	movs	r2, #104	@ 0x68
100026dc:	23f0      	movs	r3, #240	@ 0xf0
100026de:	189b      	adds	r3, r3, r2
100026e0:	3a60      	subs	r2, #96	@ 0x60
100026e2:	4694      	mov	ip, r2
100026e4:	44bc      	add	ip, r7
100026e6:	4463      	add	r3, ip
100026e8:	2168      	movs	r1, #104	@ 0x68
100026ea:	681a      	ldr	r2, [r3, #0]
100026ec:	23f4      	movs	r3, #244	@ 0xf4
100026ee:	185b      	adds	r3, r3, r1
100026f0:	3960      	subs	r1, #96	@ 0x60
100026f2:	468c      	mov	ip, r1
100026f4:	44bc      	add	ip, r7
100026f6:	4463      	add	r3, ip
100026f8:	0020      	movs	r0, r4
100026fa:	681b      	ldr	r3, [r3, #0]
100026fc:	f7ff faf2 	bl	10001ce4 <exibir_frame>
10002700:	46dd      	mov	sp, fp
10002702:	e006      	b.n	10002712 <exibir_frase_rolagem+0x6ba>
10002704:	4823      	ldr	r0, [pc, #140]	@ (10002794 <exibir_frase_rolagem+0x73c>)
10002706:	f004 fe71 	bl	100073ec <__wrap_puts>
1000270a:	69f8      	ldr	r0, [r7, #28]
1000270c:	f003 f818 	bl	10005740 <__wrap_free>
10002710:	46dd      	mov	sp, fp
10002712:	46bd      	mov	sp, r7
10002714:	b04f      	add	sp, #316	@ 0x13c
10002716:	bcf0      	pop	{r4, r5, r6, r7}
10002718:	46bb      	mov	fp, r7
1000271a:	46b2      	mov	sl, r6
1000271c:	46a9      	mov	r9, r5
1000271e:	46a0      	mov	r8, r4
10002720:	bcf0      	pop	{r4, r5, r6, r7}
10002722:	bc08      	pop	{r3}
10002724:	b002      	add	sp, #8
10002726:	4718      	bx	r3
10002728:	6db8      	ldr	r0, [r7, #88]	@ 0x58
1000272a:	6df9      	ldr	r1, [r7, #92]	@ 0x5c
1000272c:	f002 fe82 	bl	10005434 <__wrap___aeabi_dcmpgt>
10002730:	2200      	movs	r2, #0
10002732:	4b16      	ldr	r3, [pc, #88]	@ (1000278c <exibir_frase_rolagem+0x734>)
10002734:	2800      	cmp	r0, #0
10002736:	d100      	bne.n	1000273a <exibir_frase_rolagem+0x6e2>
10002738:	e0cb      	b.n	100028d2 <exibir_frase_rolagem+0x87a>
1000273a:	6d38      	ldr	r0, [r7, #80]	@ 0x50
1000273c:	6d79      	ldr	r1, [r7, #84]	@ 0x54
1000273e:	f002 fe79 	bl	10005434 <__wrap___aeabi_dcmpgt>
10002742:	2800      	cmp	r0, #0
10002744:	d100      	bne.n	10002748 <exibir_frase_rolagem+0x6f0>
10002746:	e0df      	b.n	10002908 <exibir_frase_rolagem+0x8b0>
10002748:	6e38      	ldr	r0, [r7, #96]	@ 0x60
1000274a:	6e79      	ldr	r1, [r7, #100]	@ 0x64
1000274c:	2200      	movs	r2, #0
1000274e:	2300      	movs	r3, #0
10002750:	f002 fe5a 	bl	10005408 <__wrap___aeabi_dcmplt>
10002754:	2800      	cmp	r0, #0
10002756:	d101      	bne.n	1000275c <exibir_frase_rolagem+0x704>
10002758:	f000 fbde 	bl	10002f18 <exibir_frase_rolagem+0xec0>
1000275c:	2200      	movs	r2, #0
1000275e:	4b0b      	ldr	r3, [pc, #44]	@ (1000278c <exibir_frase_rolagem+0x734>)
10002760:	0010      	movs	r0, r2
10002762:	0019      	movs	r1, r3
10002764:	65ba      	str	r2, [r7, #88]	@ 0x58
10002766:	65fb      	str	r3, [r7, #92]	@ 0x5c
10002768:	2200      	movs	r2, #0
1000276a:	4b08      	ldr	r3, [pc, #32]	@ (1000278c <exibir_frase_rolagem+0x734>)
1000276c:	f002 fdf3 	bl	10005356 <__wrap___aeabi_ddiv>
10002770:	2200      	movs	r2, #0
10002772:	4b05      	ldr	r3, [pc, #20]	@ (10002788 <exibir_frase_rolagem+0x730>)
10002774:	65b8      	str	r0, [r7, #88]	@ 0x58
10002776:	65f9      	str	r1, [r7, #92]	@ 0x5c
10002778:	653a      	str	r2, [r7, #80]	@ 0x50
1000277a:	657b      	str	r3, [r7, #84]	@ 0x54
1000277c:	2200      	movs	r2, #0
1000277e:	2300      	movs	r3, #0
10002780:	663a      	str	r2, [r7, #96]	@ 0x60
10002782:	667b      	str	r3, [r7, #100]	@ 0x64
10002784:	e6cd      	b.n	10002522 <exibir_frase_rolagem+0x4ca>
10002786:	46c0      	nop			@ (mov r8, r8)
10002788:	3ff00000 	.word	0x3ff00000
1000278c:	406fe000 	.word	0x406fe000
10002790:	20003de8 	.word	0x20003de8
10002794:	1000b584 	.word	0x1000b584
10002798:	1c53      	adds	r3, r2, #1
1000279a:	d100      	bne.n	1000279e <exibir_frase_rolagem+0x746>
1000279c:	e0f0      	b.n	10002980 <exibir_frase_rolagem+0x928>
1000279e:	1c93      	adds	r3, r2, #2
100027a0:	d000      	beq.n	100027a4 <exibir_frase_rolagem+0x74c>
100027a2:	e1d0      	b.n	10002b46 <exibir_frase_rolagem+0xaee>
100027a4:	4650      	mov	r0, sl
100027a6:	6bf9      	ldr	r1, [r7, #60]	@ 0x3c
100027a8:	680a      	ldr	r2, [r1, #0]
100027aa:	684b      	ldr	r3, [r1, #4]
100027ac:	6102      	str	r2, [r0, #16]
100027ae:	6143      	str	r3, [r0, #20]
100027b0:	688a      	ldr	r2, [r1, #8]
100027b2:	68cb      	ldr	r3, [r1, #12]
100027b4:	6182      	str	r2, [r0, #24]
100027b6:	61c3      	str	r3, [r0, #28]
100027b8:	6c7b      	ldr	r3, [r7, #68]	@ 0x44
100027ba:	429d      	cmp	r5, r3
100027bc:	dd00      	ble.n	100027c0 <exibir_frase_rolagem+0x768>
100027be:	e2da      	b.n	10002d76 <exibir_frase_rolagem+0xd1e>
100027c0:	2200      	movs	r2, #0
100027c2:	2300      	movs	r3, #0
100027c4:	6202      	str	r2, [r0, #32]
100027c6:	6243      	str	r3, [r0, #36]	@ 0x24
100027c8:	6bf8      	ldr	r0, [r7, #60]	@ 0x3c
100027ca:	6cbb      	ldr	r3, [r7, #72]	@ 0x48
100027cc:	0001      	movs	r1, r0
100027ce:	469c      	mov	ip, r3
100027d0:	4656      	mov	r6, sl
100027d2:	4461      	add	r1, ip
100027d4:	680a      	ldr	r2, [r1, #0]
100027d6:	684b      	ldr	r3, [r1, #4]
100027d8:	63b2      	str	r2, [r6, #56]	@ 0x38
100027da:	63f3      	str	r3, [r6, #60]	@ 0x3c
100027dc:	688a      	ldr	r2, [r1, #8]
100027de:	68cb      	ldr	r3, [r1, #12]
100027e0:	6432      	str	r2, [r6, #64]	@ 0x40
100027e2:	6473      	str	r3, [r6, #68]	@ 0x44
100027e4:	2200      	movs	r2, #0
100027e6:	2300      	movs	r3, #0
100027e8:	64b2      	str	r2, [r6, #72]	@ 0x48
100027ea:	64f3      	str	r3, [r6, #76]	@ 0x4c
100027ec:	693b      	ldr	r3, [r7, #16]
100027ee:	0001      	movs	r1, r0
100027f0:	469c      	mov	ip, r3
100027f2:	4461      	add	r1, ip
100027f4:	680a      	ldr	r2, [r1, #0]
100027f6:	684b      	ldr	r3, [r1, #4]
100027f8:	6632      	str	r2, [r6, #96]	@ 0x60
100027fa:	6673      	str	r3, [r6, #100]	@ 0x64
100027fc:	688a      	ldr	r2, [r1, #8]
100027fe:	68cb      	ldr	r3, [r1, #12]
10002800:	66b2      	str	r2, [r6, #104]	@ 0x68
10002802:	66f3      	str	r3, [r6, #108]	@ 0x6c
10002804:	2200      	movs	r2, #0
10002806:	2300      	movs	r3, #0
10002808:	4684      	mov	ip, r0
1000280a:	6732      	str	r2, [r6, #112]	@ 0x70
1000280c:	6773      	str	r3, [r6, #116]	@ 0x74
1000280e:	69bb      	ldr	r3, [r7, #24]
10002810:	2688      	movs	r6, #136	@ 0x88
10002812:	1959      	adds	r1, r3, r5
10002814:	00c9      	lsls	r1, r1, #3
10002816:	4461      	add	r1, ip
10002818:	680a      	ldr	r2, [r1, #0]
1000281a:	684b      	ldr	r3, [r1, #4]
1000281c:	603a      	str	r2, [r7, #0]
1000281e:	607b      	str	r3, [r7, #4]
10002820:	2368      	movs	r3, #104	@ 0x68
10002822:	18f6      	adds	r6, r6, r3
10002824:	3b60      	subs	r3, #96	@ 0x60
10002826:	469c      	mov	ip, r3
10002828:	683a      	ldr	r2, [r7, #0]
1000282a:	687b      	ldr	r3, [r7, #4]
1000282c:	44bc      	add	ip, r7
1000282e:	4466      	add	r6, ip
10002830:	6032      	str	r2, [r6, #0]
10002832:	6073      	str	r3, [r6, #4]
10002834:	688a      	ldr	r2, [r1, #8]
10002836:	68cb      	ldr	r3, [r1, #12]
10002838:	2668      	movs	r6, #104	@ 0x68
1000283a:	2190      	movs	r1, #144	@ 0x90
1000283c:	1989      	adds	r1, r1, r6
1000283e:	3e60      	subs	r6, #96	@ 0x60
10002840:	46b4      	mov	ip, r6
10002842:	44bc      	add	ip, r7
10002844:	4461      	add	r1, ip
10002846:	600a      	str	r2, [r1, #0]
10002848:	604b      	str	r3, [r1, #4]
1000284a:	2268      	movs	r2, #104	@ 0x68
1000284c:	2398      	movs	r3, #152	@ 0x98
1000284e:	189b      	adds	r3, r3, r2
10002850:	4662      	mov	r2, ip
10002852:	1899      	adds	r1, r3, r2
10002854:	2200      	movs	r2, #0
10002856:	2300      	movs	r3, #0
10002858:	4684      	mov	ip, r0
1000285a:	20b0      	movs	r0, #176	@ 0xb0
1000285c:	600a      	str	r2, [r1, #0]
1000285e:	604b      	str	r3, [r1, #4]
10002860:	3660      	adds	r6, #96	@ 0x60
10002862:	6979      	ldr	r1, [r7, #20]
10002864:	1980      	adds	r0, r0, r6
10002866:	3e60      	subs	r6, #96	@ 0x60
10002868:	4461      	add	r1, ip
1000286a:	46b4      	mov	ip, r6
1000286c:	680a      	ldr	r2, [r1, #0]
1000286e:	684b      	ldr	r3, [r1, #4]
10002870:	44bc      	add	ip, r7
10002872:	4460      	add	r0, ip
10002874:	6002      	str	r2, [r0, #0]
10002876:	6043      	str	r3, [r0, #4]
10002878:	688a      	ldr	r2, [r1, #8]
1000287a:	68cb      	ldr	r3, [r1, #12]
1000287c:	2068      	movs	r0, #104	@ 0x68
1000287e:	21b8      	movs	r1, #184	@ 0xb8
10002880:	1809      	adds	r1, r1, r0
10002882:	3860      	subs	r0, #96	@ 0x60
10002884:	4684      	mov	ip, r0
10002886:	44bc      	add	ip, r7
10002888:	4461      	add	r1, ip
1000288a:	600a      	str	r2, [r1, #0]
1000288c:	604b      	str	r3, [r1, #4]
1000288e:	2200      	movs	r2, #0
10002890:	2300      	movs	r3, #0
10002892:	e5cb      	b.n	1000242c <exibir_frase_rolagem+0x3d4>
10002894:	2200      	movs	r2, #0
10002896:	4bd9      	ldr	r3, [pc, #868]	@ (10002bfc <exibir_frase_rolagem+0xba4>)
10002898:	e612      	b.n	100024c0 <exibir_frase_rolagem+0x468>
1000289a:	6d38      	ldr	r0, [r7, #80]	@ 0x50
1000289c:	6d79      	ldr	r1, [r7, #84]	@ 0x54
1000289e:	f002 fdc9 	bl	10005434 <__wrap___aeabi_dcmpgt>
100028a2:	2200      	movs	r2, #0
100028a4:	4bd5      	ldr	r3, [pc, #852]	@ (10002bfc <exibir_frase_rolagem+0xba4>)
100028a6:	663a      	str	r2, [r7, #96]	@ 0x60
100028a8:	667b      	str	r3, [r7, #100]	@ 0x64
100028aa:	2800      	cmp	r0, #0
100028ac:	d05a      	beq.n	10002964 <exibir_frase_rolagem+0x90c>
100028ae:	6db8      	ldr	r0, [r7, #88]	@ 0x58
100028b0:	6df9      	ldr	r1, [r7, #92]	@ 0x5c
100028b2:	2200      	movs	r2, #0
100028b4:	2300      	movs	r3, #0
100028b6:	f002 fda7 	bl	10005408 <__wrap___aeabi_dcmplt>
100028ba:	2200      	movs	r2, #0
100028bc:	2800      	cmp	r0, #0
100028be:	d100      	bne.n	100028c2 <exibir_frase_rolagem+0x86a>
100028c0:	e194      	b.n	10002bec <exibir_frase_rolagem+0xb94>
100028c2:	4bce      	ldr	r3, [pc, #824]	@ (10002bfc <exibir_frase_rolagem+0xba4>)
100028c4:	653a      	str	r2, [r7, #80]	@ 0x50
100028c6:	657b      	str	r3, [r7, #84]	@ 0x54
100028c8:	2200      	movs	r2, #0
100028ca:	2300      	movs	r3, #0
100028cc:	65ba      	str	r2, [r7, #88]	@ 0x58
100028ce:	65fb      	str	r3, [r7, #92]	@ 0x5c
100028d0:	e627      	b.n	10002522 <exibir_frase_rolagem+0x4ca>
100028d2:	6d38      	ldr	r0, [r7, #80]	@ 0x50
100028d4:	6d79      	ldr	r1, [r7, #84]	@ 0x54
100028d6:	f002 fdad 	bl	10005434 <__wrap___aeabi_dcmpgt>
100028da:	2200      	movs	r2, #0
100028dc:	2300      	movs	r3, #0
100028de:	2800      	cmp	r0, #0
100028e0:	d035      	beq.n	1000294e <exibir_frase_rolagem+0x8f6>
100028e2:	6e38      	ldr	r0, [r7, #96]	@ 0x60
100028e4:	6e79      	ldr	r1, [r7, #100]	@ 0x64
100028e6:	f002 fd8f 	bl	10005408 <__wrap___aeabi_dcmplt>
100028ea:	2200      	movs	r2, #0
100028ec:	2800      	cmp	r0, #0
100028ee:	d100      	bne.n	100028f2 <exibir_frase_rolagem+0x89a>
100028f0:	e1c9      	b.n	10002c86 <exibir_frase_rolagem+0xc2e>
100028f2:	6db8      	ldr	r0, [r7, #88]	@ 0x58
100028f4:	6df9      	ldr	r1, [r7, #92]	@ 0x5c
100028f6:	2300      	movs	r3, #0
100028f8:	f002 fd86 	bl	10005408 <__wrap___aeabi_dcmplt>
100028fc:	2800      	cmp	r0, #0
100028fe:	d100      	bne.n	10002902 <exibir_frase_rolagem+0x8aa>
10002900:	e1c9      	b.n	10002c96 <exibir_frase_rolagem+0xc3e>
10002902:	2000      	movs	r0, #0
10002904:	2100      	movs	r1, #0
10002906:	e72f      	b.n	10002768 <exibir_frase_rolagem+0x710>
10002908:	2200      	movs	r2, #0
1000290a:	6e38      	ldr	r0, [r7, #96]	@ 0x60
1000290c:	6e79      	ldr	r1, [r7, #100]	@ 0x64
1000290e:	2300      	movs	r3, #0
10002910:	f002 fd7a 	bl	10005408 <__wrap___aeabi_dcmplt>
10002914:	2800      	cmp	r0, #0
10002916:	d000      	beq.n	1000291a <exibir_frase_rolagem+0x8c2>
10002918:	e10a      	b.n	10002b30 <exibir_frase_rolagem+0xad8>
1000291a:	6e38      	ldr	r0, [r7, #96]	@ 0x60
1000291c:	6e79      	ldr	r1, [r7, #100]	@ 0x64
1000291e:	2200      	movs	r2, #0
10002920:	4bb7      	ldr	r3, [pc, #732]	@ (10002c00 <exibir_frase_rolagem+0xba8>)
10002922:	f002 fd18 	bl	10005356 <__wrap___aeabi_ddiv>
10002926:	2200      	movs	r2, #0
10002928:	4bb4      	ldr	r3, [pc, #720]	@ (10002bfc <exibir_frase_rolagem+0xba4>)
1000292a:	6638      	str	r0, [r7, #96]	@ 0x60
1000292c:	6679      	str	r1, [r7, #100]	@ 0x64
1000292e:	65ba      	str	r2, [r7, #88]	@ 0x58
10002930:	65fb      	str	r3, [r7, #92]	@ 0x5c
10002932:	6d38      	ldr	r0, [r7, #80]	@ 0x50
10002934:	6d79      	ldr	r1, [r7, #84]	@ 0x54
10002936:	2200      	movs	r2, #0
10002938:	2300      	movs	r3, #0
1000293a:	f002 fd65 	bl	10005408 <__wrap___aeabi_dcmplt>
1000293e:	2200      	movs	r2, #0
10002940:	2800      	cmp	r0, #0
10002942:	d100      	bne.n	10002946 <exibir_frase_rolagem+0x8ee>
10002944:	e0f7      	b.n	10002b36 <exibir_frase_rolagem+0xade>
10002946:	2300      	movs	r3, #0
10002948:	653a      	str	r2, [r7, #80]	@ 0x50
1000294a:	657b      	str	r3, [r7, #84]	@ 0x54
1000294c:	e5e9      	b.n	10002522 <exibir_frase_rolagem+0x4ca>
1000294e:	6e38      	ldr	r0, [r7, #96]	@ 0x60
10002950:	6e79      	ldr	r1, [r7, #100]	@ 0x64
10002952:	f002 fd59 	bl	10005408 <__wrap___aeabi_dcmplt>
10002956:	2200      	movs	r2, #0
10002958:	2800      	cmp	r0, #0
1000295a:	d100      	bne.n	1000295e <exibir_frase_rolagem+0x906>
1000295c:	e2e5      	b.n	10002f2a <exibir_frase_rolagem+0xed2>
1000295e:	2300      	movs	r3, #0
10002960:	663a      	str	r2, [r7, #96]	@ 0x60
10002962:	667b      	str	r3, [r7, #100]	@ 0x64
10002964:	6db8      	ldr	r0, [r7, #88]	@ 0x58
10002966:	6df9      	ldr	r1, [r7, #92]	@ 0x5c
10002968:	2200      	movs	r2, #0
1000296a:	2300      	movs	r3, #0
1000296c:	f002 fd4c 	bl	10005408 <__wrap___aeabi_dcmplt>
10002970:	2200      	movs	r2, #0
10002972:	2800      	cmp	r0, #0
10002974:	d100      	bne.n	10002978 <exibir_frase_rolagem+0x920>
10002976:	e1ca      	b.n	10002d0e <exibir_frase_rolagem+0xcb6>
10002978:	2300      	movs	r3, #0
1000297a:	65ba      	str	r2, [r7, #88]	@ 0x58
1000297c:	65fb      	str	r3, [r7, #92]	@ 0x5c
1000297e:	e7d8      	b.n	10002932 <exibir_frase_rolagem+0x8da>
10002980:	4650      	mov	r0, sl
10002982:	6bf9      	ldr	r1, [r7, #60]	@ 0x3c
10002984:	680a      	ldr	r2, [r1, #0]
10002986:	684b      	ldr	r3, [r1, #4]
10002988:	6082      	str	r2, [r0, #8]
1000298a:	60c3      	str	r3, [r0, #12]
1000298c:	688a      	ldr	r2, [r1, #8]
1000298e:	68cb      	ldr	r3, [r1, #12]
10002990:	6102      	str	r2, [r0, #16]
10002992:	6143      	str	r3, [r0, #20]
10002994:	6c3b      	ldr	r3, [r7, #64]	@ 0x40
10002996:	429d      	cmp	r5, r3
10002998:	dd00      	ble.n	1000299c <exibir_frase_rolagem+0x944>
1000299a:	e2f0      	b.n	10002f7e <exibir_frase_rolagem+0xf26>
1000299c:	4653      	mov	r3, sl
1000299e:	2000      	movs	r0, #0
100029a0:	2100      	movs	r1, #0
100029a2:	6198      	str	r0, [r3, #24]
100029a4:	61d9      	str	r1, [r3, #28]
100029a6:	6c7b      	ldr	r3, [r7, #68]	@ 0x44
100029a8:	42ab      	cmp	r3, r5
100029aa:	db00      	blt.n	100029ae <exibir_frase_rolagem+0x956>
100029ac:	e198      	b.n	10002ce0 <exibir_frase_rolagem+0xc88>
100029ae:	6b3b      	ldr	r3, [r7, #48]	@ 0x30
100029b0:	6a1a      	ldr	r2, [r3, #32]
100029b2:	6a5b      	ldr	r3, [r3, #36]	@ 0x24
100029b4:	4651      	mov	r1, sl
100029b6:	620a      	str	r2, [r1, #32]
100029b8:	624b      	str	r3, [r1, #36]	@ 0x24
100029ba:	6cbb      	ldr	r3, [r7, #72]	@ 0x48
100029bc:	4650      	mov	r0, sl
100029be:	469c      	mov	ip, r3
100029c0:	6bf9      	ldr	r1, [r7, #60]	@ 0x3c
100029c2:	4461      	add	r1, ip
100029c4:	680a      	ldr	r2, [r1, #0]
100029c6:	684b      	ldr	r3, [r1, #4]
100029c8:	6302      	str	r2, [r0, #48]	@ 0x30
100029ca:	6343      	str	r3, [r0, #52]	@ 0x34
100029cc:	688a      	ldr	r2, [r1, #8]
100029ce:	68cb      	ldr	r3, [r1, #12]
100029d0:	6382      	str	r2, [r0, #56]	@ 0x38
100029d2:	63c3      	str	r3, [r0, #60]	@ 0x3c
100029d4:	6c3b      	ldr	r3, [r7, #64]	@ 0x40
100029d6:	2000      	movs	r0, #0
100029d8:	2100      	movs	r1, #0
100029da:	429d      	cmp	r5, r3
100029dc:	dd00      	ble.n	100029e0 <exibir_frase_rolagem+0x988>
100029de:	e303      	b.n	10002fe8 <exibir_frase_rolagem+0xf90>
100029e0:	4653      	mov	r3, sl
100029e2:	6418      	str	r0, [r3, #64]	@ 0x40
100029e4:	6459      	str	r1, [r3, #68]	@ 0x44
100029e6:	6c7b      	ldr	r3, [r7, #68]	@ 0x44
100029e8:	429d      	cmp	r5, r3
100029ea:	dc00      	bgt.n	100029ee <exibir_frase_rolagem+0x996>
100029ec:	e175      	b.n	10002cda <exibir_frase_rolagem+0xc82>
100029ee:	6bbb      	ldr	r3, [r7, #56]	@ 0x38
100029f0:	6a1a      	ldr	r2, [r3, #32]
100029f2:	6a5b      	ldr	r3, [r3, #36]	@ 0x24
100029f4:	4651      	mov	r1, sl
100029f6:	648a      	str	r2, [r1, #72]	@ 0x48
100029f8:	64cb      	str	r3, [r1, #76]	@ 0x4c
100029fa:	693b      	ldr	r3, [r7, #16]
100029fc:	4650      	mov	r0, sl
100029fe:	469c      	mov	ip, r3
10002a00:	6bf9      	ldr	r1, [r7, #60]	@ 0x3c
10002a02:	4461      	add	r1, ip
10002a04:	680a      	ldr	r2, [r1, #0]
10002a06:	684b      	ldr	r3, [r1, #4]
10002a08:	6582      	str	r2, [r0, #88]	@ 0x58
10002a0a:	65c3      	str	r3, [r0, #92]	@ 0x5c
10002a0c:	688a      	ldr	r2, [r1, #8]
10002a0e:	68cb      	ldr	r3, [r1, #12]
10002a10:	6602      	str	r2, [r0, #96]	@ 0x60
10002a12:	6643      	str	r3, [r0, #100]	@ 0x64
10002a14:	6c3b      	ldr	r3, [r7, #64]	@ 0x40
10002a16:	429d      	cmp	r5, r3
10002a18:	dd00      	ble.n	10002a1c <exibir_frase_rolagem+0x9c4>
10002a1a:	e2a0      	b.n	10002f5e <exibir_frase_rolagem+0xf06>
10002a1c:	2200      	movs	r2, #0
10002a1e:	2300      	movs	r3, #0
10002a20:	6c79      	ldr	r1, [r7, #68]	@ 0x44
10002a22:	6682      	str	r2, [r0, #104]	@ 0x68
10002a24:	66c3      	str	r3, [r0, #108]	@ 0x6c
10002a26:	428d      	cmp	r5, r1
10002a28:	dc00      	bgt.n	10002a2c <exibir_frase_rolagem+0x9d4>
10002a2a:	e137      	b.n	10002c9c <exibir_frase_rolagem+0xc44>
10002a2c:	6b7b      	ldr	r3, [r7, #52]	@ 0x34
10002a2e:	6a1a      	ldr	r2, [r3, #32]
10002a30:	6a5b      	ldr	r3, [r3, #36]	@ 0x24
10002a32:	4651      	mov	r1, sl
10002a34:	670a      	str	r2, [r1, #112]	@ 0x70
10002a36:	674b      	str	r3, [r1, #116]	@ 0x74
10002a38:	69bb      	ldr	r3, [r7, #24]
10002a3a:	2668      	movs	r6, #104	@ 0x68
10002a3c:	1959      	adds	r1, r3, r5
10002a3e:	6bfb      	ldr	r3, [r7, #60]	@ 0x3c
10002a40:	2080      	movs	r0, #128	@ 0x80
10002a42:	469c      	mov	ip, r3
10002a44:	1980      	adds	r0, r0, r6
10002a46:	00c9      	lsls	r1, r1, #3
10002a48:	3e60      	subs	r6, #96	@ 0x60
10002a4a:	4461      	add	r1, ip
10002a4c:	46b4      	mov	ip, r6
10002a4e:	680a      	ldr	r2, [r1, #0]
10002a50:	684b      	ldr	r3, [r1, #4]
10002a52:	44bc      	add	ip, r7
10002a54:	4460      	add	r0, ip
10002a56:	6002      	str	r2, [r0, #0]
10002a58:	6043      	str	r3, [r0, #4]
10002a5a:	688a      	ldr	r2, [r1, #8]
10002a5c:	68cb      	ldr	r3, [r1, #12]
10002a5e:	2068      	movs	r0, #104	@ 0x68
10002a60:	2188      	movs	r1, #136	@ 0x88
10002a62:	46b4      	mov	ip, r6
10002a64:	1809      	adds	r1, r1, r0
10002a66:	44bc      	add	ip, r7
10002a68:	4461      	add	r1, ip
10002a6a:	600a      	str	r2, [r1, #0]
10002a6c:	604b      	str	r3, [r1, #4]
10002a6e:	6c3b      	ldr	r3, [r7, #64]	@ 0x40
10002a70:	429d      	cmp	r5, r3
10002a72:	dd00      	ble.n	10002a76 <exibir_frase_rolagem+0xa1e>
10002a74:	e27f      	b.n	10002f76 <exibir_frase_rolagem+0xf1e>
10002a76:	2200      	movs	r2, #0
10002a78:	2300      	movs	r3, #0
10002a7a:	2068      	movs	r0, #104	@ 0x68
10002a7c:	2190      	movs	r1, #144	@ 0x90
10002a7e:	1809      	adds	r1, r1, r0
10002a80:	3860      	subs	r0, #96	@ 0x60
10002a82:	4684      	mov	ip, r0
10002a84:	44bc      	add	ip, r7
10002a86:	4461      	add	r1, ip
10002a88:	600a      	str	r2, [r1, #0]
10002a8a:	604b      	str	r3, [r1, #4]
10002a8c:	6c7b      	ldr	r3, [r7, #68]	@ 0x44
10002a8e:	429d      	cmp	r5, r3
10002a90:	dd00      	ble.n	10002a94 <exibir_frase_rolagem+0xa3c>
10002a92:	e1e1      	b.n	10002e58 <exibir_frase_rolagem+0xe00>
10002a94:	2268      	movs	r2, #104	@ 0x68
10002a96:	2398      	movs	r3, #152	@ 0x98
10002a98:	189b      	adds	r3, r3, r2
10002a9a:	3a60      	subs	r2, #96	@ 0x60
10002a9c:	4694      	mov	ip, r2
10002a9e:	2100      	movs	r1, #0
10002aa0:	2200      	movs	r2, #0
10002aa2:	44bc      	add	ip, r7
10002aa4:	4463      	add	r3, ip
10002aa6:	6019      	str	r1, [r3, #0]
10002aa8:	605a      	str	r2, [r3, #4]
10002aaa:	697a      	ldr	r2, [r7, #20]
10002aac:	26a8      	movs	r6, #168	@ 0xa8
10002aae:	4694      	mov	ip, r2
10002ab0:	2168      	movs	r1, #104	@ 0x68
10002ab2:	2008      	movs	r0, #8
10002ab4:	6bfb      	ldr	r3, [r7, #60]	@ 0x3c
10002ab6:	1871      	adds	r1, r6, r1
10002ab8:	4463      	add	r3, ip
10002aba:	469c      	mov	ip, r3
10002abc:	681a      	ldr	r2, [r3, #0]
10002abe:	685b      	ldr	r3, [r3, #4]
10002ac0:	1838      	adds	r0, r7, r0
10002ac2:	180e      	adds	r6, r1, r0
10002ac4:	6032      	str	r2, [r6, #0]
10002ac6:	6073      	str	r3, [r6, #4]
10002ac8:	26b0      	movs	r6, #176	@ 0xb0
10002aca:	4663      	mov	r3, ip
10002acc:	4684      	mov	ip, r0
10002ace:	689a      	ldr	r2, [r3, #8]
10002ad0:	68db      	ldr	r3, [r3, #12]
10002ad2:	39a8      	subs	r1, #168	@ 0xa8
10002ad4:	1876      	adds	r6, r6, r1
10002ad6:	4466      	add	r6, ip
10002ad8:	6032      	str	r2, [r6, #0]
10002ada:	6073      	str	r3, [r6, #4]
10002adc:	6c3b      	ldr	r3, [r7, #64]	@ 0x40
10002ade:	429d      	cmp	r5, r3
10002ae0:	dc00      	bgt.n	10002ae4 <exibir_frase_rolagem+0xa8c>
10002ae2:	e20c      	b.n	10002efe <exibir_frase_rolagem+0xea6>
10002ae4:	69a2      	ldr	r2, [r4, #24]
10002ae6:	69e3      	ldr	r3, [r4, #28]
10002ae8:	2068      	movs	r0, #104	@ 0x68
10002aea:	21b8      	movs	r1, #184	@ 0xb8
10002aec:	1809      	adds	r1, r1, r0
10002aee:	3860      	subs	r0, #96	@ 0x60
10002af0:	4684      	mov	ip, r0
10002af2:	44bc      	add	ip, r7
10002af4:	4461      	add	r1, ip
10002af6:	600a      	str	r2, [r1, #0]
10002af8:	604b      	str	r3, [r1, #4]
10002afa:	6c7b      	ldr	r3, [r7, #68]	@ 0x44
10002afc:	429d      	cmp	r5, r3
10002afe:	dc00      	bgt.n	10002b02 <exibir_frase_rolagem+0xaaa>
10002b00:	e492      	b.n	10002428 <exibir_frase_rolagem+0x3d0>
10002b02:	6a22      	ldr	r2, [r4, #32]
10002b04:	6a63      	ldr	r3, [r4, #36]	@ 0x24
10002b06:	e491      	b.n	1000242c <exibir_frase_rolagem+0x3d4>
10002b08:	6afb      	ldr	r3, [r7, #44]	@ 0x2c
10002b0a:	6a1a      	ldr	r2, [r3, #32]
10002b0c:	6a5b      	ldr	r3, [r3, #36]	@ 0x24
10002b0e:	f7ff fc47 	bl	100023a0 <exibir_frase_rolagem+0x348>
10002b12:	6bbb      	ldr	r3, [r7, #56]	@ 0x38
10002b14:	6a1a      	ldr	r2, [r3, #32]
10002b16:	6a5b      	ldr	r3, [r3, #36]	@ 0x24
10002b18:	f7ff fbde 	bl	100022d8 <exibir_frase_rolagem+0x280>
10002b1c:	6b3b      	ldr	r3, [r7, #48]	@ 0x30
10002b1e:	6a1a      	ldr	r2, [r3, #32]
10002b20:	6a5b      	ldr	r3, [r3, #36]	@ 0x24
10002b22:	f7ff fbae 	bl	10002282 <exibir_frase_rolagem+0x22a>
10002b26:	6b7b      	ldr	r3, [r7, #52]	@ 0x34
10002b28:	6a1a      	ldr	r2, [r3, #32]
10002b2a:	6a5b      	ldr	r3, [r3, #36]	@ 0x24
10002b2c:	f7ff fbff 	bl	1000232e <exibir_frase_rolagem+0x2d6>
10002b30:	2000      	movs	r0, #0
10002b32:	2100      	movs	r1, #0
10002b34:	e6f3      	b.n	1000291e <exibir_frase_rolagem+0x8c6>
10002b36:	6d38      	ldr	r0, [r7, #80]	@ 0x50
10002b38:	6d79      	ldr	r1, [r7, #84]	@ 0x54
10002b3a:	4b31      	ldr	r3, [pc, #196]	@ (10002c00 <exibir_frase_rolagem+0xba8>)
10002b3c:	f002 fc0b 	bl	10005356 <__wrap___aeabi_ddiv>
10002b40:	6538      	str	r0, [r7, #80]	@ 0x50
10002b42:	6579      	str	r1, [r7, #84]	@ 0x54
10002b44:	e4ed      	b.n	10002522 <exibir_frase_rolagem+0x4ca>
10002b46:	1cd3      	adds	r3, r2, #3
10002b48:	d000      	beq.n	10002b4c <exibir_frase_rolagem+0xaf4>
10002b4a:	e0e8      	b.n	10002d1e <exibir_frase_rolagem+0xcc6>
10002b4c:	6bf8      	ldr	r0, [r7, #60]	@ 0x3c
10002b4e:	4651      	mov	r1, sl
10002b50:	6802      	ldr	r2, [r0, #0]
10002b52:	6843      	ldr	r3, [r0, #4]
10002b54:	4684      	mov	ip, r0
10002b56:	4656      	mov	r6, sl
10002b58:	618a      	str	r2, [r1, #24]
10002b5a:	61cb      	str	r3, [r1, #28]
10002b5c:	6882      	ldr	r2, [r0, #8]
10002b5e:	68c3      	ldr	r3, [r0, #12]
10002b60:	620a      	str	r2, [r1, #32]
10002b62:	624b      	str	r3, [r1, #36]	@ 0x24
10002b64:	6cb9      	ldr	r1, [r7, #72]	@ 0x48
10002b66:	4461      	add	r1, ip
10002b68:	680a      	ldr	r2, [r1, #0]
10002b6a:	684b      	ldr	r3, [r1, #4]
10002b6c:	6432      	str	r2, [r6, #64]	@ 0x40
10002b6e:	6473      	str	r3, [r6, #68]	@ 0x44
10002b70:	688a      	ldr	r2, [r1, #8]
10002b72:	68cb      	ldr	r3, [r1, #12]
10002b74:	6939      	ldr	r1, [r7, #16]
10002b76:	64b2      	str	r2, [r6, #72]	@ 0x48
10002b78:	64f3      	str	r3, [r6, #76]	@ 0x4c
10002b7a:	4461      	add	r1, ip
10002b7c:	680a      	ldr	r2, [r1, #0]
10002b7e:	684b      	ldr	r3, [r1, #4]
10002b80:	66b2      	str	r2, [r6, #104]	@ 0x68
10002b82:	66f3      	str	r3, [r6, #108]	@ 0x6c
10002b84:	688a      	ldr	r2, [r1, #8]
10002b86:	68cb      	ldr	r3, [r1, #12]
10002b88:	6732      	str	r2, [r6, #112]	@ 0x70
10002b8a:	6773      	str	r3, [r6, #116]	@ 0x74
10002b8c:	69bb      	ldr	r3, [r7, #24]
10002b8e:	2690      	movs	r6, #144	@ 0x90
10002b90:	1959      	adds	r1, r3, r5
10002b92:	00c9      	lsls	r1, r1, #3
10002b94:	4461      	add	r1, ip
10002b96:	680a      	ldr	r2, [r1, #0]
10002b98:	684b      	ldr	r3, [r1, #4]
10002b9a:	603a      	str	r2, [r7, #0]
10002b9c:	607b      	str	r3, [r7, #4]
10002b9e:	2368      	movs	r3, #104	@ 0x68
10002ba0:	18f6      	adds	r6, r6, r3
10002ba2:	3b60      	subs	r3, #96	@ 0x60
10002ba4:	469c      	mov	ip, r3
10002ba6:	683a      	ldr	r2, [r7, #0]
10002ba8:	687b      	ldr	r3, [r7, #4]
10002baa:	44bc      	add	ip, r7
10002bac:	4466      	add	r6, ip
10002bae:	6032      	str	r2, [r6, #0]
10002bb0:	6073      	str	r3, [r6, #4]
10002bb2:	688a      	ldr	r2, [r1, #8]
10002bb4:	68cb      	ldr	r3, [r1, #12]
10002bb6:	2668      	movs	r6, #104	@ 0x68
10002bb8:	2198      	movs	r1, #152	@ 0x98
10002bba:	1989      	adds	r1, r1, r6
10002bbc:	3e60      	subs	r6, #96	@ 0x60
10002bbe:	46b4      	mov	ip, r6
10002bc0:	44bc      	add	ip, r7
10002bc2:	4461      	add	r1, ip
10002bc4:	4684      	mov	ip, r0
10002bc6:	20b8      	movs	r0, #184	@ 0xb8
10002bc8:	600a      	str	r2, [r1, #0]
10002bca:	604b      	str	r3, [r1, #4]
10002bcc:	3660      	adds	r6, #96	@ 0x60
10002bce:	6979      	ldr	r1, [r7, #20]
10002bd0:	1980      	adds	r0, r0, r6
10002bd2:	3e60      	subs	r6, #96	@ 0x60
10002bd4:	4461      	add	r1, ip
10002bd6:	46b4      	mov	ip, r6
10002bd8:	680a      	ldr	r2, [r1, #0]
10002bda:	684b      	ldr	r3, [r1, #4]
10002bdc:	44bc      	add	ip, r7
10002bde:	4460      	add	r0, ip
10002be0:	6002      	str	r2, [r0, #0]
10002be2:	6043      	str	r3, [r0, #4]
10002be4:	688a      	ldr	r2, [r1, #8]
10002be6:	68cb      	ldr	r3, [r1, #12]
10002be8:	f7ff fc20 	bl	1000242c <exibir_frase_rolagem+0x3d4>
10002bec:	6db8      	ldr	r0, [r7, #88]	@ 0x58
10002bee:	6df9      	ldr	r1, [r7, #92]	@ 0x5c
10002bf0:	4b03      	ldr	r3, [pc, #12]	@ (10002c00 <exibir_frase_rolagem+0xba8>)
10002bf2:	f002 fbb0 	bl	10005356 <__wrap___aeabi_ddiv>
10002bf6:	65b8      	str	r0, [r7, #88]	@ 0x58
10002bf8:	65f9      	str	r1, [r7, #92]	@ 0x5c
10002bfa:	e48e      	b.n	1000251a <exibir_frase_rolagem+0x4c2>
10002bfc:	3ff00000 	.word	0x3ff00000
10002c00:	406fe000 	.word	0x406fe000
10002c04:	68bb      	ldr	r3, [r7, #8]
10002c06:	3260      	adds	r2, #96	@ 0x60
10002c08:	469b      	mov	fp, r3
10002c0a:	2388      	movs	r3, #136	@ 0x88
10002c0c:	005b      	lsls	r3, r3, #1
10002c0e:	189b      	adds	r3, r3, r2
10002c10:	3a60      	subs	r2, #96	@ 0x60
10002c12:	4694      	mov	ip, r2
10002c14:	44bc      	add	ip, r7
10002c16:	4463      	add	r3, ip
10002c18:	681a      	ldr	r2, [r3, #0]
10002c1a:	685b      	ldr	r3, [r3, #4]
10002c1c:	9206      	str	r2, [sp, #24]
10002c1e:	9307      	str	r3, [sp, #28]
10002c20:	2386      	movs	r3, #134	@ 0x86
10002c22:	2268      	movs	r2, #104	@ 0x68
10002c24:	005b      	lsls	r3, r3, #1
10002c26:	189b      	adds	r3, r3, r2
10002c28:	3a60      	subs	r2, #96	@ 0x60
10002c2a:	4694      	mov	ip, r2
10002c2c:	44bc      	add	ip, r7
10002c2e:	4463      	add	r3, ip
10002c30:	681b      	ldr	r3, [r3, #0]
10002c32:	3260      	adds	r2, #96	@ 0x60
10002c34:	9305      	str	r3, [sp, #20]
10002c36:	2384      	movs	r3, #132	@ 0x84
10002c38:	005b      	lsls	r3, r3, #1
10002c3a:	189b      	adds	r3, r3, r2
10002c3c:	3a60      	subs	r2, #96	@ 0x60
10002c3e:	4694      	mov	ip, r2
10002c40:	44bc      	add	ip, r7
10002c42:	4463      	add	r3, ip
10002c44:	681b      	ldr	r3, [r3, #0]
10002c46:	3260      	adds	r2, #96	@ 0x60
10002c48:	9304      	str	r3, [sp, #16]
10002c4a:	23f8      	movs	r3, #248	@ 0xf8
10002c4c:	189b      	adds	r3, r3, r2
10002c4e:	4662      	mov	r2, ip
10002c50:	189d      	adds	r5, r3, r2
10002c52:	0029      	movs	r1, r5
10002c54:	2210      	movs	r2, #16
10002c56:	4668      	mov	r0, sp
10002c58:	4cd6      	ldr	r4, [pc, #856]	@ (10002fb4 <exibir_frase_rolagem+0xf5c>)
10002c5a:	f002 fd83 	bl	10005764 <__wrap___aeabi_memcpy>
10002c5e:	2268      	movs	r2, #104	@ 0x68
10002c60:	23f0      	movs	r3, #240	@ 0xf0
10002c62:	189b      	adds	r3, r3, r2
10002c64:	3a60      	subs	r2, #96	@ 0x60
10002c66:	4694      	mov	ip, r2
10002c68:	44bc      	add	ip, r7
10002c6a:	4463      	add	r3, ip
10002c6c:	2168      	movs	r1, #104	@ 0x68
10002c6e:	681a      	ldr	r2, [r3, #0]
10002c70:	23f4      	movs	r3, #244	@ 0xf4
10002c72:	185b      	adds	r3, r3, r1
10002c74:	3960      	subs	r1, #96	@ 0x60
10002c76:	468c      	mov	ip, r1
10002c78:	44bc      	add	ip, r7
10002c7a:	4463      	add	r3, ip
10002c7c:	0020      	movs	r0, r4
10002c7e:	681b      	ldr	r3, [r3, #0]
10002c80:	f7ff f830 	bl	10001ce4 <exibir_frame>
10002c84:	e501      	b.n	1000268a <exibir_frase_rolagem+0x632>
10002c86:	6e38      	ldr	r0, [r7, #96]	@ 0x60
10002c88:	6e79      	ldr	r1, [r7, #100]	@ 0x64
10002c8a:	4bcb      	ldr	r3, [pc, #812]	@ (10002fb8 <exibir_frase_rolagem+0xf60>)
10002c8c:	f002 fb63 	bl	10005356 <__wrap___aeabi_ddiv>
10002c90:	6638      	str	r0, [r7, #96]	@ 0x60
10002c92:	6679      	str	r1, [r7, #100]	@ 0x64
10002c94:	e60b      	b.n	100028ae <exibir_frase_rolagem+0x856>
10002c96:	6db8      	ldr	r0, [r7, #88]	@ 0x58
10002c98:	6df9      	ldr	r1, [r7, #92]	@ 0x5c
10002c9a:	e565      	b.n	10002768 <exibir_frase_rolagem+0x710>
10002c9c:	4651      	mov	r1, sl
10002c9e:	670a      	str	r2, [r1, #112]	@ 0x70
10002ca0:	674b      	str	r3, [r1, #116]	@ 0x74
10002ca2:	69bb      	ldr	r3, [r7, #24]
10002ca4:	2668      	movs	r6, #104	@ 0x68
10002ca6:	1959      	adds	r1, r3, r5
10002ca8:	6bfb      	ldr	r3, [r7, #60]	@ 0x3c
10002caa:	2080      	movs	r0, #128	@ 0x80
10002cac:	469c      	mov	ip, r3
10002cae:	1980      	adds	r0, r0, r6
10002cb0:	00c9      	lsls	r1, r1, #3
10002cb2:	3e60      	subs	r6, #96	@ 0x60
10002cb4:	4461      	add	r1, ip
10002cb6:	46b4      	mov	ip, r6
10002cb8:	680a      	ldr	r2, [r1, #0]
10002cba:	684b      	ldr	r3, [r1, #4]
10002cbc:	44bc      	add	ip, r7
10002cbe:	4460      	add	r0, ip
10002cc0:	6002      	str	r2, [r0, #0]
10002cc2:	6043      	str	r3, [r0, #4]
10002cc4:	688a      	ldr	r2, [r1, #8]
10002cc6:	68cb      	ldr	r3, [r1, #12]
10002cc8:	2068      	movs	r0, #104	@ 0x68
10002cca:	2188      	movs	r1, #136	@ 0x88
10002ccc:	46b4      	mov	ip, r6
10002cce:	1809      	adds	r1, r1, r0
10002cd0:	44bc      	add	ip, r7
10002cd2:	4461      	add	r1, ip
10002cd4:	600a      	str	r2, [r1, #0]
10002cd6:	604b      	str	r3, [r1, #4]
10002cd8:	e6cd      	b.n	10002a76 <exibir_frase_rolagem+0xa1e>
10002cda:	2200      	movs	r2, #0
10002cdc:	2300      	movs	r3, #0
10002cde:	e689      	b.n	100029f4 <exibir_frase_rolagem+0x99c>
10002ce0:	4653      	mov	r3, sl
10002ce2:	6cba      	ldr	r2, [r7, #72]	@ 0x48
10002ce4:	6218      	str	r0, [r3, #32]
10002ce6:	6259      	str	r1, [r3, #36]	@ 0x24
10002ce8:	4694      	mov	ip, r2
10002cea:	6bfb      	ldr	r3, [r7, #60]	@ 0x3c
10002cec:	4656      	mov	r6, sl
10002cee:	4463      	add	r3, ip
10002cf0:	469c      	mov	ip, r3
10002cf2:	681a      	ldr	r2, [r3, #0]
10002cf4:	685b      	ldr	r3, [r3, #4]
10002cf6:	6332      	str	r2, [r6, #48]	@ 0x30
10002cf8:	6373      	str	r3, [r6, #52]	@ 0x34
10002cfa:	4663      	mov	r3, ip
10002cfc:	689a      	ldr	r2, [r3, #8]
10002cfe:	68db      	ldr	r3, [r3, #12]
10002d00:	63b2      	str	r2, [r6, #56]	@ 0x38
10002d02:	63f3      	str	r3, [r6, #60]	@ 0x3c
10002d04:	e66c      	b.n	100029e0 <exibir_frase_rolagem+0x988>
10002d06:	48ad      	ldr	r0, [pc, #692]	@ (10002fbc <exibir_frase_rolagem+0xf64>)
10002d08:	f004 fb70 	bl	100073ec <__wrap_puts>
10002d0c:	e500      	b.n	10002710 <exibir_frase_rolagem+0x6b8>
10002d0e:	6db8      	ldr	r0, [r7, #88]	@ 0x58
10002d10:	6df9      	ldr	r1, [r7, #92]	@ 0x5c
10002d12:	4ba9      	ldr	r3, [pc, #676]	@ (10002fb8 <exibir_frase_rolagem+0xf60>)
10002d14:	f002 fb1f 	bl	10005356 <__wrap___aeabi_ddiv>
10002d18:	65b8      	str	r0, [r7, #88]	@ 0x58
10002d1a:	65f9      	str	r1, [r7, #92]	@ 0x5c
10002d1c:	e609      	b.n	10002932 <exibir_frase_rolagem+0x8da>
10002d1e:	1d13      	adds	r3, r2, #4
10002d20:	d000      	beq.n	10002d24 <exibir_frase_rolagem+0xccc>
10002d22:	e14f      	b.n	10002fc4 <exibir_frase_rolagem+0xf6c>
10002d24:	4650      	mov	r0, sl
10002d26:	6bf9      	ldr	r1, [r7, #60]	@ 0x3c
10002d28:	2668      	movs	r6, #104	@ 0x68
10002d2a:	680a      	ldr	r2, [r1, #0]
10002d2c:	684b      	ldr	r3, [r1, #4]
10002d2e:	468c      	mov	ip, r1
10002d30:	6202      	str	r2, [r0, #32]
10002d32:	6243      	str	r3, [r0, #36]	@ 0x24
10002d34:	6cbb      	ldr	r3, [r7, #72]	@ 0x48
10002d36:	4463      	add	r3, ip
10002d38:	681a      	ldr	r2, [r3, #0]
10002d3a:	685b      	ldr	r3, [r3, #4]
10002d3c:	6482      	str	r2, [r0, #72]	@ 0x48
10002d3e:	64c3      	str	r3, [r0, #76]	@ 0x4c
10002d40:	693b      	ldr	r3, [r7, #16]
10002d42:	4463      	add	r3, ip
10002d44:	681a      	ldr	r2, [r3, #0]
10002d46:	685b      	ldr	r3, [r3, #4]
10002d48:	6702      	str	r2, [r0, #112]	@ 0x70
10002d4a:	6743      	str	r3, [r0, #116]	@ 0x74
10002d4c:	2098      	movs	r0, #152	@ 0x98
10002d4e:	69bb      	ldr	r3, [r7, #24]
10002d50:	1980      	adds	r0, r0, r6
10002d52:	195b      	adds	r3, r3, r5
10002d54:	00db      	lsls	r3, r3, #3
10002d56:	3e60      	subs	r6, #96	@ 0x60
10002d58:	4463      	add	r3, ip
10002d5a:	46b4      	mov	ip, r6
10002d5c:	681a      	ldr	r2, [r3, #0]
10002d5e:	685b      	ldr	r3, [r3, #4]
10002d60:	44bc      	add	ip, r7
10002d62:	4460      	add	r0, ip
10002d64:	468c      	mov	ip, r1
10002d66:	6002      	str	r2, [r0, #0]
10002d68:	6043      	str	r3, [r0, #4]
10002d6a:	697b      	ldr	r3, [r7, #20]
10002d6c:	4463      	add	r3, ip
10002d6e:	681a      	ldr	r2, [r3, #0]
10002d70:	685b      	ldr	r3, [r3, #4]
10002d72:	f7ff fb5b 	bl	1000242c <exibir_frase_rolagem+0x3d4>
10002d76:	6b3b      	ldr	r3, [r7, #48]	@ 0x30
10002d78:	4656      	mov	r6, sl
10002d7a:	6a1a      	ldr	r2, [r3, #32]
10002d7c:	6a5b      	ldr	r3, [r3, #36]	@ 0x24
10002d7e:	6202      	str	r2, [r0, #32]
10002d80:	6243      	str	r3, [r0, #36]	@ 0x24
10002d82:	6bf8      	ldr	r0, [r7, #60]	@ 0x3c
10002d84:	6cbb      	ldr	r3, [r7, #72]	@ 0x48
10002d86:	0001      	movs	r1, r0
10002d88:	469c      	mov	ip, r3
10002d8a:	4461      	add	r1, ip
10002d8c:	680a      	ldr	r2, [r1, #0]
10002d8e:	684b      	ldr	r3, [r1, #4]
10002d90:	63b2      	str	r2, [r6, #56]	@ 0x38
10002d92:	63f3      	str	r3, [r6, #60]	@ 0x3c
10002d94:	688a      	ldr	r2, [r1, #8]
10002d96:	68cb      	ldr	r3, [r1, #12]
10002d98:	6432      	str	r2, [r6, #64]	@ 0x40
10002d9a:	6473      	str	r3, [r6, #68]	@ 0x44
10002d9c:	6bbb      	ldr	r3, [r7, #56]	@ 0x38
10002d9e:	0001      	movs	r1, r0
10002da0:	6a1a      	ldr	r2, [r3, #32]
10002da2:	6a5b      	ldr	r3, [r3, #36]	@ 0x24
10002da4:	64b2      	str	r2, [r6, #72]	@ 0x48
10002da6:	64f3      	str	r3, [r6, #76]	@ 0x4c
10002da8:	693b      	ldr	r3, [r7, #16]
10002daa:	469c      	mov	ip, r3
10002dac:	4461      	add	r1, ip
10002dae:	4684      	mov	ip, r0
10002db0:	680a      	ldr	r2, [r1, #0]
10002db2:	684b      	ldr	r3, [r1, #4]
10002db4:	6632      	str	r2, [r6, #96]	@ 0x60
10002db6:	6673      	str	r3, [r6, #100]	@ 0x64
10002db8:	688a      	ldr	r2, [r1, #8]
10002dba:	68cb      	ldr	r3, [r1, #12]
10002dbc:	66b2      	str	r2, [r6, #104]	@ 0x68
10002dbe:	66f3      	str	r3, [r6, #108]	@ 0x6c
10002dc0:	6b7b      	ldr	r3, [r7, #52]	@ 0x34
10002dc2:	6a1a      	ldr	r2, [r3, #32]
10002dc4:	6a5b      	ldr	r3, [r3, #36]	@ 0x24
10002dc6:	6732      	str	r2, [r6, #112]	@ 0x70
10002dc8:	6773      	str	r3, [r6, #116]	@ 0x74
10002dca:	69bb      	ldr	r3, [r7, #24]
10002dcc:	2688      	movs	r6, #136	@ 0x88
10002dce:	1959      	adds	r1, r3, r5
10002dd0:	00c9      	lsls	r1, r1, #3
10002dd2:	4461      	add	r1, ip
10002dd4:	680a      	ldr	r2, [r1, #0]
10002dd6:	684b      	ldr	r3, [r1, #4]
10002dd8:	603a      	str	r2, [r7, #0]
10002dda:	607b      	str	r3, [r7, #4]
10002ddc:	2368      	movs	r3, #104	@ 0x68
10002dde:	18f6      	adds	r6, r6, r3
10002de0:	3b60      	subs	r3, #96	@ 0x60
10002de2:	469c      	mov	ip, r3
10002de4:	683a      	ldr	r2, [r7, #0]
10002de6:	687b      	ldr	r3, [r7, #4]
10002de8:	44bc      	add	ip, r7
10002dea:	4466      	add	r6, ip
10002dec:	6032      	str	r2, [r6, #0]
10002dee:	6073      	str	r3, [r6, #4]
10002df0:	688a      	ldr	r2, [r1, #8]
10002df2:	68cb      	ldr	r3, [r1, #12]
10002df4:	2668      	movs	r6, #104	@ 0x68
10002df6:	2190      	movs	r1, #144	@ 0x90
10002df8:	1989      	adds	r1, r1, r6
10002dfa:	3e60      	subs	r6, #96	@ 0x60
10002dfc:	46b4      	mov	ip, r6
10002dfe:	44bc      	add	ip, r7
10002e00:	4461      	add	r1, ip
10002e02:	600a      	str	r2, [r1, #0]
10002e04:	604b      	str	r3, [r1, #4]
10002e06:	2198      	movs	r1, #152	@ 0x98
10002e08:	3660      	adds	r6, #96	@ 0x60
10002e0a:	1989      	adds	r1, r1, r6
10002e0c:	3e60      	subs	r6, #96	@ 0x60
10002e0e:	46b4      	mov	ip, r6
10002e10:	44bc      	add	ip, r7
10002e12:	4461      	add	r1, ip
10002e14:	4684      	mov	ip, r0
10002e16:	20b0      	movs	r0, #176	@ 0xb0
10002e18:	6afb      	ldr	r3, [r7, #44]	@ 0x2c
10002e1a:	3660      	adds	r6, #96	@ 0x60
10002e1c:	6a1a      	ldr	r2, [r3, #32]
10002e1e:	6a5b      	ldr	r3, [r3, #36]	@ 0x24
10002e20:	600a      	str	r2, [r1, #0]
10002e22:	604b      	str	r3, [r1, #4]
10002e24:	6979      	ldr	r1, [r7, #20]
10002e26:	1980      	adds	r0, r0, r6
10002e28:	3e60      	subs	r6, #96	@ 0x60
10002e2a:	4461      	add	r1, ip
10002e2c:	46b4      	mov	ip, r6
10002e2e:	680a      	ldr	r2, [r1, #0]
10002e30:	684b      	ldr	r3, [r1, #4]
10002e32:	44bc      	add	ip, r7
10002e34:	4460      	add	r0, ip
10002e36:	6002      	str	r2, [r0, #0]
10002e38:	6043      	str	r3, [r0, #4]
10002e3a:	688a      	ldr	r2, [r1, #8]
10002e3c:	68cb      	ldr	r3, [r1, #12]
10002e3e:	2068      	movs	r0, #104	@ 0x68
10002e40:	21b8      	movs	r1, #184	@ 0xb8
10002e42:	1809      	adds	r1, r1, r0
10002e44:	3860      	subs	r0, #96	@ 0x60
10002e46:	4684      	mov	ip, r0
10002e48:	44bc      	add	ip, r7
10002e4a:	4461      	add	r1, ip
10002e4c:	600a      	str	r2, [r1, #0]
10002e4e:	604b      	str	r3, [r1, #4]
10002e50:	6a22      	ldr	r2, [r4, #32]
10002e52:	6a63      	ldr	r3, [r4, #36]	@ 0x24
10002e54:	f7ff faea 	bl	1000242c <exibir_frase_rolagem+0x3d4>
10002e58:	2198      	movs	r1, #152	@ 0x98
10002e5a:	3060      	adds	r0, #96	@ 0x60
10002e5c:	1809      	adds	r1, r1, r0
10002e5e:	3860      	subs	r0, #96	@ 0x60
10002e60:	4684      	mov	ip, r0
10002e62:	6afb      	ldr	r3, [r7, #44]	@ 0x2c
10002e64:	44bc      	add	ip, r7
10002e66:	4461      	add	r1, ip
10002e68:	6a1a      	ldr	r2, [r3, #32]
10002e6a:	6a5b      	ldr	r3, [r3, #36]	@ 0x24
10002e6c:	600a      	str	r2, [r1, #0]
10002e6e:	604b      	str	r3, [r1, #4]
10002e70:	697b      	ldr	r3, [r7, #20]
10002e72:	2668      	movs	r6, #104	@ 0x68
10002e74:	469c      	mov	ip, r3
10002e76:	6bf9      	ldr	r1, [r7, #60]	@ 0x3c
10002e78:	30a0      	adds	r0, #160	@ 0xa0
10002e7a:	1980      	adds	r0, r0, r6
10002e7c:	3e60      	subs	r6, #96	@ 0x60
10002e7e:	4461      	add	r1, ip
10002e80:	46b4      	mov	ip, r6
10002e82:	680a      	ldr	r2, [r1, #0]
10002e84:	684b      	ldr	r3, [r1, #4]
10002e86:	44bc      	add	ip, r7
10002e88:	4460      	add	r0, ip
10002e8a:	6002      	str	r2, [r0, #0]
10002e8c:	6043      	str	r3, [r0, #4]
10002e8e:	688a      	ldr	r2, [r1, #8]
10002e90:	68cb      	ldr	r3, [r1, #12]
10002e92:	2068      	movs	r0, #104	@ 0x68
10002e94:	21b0      	movs	r1, #176	@ 0xb0
10002e96:	46b4      	mov	ip, r6
10002e98:	1809      	adds	r1, r1, r0
10002e9a:	44bc      	add	ip, r7
10002e9c:	4461      	add	r1, ip
10002e9e:	600a      	str	r2, [r1, #0]
10002ea0:	604b      	str	r3, [r1, #4]
10002ea2:	6c3b      	ldr	r3, [r7, #64]	@ 0x40
10002ea4:	429d      	cmp	r5, r3
10002ea6:	dd00      	ble.n	10002eaa <exibir_frase_rolagem+0xe52>
10002ea8:	e61c      	b.n	10002ae4 <exibir_frase_rolagem+0xa8c>
10002eaa:	2068      	movs	r0, #104	@ 0x68
10002eac:	21b8      	movs	r1, #184	@ 0xb8
10002eae:	1809      	adds	r1, r1, r0
10002eb0:	3860      	subs	r0, #96	@ 0x60
10002eb2:	4684      	mov	ip, r0
10002eb4:	2200      	movs	r2, #0
10002eb6:	2300      	movs	r3, #0
10002eb8:	44bc      	add	ip, r7
10002eba:	4461      	add	r1, ip
10002ebc:	600a      	str	r2, [r1, #0]
10002ebe:	604b      	str	r3, [r1, #4]
10002ec0:	e61f      	b.n	10002b02 <exibir_frase_rolagem+0xaaa>
10002ec2:	6b7b      	ldr	r3, [r7, #52]	@ 0x34
10002ec4:	699a      	ldr	r2, [r3, #24]
10002ec6:	69db      	ldr	r3, [r3, #28]
10002ec8:	f7ff fa27 	bl	1000231a <exibir_frase_rolagem+0x2c2>
10002ecc:	6b7b      	ldr	r3, [r7, #52]	@ 0x34
10002ece:	691a      	ldr	r2, [r3, #16]
10002ed0:	695b      	ldr	r3, [r3, #20]
10002ed2:	f7ff fa18 	bl	10002306 <exibir_frase_rolagem+0x2ae>
10002ed6:	6bbb      	ldr	r3, [r7, #56]	@ 0x38
10002ed8:	699a      	ldr	r2, [r3, #24]
10002eda:	69db      	ldr	r3, [r3, #28]
10002edc:	f7ff f9f2 	bl	100022c4 <exibir_frase_rolagem+0x26c>
10002ee0:	6bbb      	ldr	r3, [r7, #56]	@ 0x38
10002ee2:	691a      	ldr	r2, [r3, #16]
10002ee4:	695b      	ldr	r3, [r3, #20]
10002ee6:	f7ff f9e3 	bl	100022b0 <exibir_frase_rolagem+0x258>
10002eea:	6b3b      	ldr	r3, [r7, #48]	@ 0x30
10002eec:	699a      	ldr	r2, [r3, #24]
10002eee:	69db      	ldr	r3, [r3, #28]
10002ef0:	f7ff f9bd 	bl	1000226e <exibir_frase_rolagem+0x216>
10002ef4:	6b3b      	ldr	r3, [r7, #48]	@ 0x30
10002ef6:	691a      	ldr	r2, [r3, #16]
10002ef8:	695b      	ldr	r3, [r3, #20]
10002efa:	f7ff f9ae 	bl	1000225a <exibir_frase_rolagem+0x202>
10002efe:	2268      	movs	r2, #104	@ 0x68
10002f00:	23b8      	movs	r3, #184	@ 0xb8
10002f02:	189b      	adds	r3, r3, r2
10002f04:	3a60      	subs	r2, #96	@ 0x60
10002f06:	4694      	mov	ip, r2
10002f08:	2100      	movs	r1, #0
10002f0a:	2200      	movs	r2, #0
10002f0c:	44bc      	add	ip, r7
10002f0e:	4463      	add	r3, ip
10002f10:	6019      	str	r1, [r3, #0]
10002f12:	605a      	str	r2, [r3, #4]
10002f14:	f7ff fa88 	bl	10002428 <exibir_frase_rolagem+0x3d0>
10002f18:	6e38      	ldr	r0, [r7, #96]	@ 0x60
10002f1a:	6e79      	ldr	r1, [r7, #100]	@ 0x64
10002f1c:	f7ff faf3 	bl	10002506 <exibir_frase_rolagem+0x4ae>
10002f20:	4827      	ldr	r0, [pc, #156]	@ (10002fc0 <exibir_frase_rolagem+0xf68>)
10002f22:	f004 fa63 	bl	100073ec <__wrap_puts>
10002f26:	f7ff fbf3 	bl	10002710 <exibir_frase_rolagem+0x6b8>
10002f2a:	6e38      	ldr	r0, [r7, #96]	@ 0x60
10002f2c:	6e79      	ldr	r1, [r7, #100]	@ 0x64
10002f2e:	4b22      	ldr	r3, [pc, #136]	@ (10002fb8 <exibir_frase_rolagem+0xf60>)
10002f30:	f002 fa11 	bl	10005356 <__wrap___aeabi_ddiv>
10002f34:	6638      	str	r0, [r7, #96]	@ 0x60
10002f36:	6679      	str	r1, [r7, #100]	@ 0x64
10002f38:	e514      	b.n	10002964 <exibir_frase_rolagem+0x90c>
10002f3a:	69a2      	ldr	r2, [r4, #24]
10002f3c:	69e3      	ldr	r3, [r4, #28]
10002f3e:	f7ff fa66 	bl	1000240e <exibir_frase_rolagem+0x3b6>
10002f42:	6922      	ldr	r2, [r4, #16]
10002f44:	6963      	ldr	r3, [r4, #20]
10002f46:	f7ff fa52 	bl	100023ee <exibir_frase_rolagem+0x396>
10002f4a:	6afb      	ldr	r3, [r7, #44]	@ 0x2c
10002f4c:	699a      	ldr	r2, [r3, #24]
10002f4e:	69db      	ldr	r3, [r3, #28]
10002f50:	f7ff fa18 	bl	10002384 <exibir_frase_rolagem+0x32c>
10002f54:	6afb      	ldr	r3, [r7, #44]	@ 0x2c
10002f56:	691a      	ldr	r2, [r3, #16]
10002f58:	695b      	ldr	r3, [r3, #20]
10002f5a:	f7ff fa04 	bl	10002366 <exibir_frase_rolagem+0x30e>
10002f5e:	6b7b      	ldr	r3, [r7, #52]	@ 0x34
10002f60:	699a      	ldr	r2, [r3, #24]
10002f62:	69db      	ldr	r3, [r3, #28]
10002f64:	6682      	str	r2, [r0, #104]	@ 0x68
10002f66:	66c3      	str	r3, [r0, #108]	@ 0x6c
10002f68:	6c7b      	ldr	r3, [r7, #68]	@ 0x44
10002f6a:	429d      	cmp	r5, r3
10002f6c:	dd00      	ble.n	10002f70 <exibir_frase_rolagem+0xf18>
10002f6e:	e55d      	b.n	10002a2c <exibir_frase_rolagem+0x9d4>
10002f70:	2200      	movs	r2, #0
10002f72:	2300      	movs	r3, #0
10002f74:	e55d      	b.n	10002a32 <exibir_frase_rolagem+0x9da>
10002f76:	6afb      	ldr	r3, [r7, #44]	@ 0x2c
10002f78:	699a      	ldr	r2, [r3, #24]
10002f7a:	69db      	ldr	r3, [r3, #28]
10002f7c:	e57d      	b.n	10002a7a <exibir_frase_rolagem+0xa22>
10002f7e:	6b3b      	ldr	r3, [r7, #48]	@ 0x30
10002f80:	699a      	ldr	r2, [r3, #24]
10002f82:	69db      	ldr	r3, [r3, #28]
10002f84:	6182      	str	r2, [r0, #24]
10002f86:	61c3      	str	r3, [r0, #28]
10002f88:	6c7b      	ldr	r3, [r7, #68]	@ 0x44
10002f8a:	429d      	cmp	r5, r3
10002f8c:	dd00      	ble.n	10002f90 <exibir_frase_rolagem+0xf38>
10002f8e:	e50e      	b.n	100029ae <exibir_frase_rolagem+0x956>
10002f90:	2200      	movs	r2, #0
10002f92:	2300      	movs	r3, #0
10002f94:	e50e      	b.n	100029b4 <exibir_frase_rolagem+0x95c>
10002f96:	6afb      	ldr	r3, [r7, #44]	@ 0x2c
10002f98:	689a      	ldr	r2, [r3, #8]
10002f9a:	68db      	ldr	r3, [r3, #12]
10002f9c:	f7ff f9d5 	bl	1000234a <exibir_frase_rolagem+0x2f2>
10002fa0:	6b3b      	ldr	r3, [r7, #48]	@ 0x30
10002fa2:	689a      	ldr	r2, [r3, #8]
10002fa4:	68db      	ldr	r3, [r3, #12]
10002fa6:	f7ff f94c 	bl	10002242 <exibir_frase_rolagem+0x1ea>
10002faa:	68a2      	ldr	r2, [r4, #8]
10002fac:	68e3      	ldr	r3, [r4, #12]
10002fae:	f7ff fa10 	bl	100023d2 <exibir_frase_rolagem+0x37a>
10002fb2:	46c0      	nop			@ (mov r8, r8)
10002fb4:	20003de8 	.word	0x20003de8
10002fb8:	406fe000 	.word	0x406fe000
10002fbc:	1000b554 	.word	0x1000b554
10002fc0:	1000b56c 	.word	0x1000b56c
10002fc4:	2200      	movs	r2, #0
10002fc6:	2300      	movs	r3, #0
10002fc8:	4651      	mov	r1, sl
10002fca:	2068      	movs	r0, #104	@ 0x68
10002fcc:	648a      	str	r2, [r1, #72]	@ 0x48
10002fce:	64cb      	str	r3, [r1, #76]	@ 0x4c
10002fd0:	670a      	str	r2, [r1, #112]	@ 0x70
10002fd2:	674b      	str	r3, [r1, #116]	@ 0x74
10002fd4:	2198      	movs	r1, #152	@ 0x98
10002fd6:	1809      	adds	r1, r1, r0
10002fd8:	3860      	subs	r0, #96	@ 0x60
10002fda:	4684      	mov	ip, r0
10002fdc:	44bc      	add	ip, r7
10002fde:	4461      	add	r1, ip
10002fe0:	600a      	str	r2, [r1, #0]
10002fe2:	604b      	str	r3, [r1, #4]
10002fe4:	f7ff fa22 	bl	1000242c <exibir_frase_rolagem+0x3d4>
10002fe8:	6bbb      	ldr	r3, [r7, #56]	@ 0x38
10002fea:	6998      	ldr	r0, [r3, #24]
10002fec:	69d9      	ldr	r1, [r3, #28]
10002fee:	e4f7      	b.n	100029e0 <exibir_frase_rolagem+0x988>
10002ff0:	6b7b      	ldr	r3, [r7, #52]	@ 0x34
10002ff2:	689a      	ldr	r2, [r3, #8]
10002ff4:	68db      	ldr	r3, [r3, #12]
10002ff6:	f7ff f97d 	bl	100022f4 <exibir_frase_rolagem+0x29c>
10002ffa:	6bbb      	ldr	r3, [r7, #56]	@ 0x38
10002ffc:	689a      	ldr	r2, [r3, #8]
10002ffe:	68db      	ldr	r3, [r3, #12]
10003000:	f7ff f94d 	bl	1000229e <exibir_frase_rolagem+0x246>

10003004 <gpio_default_irq_handler>:
10003004:	23d0      	movs	r3, #208	@ 0xd0
10003006:	061b      	lsls	r3, r3, #24
10003008:	681b      	ldr	r3, [r3, #0]
1000300a:	4aac      	ldr	r2, [pc, #688]	@ (100032bc <gpio_default_irq_handler+0x2b8>)
1000300c:	0099      	lsls	r1, r3, #2
1000300e:	b5f0      	push	{r4, r5, r6, r7, lr}
10003010:	46de      	mov	lr, fp
10003012:	468b      	mov	fp, r1
10003014:	5851      	ldr	r1, [r2, r1]
10003016:	425a      	negs	r2, r3
10003018:	4153      	adcs	r3, r2
1000301a:	222f      	movs	r2, #47	@ 0x2f
1000301c:	4657      	mov	r7, sl
1000301e:	464e      	mov	r6, r9
10003020:	4645      	mov	r5, r8
10003022:	425b      	negs	r3, r3
10003024:	4393      	bics	r3, r2
10003026:	469a      	mov	sl, r3
10003028:	4ba5      	ldr	r3, [pc, #660]	@ (100032c0 <gpio_default_irq_handler+0x2bc>)
1000302a:	b5e0      	push	{r5, r6, r7, lr}
1000302c:	469c      	mov	ip, r3
1000302e:	b083      	sub	sp, #12
10003030:	2600      	movs	r6, #0
10003032:	9101      	str	r1, [sp, #4]
10003034:	44e2      	add	sl, ip
10003036:	2900      	cmp	r1, #0
10003038:	d038      	beq.n	100030ac <gpio_default_irq_handler+0xa8>
1000303a:	4ba2      	ldr	r3, [pc, #648]	@ (100032c4 <gpio_default_irq_handler+0x2c0>)
1000303c:	4699      	mov	r9, r3
1000303e:	4652      	mov	r2, sl
10003040:	08f3      	lsrs	r3, r6, #3
10003042:	3308      	adds	r3, #8
10003044:	009b      	lsls	r3, r3, #2
10003046:	589d      	ldr	r5, [r3, r2]
10003048:	2301      	movs	r3, #1
1000304a:	0034      	movs	r4, r6
1000304c:	4698      	mov	r8, r3
1000304e:	3608      	adds	r6, #8
10003050:	2d00      	cmp	r5, #0
10003052:	d022      	beq.n	1000309a <gpio_default_irq_handler+0x96>
10003054:	210f      	movs	r1, #15
10003056:	0020      	movs	r0, r4
10003058:	4029      	ands	r1, r5
1000305a:	3401      	adds	r4, #1
1000305c:	092d      	lsrs	r5, r5, #4
1000305e:	2900      	cmp	r1, #0
10003060:	d019      	beq.n	10003096 <gpio_default_irq_handler+0x92>
10003062:	464b      	mov	r3, r9
10003064:	465a      	mov	r2, fp
10003066:	589a      	ldr	r2, [r3, r2]
10003068:	0003      	movs	r3, r0
1000306a:	40c2      	lsrs	r2, r0
1000306c:	3b20      	subs	r3, #32
1000306e:	17db      	asrs	r3, r3, #31
10003070:	4013      	ands	r3, r2
10003072:	4642      	mov	r2, r8
10003074:	4213      	tst	r3, r2
10003076:	d10c      	bne.n	10003092 <gpio_default_irq_handler+0x8e>
10003078:	2207      	movs	r2, #7
1000307a:	000f      	movs	r7, r1
1000307c:	4002      	ands	r2, r0
1000307e:	0092      	lsls	r2, r2, #2
10003080:	4097      	lsls	r7, r2
10003082:	003a      	movs	r2, r7
10003084:	08c3      	lsrs	r3, r0, #3
10003086:	4f90      	ldr	r7, [pc, #576]	@ (100032c8 <gpio_default_irq_handler+0x2c4>)
10003088:	333c      	adds	r3, #60	@ 0x3c
1000308a:	009b      	lsls	r3, r3, #2
1000308c:	51da      	str	r2, [r3, r7]
1000308e:	9b01      	ldr	r3, [sp, #4]
10003090:	4798      	blx	r3
10003092:	2d00      	cmp	r5, #0
10003094:	d001      	beq.n	1000309a <gpio_default_irq_handler+0x96>
10003096:	42b4      	cmp	r4, r6
10003098:	d3dc      	bcc.n	10003054 <gpio_default_irq_handler+0x50>
1000309a:	2e20      	cmp	r6, #32
1000309c:	d1cf      	bne.n	1000303e <gpio_default_irq_handler+0x3a>
1000309e:	b003      	add	sp, #12
100030a0:	bcf0      	pop	{r4, r5, r6, r7}
100030a2:	46bb      	mov	fp, r7
100030a4:	46b2      	mov	sl, r6
100030a6:	46a9      	mov	r9, r5
100030a8:	46a0      	mov	r8, r4
100030aa:	bdf0      	pop	{r4, r5, r6, r7, pc}
100030ac:	4e85      	ldr	r6, [pc, #532]	@ (100032c4 <gpio_default_irq_handler+0x2c0>)
100030ae:	465f      	mov	r7, fp
100030b0:	2100      	movs	r1, #0
100030b2:	230f      	movs	r3, #15
100030b4:	46b3      	mov	fp, r6
100030b6:	08cc      	lsrs	r4, r1, #3
100030b8:	0022      	movs	r2, r4
100030ba:	4650      	mov	r0, sl
100030bc:	3208      	adds	r2, #8
100030be:	0092      	lsls	r2, r2, #2
100030c0:	5812      	ldr	r2, [r2, r0]
100030c2:	2a00      	cmp	r2, #0
100030c4:	d100      	bne.n	100030c8 <gpio_default_irq_handler+0xc4>
100030c6:	e0d0      	b.n	1000326a <gpio_default_irq_handler+0x266>
100030c8:	0018      	movs	r0, r3
100030ca:	4010      	ands	r0, r2
100030cc:	4680      	mov	r8, r0
100030ce:	0910      	lsrs	r0, r2, #4
100030d0:	4213      	tst	r3, r2
100030d2:	d01a      	beq.n	1000310a <gpio_default_irq_handler+0x106>
100030d4:	465d      	mov	r5, fp
100030d6:	59ed      	ldr	r5, [r5, r7]
100030d8:	46a9      	mov	r9, r5
100030da:	2520      	movs	r5, #32
100030dc:	426d      	negs	r5, r5
100030de:	46ac      	mov	ip, r5
100030e0:	448c      	add	ip, r1
100030e2:	4665      	mov	r5, ip
100030e4:	17ed      	asrs	r5, r5, #31
100030e6:	46ac      	mov	ip, r5
100030e8:	464d      	mov	r5, r9
100030ea:	40cd      	lsrs	r5, r1
100030ec:	46a9      	mov	r9, r5
100030ee:	4665      	mov	r5, ip
100030f0:	464e      	mov	r6, r9
100030f2:	4035      	ands	r5, r6
100030f4:	2601      	movs	r6, #1
100030f6:	4235      	tst	r5, r6
100030f8:	d104      	bne.n	10003104 <gpio_default_irq_handler+0x100>
100030fa:	4646      	mov	r6, r8
100030fc:	4d72      	ldr	r5, [pc, #456]	@ (100032c8 <gpio_default_irq_handler+0x2c4>)
100030fe:	343c      	adds	r4, #60	@ 0x3c
10003100:	00a4      	lsls	r4, r4, #2
10003102:	5166      	str	r6, [r4, r5]
10003104:	2800      	cmp	r0, #0
10003106:	d100      	bne.n	1000310a <gpio_default_irq_handler+0x106>
10003108:	e0af      	b.n	1000326a <gpio_default_irq_handler+0x266>
1000310a:	001c      	movs	r4, r3
1000310c:	4004      	ands	r4, r0
1000310e:	46a4      	mov	ip, r4
10003110:	0a14      	lsrs	r4, r2, #8
10003112:	4203      	tst	r3, r0
10003114:	d01a      	beq.n	1000314c <gpio_default_irq_handler+0x148>
10003116:	1c48      	adds	r0, r1, #1
10003118:	4680      	mov	r8, r0
1000311a:	4658      	mov	r0, fp
1000311c:	59c0      	ldr	r0, [r0, r7]
1000311e:	4646      	mov	r6, r8
10003120:	4681      	mov	r9, r0
10003122:	464d      	mov	r5, r9
10003124:	0008      	movs	r0, r1
10003126:	40f5      	lsrs	r5, r6
10003128:	381f      	subs	r0, #31
1000312a:	17c0      	asrs	r0, r0, #31
1000312c:	4028      	ands	r0, r5
1000312e:	2501      	movs	r5, #1
10003130:	4228      	tst	r0, r5
10003132:	d108      	bne.n	10003146 <gpio_default_irq_handler+0x142>
10003134:	4665      	mov	r5, ip
10003136:	012d      	lsls	r5, r5, #4
10003138:	46ac      	mov	ip, r5
1000313a:	08f0      	lsrs	r0, r6, #3
1000313c:	4666      	mov	r6, ip
1000313e:	4d62      	ldr	r5, [pc, #392]	@ (100032c8 <gpio_default_irq_handler+0x2c4>)
10003140:	303c      	adds	r0, #60	@ 0x3c
10003142:	0080      	lsls	r0, r0, #2
10003144:	5146      	str	r6, [r0, r5]
10003146:	2c00      	cmp	r4, #0
10003148:	d100      	bne.n	1000314c <gpio_default_irq_handler+0x148>
1000314a:	e08e      	b.n	1000326a <gpio_default_irq_handler+0x266>
1000314c:	0018      	movs	r0, r3
1000314e:	4020      	ands	r0, r4
10003150:	4684      	mov	ip, r0
10003152:	0b10      	lsrs	r0, r2, #12
10003154:	4223      	tst	r3, r4
10003156:	d011      	beq.n	1000317c <gpio_default_irq_handler+0x178>
10003158:	1c8c      	adds	r4, r1, #2
1000315a:	46a0      	mov	r8, r4
1000315c:	465c      	mov	r4, fp
1000315e:	59e4      	ldr	r4, [r4, r7]
10003160:	4646      	mov	r6, r8
10003162:	46a1      	mov	r9, r4
10003164:	464d      	mov	r5, r9
10003166:	000c      	movs	r4, r1
10003168:	40f5      	lsrs	r5, r6
1000316a:	3c1e      	subs	r4, #30
1000316c:	17e4      	asrs	r4, r4, #31
1000316e:	402c      	ands	r4, r5
10003170:	2501      	movs	r5, #1
10003172:	422c      	tst	r4, r5
10003174:	d100      	bne.n	10003178 <gpio_default_irq_handler+0x174>
10003176:	e082      	b.n	1000327e <gpio_default_irq_handler+0x27a>
10003178:	2800      	cmp	r0, #0
1000317a:	d076      	beq.n	1000326a <gpio_default_irq_handler+0x266>
1000317c:	001c      	movs	r4, r3
1000317e:	4004      	ands	r4, r0
10003180:	46a4      	mov	ip, r4
10003182:	0c14      	lsrs	r4, r2, #16
10003184:	4203      	tst	r3, r0
10003186:	d010      	beq.n	100031aa <gpio_default_irq_handler+0x1a6>
10003188:	1cc8      	adds	r0, r1, #3
1000318a:	4680      	mov	r8, r0
1000318c:	4658      	mov	r0, fp
1000318e:	59c0      	ldr	r0, [r0, r7]
10003190:	4646      	mov	r6, r8
10003192:	4681      	mov	r9, r0
10003194:	464d      	mov	r5, r9
10003196:	0008      	movs	r0, r1
10003198:	40f5      	lsrs	r5, r6
1000319a:	381d      	subs	r0, #29
1000319c:	17c0      	asrs	r0, r0, #31
1000319e:	4028      	ands	r0, r5
100031a0:	2501      	movs	r5, #1
100031a2:	4228      	tst	r0, r5
100031a4:	d075      	beq.n	10003292 <gpio_default_irq_handler+0x28e>
100031a6:	2c00      	cmp	r4, #0
100031a8:	d05f      	beq.n	1000326a <gpio_default_irq_handler+0x266>
100031aa:	0018      	movs	r0, r3
100031ac:	4020      	ands	r0, r4
100031ae:	4680      	mov	r8, r0
100031b0:	0d10      	lsrs	r0, r2, #20
100031b2:	4223      	tst	r3, r4
100031b4:	d00e      	beq.n	100031d4 <gpio_default_irq_handler+0x1d0>
100031b6:	1d0c      	adds	r4, r1, #4
100031b8:	46a4      	mov	ip, r4
100031ba:	4665      	mov	r5, ip
100031bc:	4c41      	ldr	r4, [pc, #260]	@ (100032c4 <gpio_default_irq_handler+0x2c0>)
100031be:	59e4      	ldr	r4, [r4, r7]
100031c0:	40ec      	lsrs	r4, r5
100031c2:	46a1      	mov	r9, r4
100031c4:	000c      	movs	r4, r1
100031c6:	464d      	mov	r5, r9
100031c8:	3c1c      	subs	r4, #28
100031ca:	0fe4      	lsrs	r4, r4, #31
100031cc:	422c      	tst	r4, r5
100031ce:	d06a      	beq.n	100032a6 <gpio_default_irq_handler+0x2a2>
100031d0:	2800      	cmp	r0, #0
100031d2:	d04a      	beq.n	1000326a <gpio_default_irq_handler+0x266>
100031d4:	001c      	movs	r4, r3
100031d6:	4004      	ands	r4, r0
100031d8:	46a4      	mov	ip, r4
100031da:	0e14      	lsrs	r4, r2, #24
100031dc:	4203      	tst	r3, r0
100031de:	d018      	beq.n	10003212 <gpio_default_irq_handler+0x20e>
100031e0:	1d48      	adds	r0, r1, #5
100031e2:	4680      	mov	r8, r0
100031e4:	4645      	mov	r5, r8
100031e6:	4837      	ldr	r0, [pc, #220]	@ (100032c4 <gpio_default_irq_handler+0x2c0>)
100031e8:	59c0      	ldr	r0, [r0, r7]
100031ea:	40e8      	lsrs	r0, r5
100031ec:	4681      	mov	r9, r0
100031ee:	0008      	movs	r0, r1
100031f0:	464d      	mov	r5, r9
100031f2:	381b      	subs	r0, #27
100031f4:	0fc0      	lsrs	r0, r0, #31
100031f6:	4228      	tst	r0, r5
100031f8:	d109      	bne.n	1000320e <gpio_default_irq_handler+0x20a>
100031fa:	4665      	mov	r5, ip
100031fc:	052d      	lsls	r5, r5, #20
100031fe:	46ac      	mov	ip, r5
10003200:	4640      	mov	r0, r8
10003202:	4666      	mov	r6, ip
10003204:	08c0      	lsrs	r0, r0, #3
10003206:	4d30      	ldr	r5, [pc, #192]	@ (100032c8 <gpio_default_irq_handler+0x2c4>)
10003208:	303c      	adds	r0, #60	@ 0x3c
1000320a:	0080      	lsls	r0, r0, #2
1000320c:	5146      	str	r6, [r0, r5]
1000320e:	2c00      	cmp	r4, #0
10003210:	d02b      	beq.n	1000326a <gpio_default_irq_handler+0x266>
10003212:	0018      	movs	r0, r3
10003214:	4020      	ands	r0, r4
10003216:	4684      	mov	ip, r0
10003218:	0f12      	lsrs	r2, r2, #28
1000321a:	4223      	tst	r3, r4
1000321c:	d02a      	beq.n	10003274 <gpio_default_irq_handler+0x270>
1000321e:	4829      	ldr	r0, [pc, #164]	@ (100032c4 <gpio_default_irq_handler+0x2c0>)
10003220:	1d8c      	adds	r4, r1, #6
10003222:	4681      	mov	r9, r0
10003224:	59c0      	ldr	r0, [r0, r7]
10003226:	40e0      	lsrs	r0, r4
10003228:	4680      	mov	r8, r0
1000322a:	0008      	movs	r0, r1
1000322c:	4645      	mov	r5, r8
1000322e:	381a      	subs	r0, #26
10003230:	0fc0      	lsrs	r0, r0, #31
10003232:	4228      	tst	r0, r5
10003234:	d106      	bne.n	10003244 <gpio_default_irq_handler+0x240>
10003236:	08e0      	lsrs	r0, r4, #3
10003238:	4664      	mov	r4, ip
1000323a:	4d23      	ldr	r5, [pc, #140]	@ (100032c8 <gpio_default_irq_handler+0x2c4>)
1000323c:	303c      	adds	r0, #60	@ 0x3c
1000323e:	0624      	lsls	r4, r4, #24
10003240:	0080      	lsls	r0, r0, #2
10003242:	5144      	str	r4, [r0, r5]
10003244:	2a00      	cmp	r2, #0
10003246:	d010      	beq.n	1000326a <gpio_default_irq_handler+0x266>
10003248:	4648      	mov	r0, r9
1000324a:	59c0      	ldr	r0, [r0, r7]
1000324c:	1dcc      	adds	r4, r1, #7
1000324e:	40e0      	lsrs	r0, r4
10003250:	4684      	mov	ip, r0
10003252:	0008      	movs	r0, r1
10003254:	4665      	mov	r5, ip
10003256:	3819      	subs	r0, #25
10003258:	0fc0      	lsrs	r0, r0, #31
1000325a:	4228      	tst	r0, r5
1000325c:	d105      	bne.n	1000326a <gpio_default_irq_handler+0x266>
1000325e:	08e0      	lsrs	r0, r4, #3
10003260:	303c      	adds	r0, #60	@ 0x3c
10003262:	4c19      	ldr	r4, [pc, #100]	@ (100032c8 <gpio_default_irq_handler+0x2c4>)
10003264:	0712      	lsls	r2, r2, #28
10003266:	0080      	lsls	r0, r0, #2
10003268:	5102      	str	r2, [r0, r4]
1000326a:	3108      	adds	r1, #8
1000326c:	2920      	cmp	r1, #32
1000326e:	d000      	beq.n	10003272 <gpio_default_irq_handler+0x26e>
10003270:	e721      	b.n	100030b6 <gpio_default_irq_handler+0xb2>
10003272:	e714      	b.n	1000309e <gpio_default_irq_handler+0x9a>
10003274:	2a00      	cmp	r2, #0
10003276:	d0f8      	beq.n	1000326a <gpio_default_irq_handler+0x266>
10003278:	4812      	ldr	r0, [pc, #72]	@ (100032c4 <gpio_default_irq_handler+0x2c0>)
1000327a:	4681      	mov	r9, r0
1000327c:	e7e4      	b.n	10003248 <gpio_default_irq_handler+0x244>
1000327e:	4665      	mov	r5, ip
10003280:	022d      	lsls	r5, r5, #8
10003282:	46ac      	mov	ip, r5
10003284:	08f4      	lsrs	r4, r6, #3
10003286:	4666      	mov	r6, ip
10003288:	4d0f      	ldr	r5, [pc, #60]	@ (100032c8 <gpio_default_irq_handler+0x2c4>)
1000328a:	343c      	adds	r4, #60	@ 0x3c
1000328c:	00a4      	lsls	r4, r4, #2
1000328e:	5166      	str	r6, [r4, r5]
10003290:	e772      	b.n	10003178 <gpio_default_irq_handler+0x174>
10003292:	4665      	mov	r5, ip
10003294:	032d      	lsls	r5, r5, #12
10003296:	46ac      	mov	ip, r5
10003298:	08f0      	lsrs	r0, r6, #3
1000329a:	4666      	mov	r6, ip
1000329c:	4d0a      	ldr	r5, [pc, #40]	@ (100032c8 <gpio_default_irq_handler+0x2c4>)
1000329e:	303c      	adds	r0, #60	@ 0x3c
100032a0:	0080      	lsls	r0, r0, #2
100032a2:	5146      	str	r6, [r0, r5]
100032a4:	e77f      	b.n	100031a6 <gpio_default_irq_handler+0x1a2>
100032a6:	4645      	mov	r5, r8
100032a8:	042d      	lsls	r5, r5, #16
100032aa:	46a8      	mov	r8, r5
100032ac:	4664      	mov	r4, ip
100032ae:	4646      	mov	r6, r8
100032b0:	08e4      	lsrs	r4, r4, #3
100032b2:	4d05      	ldr	r5, [pc, #20]	@ (100032c8 <gpio_default_irq_handler+0x2c4>)
100032b4:	343c      	adds	r4, #60	@ 0x3c
100032b6:	00a4      	lsls	r4, r4, #2
100032b8:	5166      	str	r6, [r4, r5]
100032ba:	e789      	b.n	100031d0 <gpio_default_irq_handler+0x1cc>
100032bc:	20004ce8 	.word	0x20004ce8
100032c0:	40014130 	.word	0x40014130
100032c4:	200051b0 	.word	0x200051b0
100032c8:	40014000 	.word	0x40014000

100032cc <gpio_set_function>:
100032cc:	4a09      	ldr	r2, [pc, #36]	@ (100032f4 <gpio_set_function+0x28>)
100032ce:	0083      	lsls	r3, r0, #2
100032d0:	189a      	adds	r2, r3, r2
100032d2:	b510      	push	{r4, lr}
100032d4:	6814      	ldr	r4, [r2, #0]
100032d6:	2240      	movs	r2, #64	@ 0x40
100032d8:	4054      	eors	r4, r2
100032da:	3280      	adds	r2, #128	@ 0x80
100032dc:	4022      	ands	r2, r4
100032de:	4c06      	ldr	r4, [pc, #24]	@ (100032f8 <gpio_set_function+0x2c>)
100032e0:	00c0      	lsls	r0, r0, #3
100032e2:	46a4      	mov	ip, r4
100032e4:	4463      	add	r3, ip
100032e6:	601a      	str	r2, [r3, #0]
100032e8:	4b04      	ldr	r3, [pc, #16]	@ (100032fc <gpio_set_function+0x30>)
100032ea:	469c      	mov	ip, r3
100032ec:	4460      	add	r0, ip
100032ee:	6041      	str	r1, [r0, #4]
100032f0:	bd10      	pop	{r4, pc}
100032f2:	46c0      	nop			@ (mov r8, r8)
100032f4:	4001c004 	.word	0x4001c004
100032f8:	4001d004 	.word	0x4001d004
100032fc:	40014000 	.word	0x40014000

10003300 <gpio_set_pulls>:
10003300:	4b07      	ldr	r3, [pc, #28]	@ (10003320 <gpio_set_pulls+0x20>)
10003302:	0080      	lsls	r0, r0, #2
10003304:	18c3      	adds	r3, r0, r3
10003306:	681b      	ldr	r3, [r3, #0]
10003308:	00c9      	lsls	r1, r1, #3
1000330a:	0092      	lsls	r2, r2, #2
1000330c:	430a      	orrs	r2, r1
1000330e:	405a      	eors	r2, r3
10003310:	230c      	movs	r3, #12
10003312:	4013      	ands	r3, r2
10003314:	4a03      	ldr	r2, [pc, #12]	@ (10003324 <gpio_set_pulls+0x24>)
10003316:	4694      	mov	ip, r2
10003318:	4460      	add	r0, ip
1000331a:	6003      	str	r3, [r0, #0]
1000331c:	4770      	bx	lr
1000331e:	46c0      	nop			@ (mov r8, r8)
10003320:	4001c004 	.word	0x4001c004
10003324:	4001d004 	.word	0x4001d004

10003328 <gpio_set_irq_enabled_with_callback>:
10003328:	b5f8      	push	{r3, r4, r5, r6, r7, lr}
1000332a:	4645      	mov	r5, r8
1000332c:	4698      	mov	r8, r3
1000332e:	23d0      	movs	r3, #208	@ 0xd0
10003330:	061b      	lsls	r3, r3, #24
10003332:	46de      	mov	lr, fp
10003334:	681c      	ldr	r4, [r3, #0]
10003336:	469b      	mov	fp, r3
10003338:	4b2b      	ldr	r3, [pc, #172]	@ (100033e8 <gpio_set_irq_enabled_with_callback+0xc0>)
1000333a:	4657      	mov	r7, sl
1000333c:	469a      	mov	sl, r3
1000333e:	00a3      	lsls	r3, r4, #2
10003340:	464e      	mov	r6, r9
10003342:	4699      	mov	r9, r3
10003344:	b5e0      	push	{r5, r6, r7, lr}
10003346:	4653      	mov	r3, sl
10003348:	0016      	movs	r6, r2
1000334a:	464a      	mov	r2, r9
1000334c:	589b      	ldr	r3, [r3, r2]
1000334e:	0007      	movs	r7, r0
10003350:	000d      	movs	r5, r1
10003352:	2b00      	cmp	r3, #0
10003354:	d034      	beq.n	100033c0 <gpio_set_irq_enabled_with_callback+0x98>
10003356:	4643      	mov	r3, r8
10003358:	2b00      	cmp	r3, #0
1000335a:	d03f      	beq.n	100033dc <gpio_set_irq_enabled_with_callback+0xb4>
1000335c:	4653      	mov	r3, sl
1000335e:	464a      	mov	r2, r9
10003360:	4641      	mov	r1, r8
10003362:	5099      	str	r1, [r3, r2]
10003364:	23d0      	movs	r3, #208	@ 0xd0
10003366:	061b      	lsls	r3, r3, #24
10003368:	681c      	ldr	r4, [r3, #0]
1000336a:	4263      	negs	r3, r4
1000336c:	415c      	adcs	r4, r3
1000336e:	222f      	movs	r2, #47	@ 0x2f
10003370:	2007      	movs	r0, #7
10003372:	4263      	negs	r3, r4
10003374:	4393      	bics	r3, r2
10003376:	4a1d      	ldr	r2, [pc, #116]	@ (100033ec <gpio_set_irq_enabled_with_callback+0xc4>)
10003378:	4038      	ands	r0, r7
1000337a:	4694      	mov	ip, r2
1000337c:	08fa      	lsrs	r2, r7, #3
1000337e:	0011      	movs	r1, r2
10003380:	0080      	lsls	r0, r0, #2
10003382:	4085      	lsls	r5, r0
10003384:	313c      	adds	r1, #60	@ 0x3c
10003386:	481a      	ldr	r0, [pc, #104]	@ (100033f0 <gpio_set_irq_enabled_with_callback+0xc8>)
10003388:	4463      	add	r3, ip
1000338a:	0089      	lsls	r1, r1, #2
1000338c:	0092      	lsls	r2, r2, #2
1000338e:	500d      	str	r5, [r1, r0]
10003390:	189b      	adds	r3, r3, r2
10003392:	2e00      	cmp	r6, #0
10003394:	d00e      	beq.n	100033b4 <gpio_set_irq_enabled_with_callback+0x8c>
10003396:	2280      	movs	r2, #128	@ 0x80
10003398:	0192      	lsls	r2, r2, #6
1000339a:	4694      	mov	ip, r2
1000339c:	4463      	add	r3, ip
1000339e:	2101      	movs	r1, #1
100033a0:	200d      	movs	r0, #13
100033a2:	601d      	str	r5, [r3, #0]
100033a4:	f000 f934 	bl	10003610 <irq_set_enabled>
100033a8:	bcf0      	pop	{r4, r5, r6, r7}
100033aa:	46bb      	mov	fp, r7
100033ac:	46b2      	mov	sl, r6
100033ae:	46a9      	mov	r9, r5
100033b0:	46a0      	mov	r8, r4
100033b2:	bdf8      	pop	{r3, r4, r5, r6, r7, pc}
100033b4:	22c0      	movs	r2, #192	@ 0xc0
100033b6:	0192      	lsls	r2, r2, #6
100033b8:	4694      	mov	ip, r2
100033ba:	4463      	add	r3, ip
100033bc:	601d      	str	r5, [r3, #0]
100033be:	e7f3      	b.n	100033a8 <gpio_set_irq_enabled_with_callback+0x80>
100033c0:	4643      	mov	r3, r8
100033c2:	2b00      	cmp	r3, #0
100033c4:	d0d1      	beq.n	1000336a <gpio_set_irq_enabled_with_callback+0x42>
100033c6:	4653      	mov	r3, sl
100033c8:	4641      	mov	r1, r8
100033ca:	200d      	movs	r0, #13
100033cc:	5099      	str	r1, [r3, r2]
100033ce:	2200      	movs	r2, #0
100033d0:	4908      	ldr	r1, [pc, #32]	@ (100033f4 <gpio_set_irq_enabled_with_callback+0xcc>)
100033d2:	f000 f97f 	bl	100036d4 <irq_add_shared_handler>
100033d6:	465b      	mov	r3, fp
100033d8:	681c      	ldr	r4, [r3, #0]
100033da:	e7c6      	b.n	1000336a <gpio_set_irq_enabled_with_callback+0x42>
100033dc:	200d      	movs	r0, #13
100033de:	4905      	ldr	r1, [pc, #20]	@ (100033f4 <gpio_set_irq_enabled_with_callback+0xcc>)
100033e0:	f000 fa72 	bl	100038c8 <irq_remove_handler>
100033e4:	e7ba      	b.n	1000335c <gpio_set_irq_enabled_with_callback+0x34>
100033e6:	46c0      	nop			@ (mov r8, r8)
100033e8:	20004ce8 	.word	0x20004ce8
100033ec:	40014130 	.word	0x40014130
100033f0:	40014000 	.word	0x40014000
100033f4:	10003005 	.word	0x10003005

100033f8 <gpio_set_input_enabled>:
100033f8:	0080      	lsls	r0, r0, #2
100033fa:	2900      	cmp	r1, #0
100033fc:	d005      	beq.n	1000340a <gpio_set_input_enabled+0x12>
100033fe:	4b06      	ldr	r3, [pc, #24]	@ (10003418 <gpio_set_input_enabled+0x20>)
10003400:	469c      	mov	ip, r3
10003402:	2340      	movs	r3, #64	@ 0x40
10003404:	4460      	add	r0, ip
10003406:	6003      	str	r3, [r0, #0]
10003408:	4770      	bx	lr
1000340a:	4b04      	ldr	r3, [pc, #16]	@ (1000341c <gpio_set_input_enabled+0x24>)
1000340c:	469c      	mov	ip, r3
1000340e:	2340      	movs	r3, #64	@ 0x40
10003410:	4460      	add	r0, ip
10003412:	6003      	str	r3, [r0, #0]
10003414:	e7f8      	b.n	10003408 <gpio_set_input_enabled+0x10>
10003416:	46c0      	nop			@ (mov r8, r8)
10003418:	4001e004 	.word	0x4001e004
1000341c:	4001f004 	.word	0x4001f004

10003420 <gpio_init>:
10003420:	2301      	movs	r3, #1
10003422:	22d0      	movs	r2, #208	@ 0xd0
10003424:	4083      	lsls	r3, r0
10003426:	0612      	lsls	r2, r2, #24
10003428:	6293      	str	r3, [r2, #40]	@ 0x28
1000342a:	6193      	str	r3, [r2, #24]
1000342c:	4a09      	ldr	r2, [pc, #36]	@ (10003454 <gpio_init+0x34>)
1000342e:	0083      	lsls	r3, r0, #2
10003430:	189a      	adds	r2, r3, r2
10003432:	6811      	ldr	r1, [r2, #0]
10003434:	2240      	movs	r2, #64	@ 0x40
10003436:	4051      	eors	r1, r2
10003438:	3280      	adds	r2, #128	@ 0x80
1000343a:	400a      	ands	r2, r1
1000343c:	4906      	ldr	r1, [pc, #24]	@ (10003458 <gpio_init+0x38>)
1000343e:	00c0      	lsls	r0, r0, #3
10003440:	468c      	mov	ip, r1
10003442:	4463      	add	r3, ip
10003444:	601a      	str	r2, [r3, #0]
10003446:	4b05      	ldr	r3, [pc, #20]	@ (1000345c <gpio_init+0x3c>)
10003448:	469c      	mov	ip, r3
1000344a:	2305      	movs	r3, #5
1000344c:	4460      	add	r0, ip
1000344e:	6043      	str	r3, [r0, #4]
10003450:	4770      	bx	lr
10003452:	46c0      	nop			@ (mov r8, r8)
10003454:	4001c004 	.word	0x4001c004
10003458:	4001d004 	.word	0x4001d004
1000345c:	40014000 	.word	0x40014000

10003460 <rp2040_chip_version>:
10003460:	2380      	movs	r3, #128	@ 0x80
10003462:	05db      	lsls	r3, r3, #23
10003464:	6818      	ldr	r0, [r3, #0]
10003466:	0f00      	lsrs	r0, r0, #28
10003468:	4770      	bx	lr
1000346a:	46c0      	nop			@ (mov r8, r8)

1000346c <panic>:
1000346c:	b40f      	push	{r0, r1, r2, r3}
1000346e:	b500      	push	{lr}
10003470:	4808      	ldr	r0, [pc, #32]	@ (10003494 <panic+0x28>)
10003472:	b083      	sub	sp, #12
10003474:	f003 ffba 	bl	100073ec <__wrap_puts>
10003478:	9b04      	ldr	r3, [sp, #16]
1000347a:	2b00      	cmp	r3, #0
1000347c:	d007      	beq.n	1000348e <panic+0x22>
1000347e:	a905      	add	r1, sp, #20
10003480:	0018      	movs	r0, r3
10003482:	9101      	str	r1, [sp, #4]
10003484:	f003 fdee 	bl	10007064 <weak_raw_vprintf>
10003488:	4803      	ldr	r0, [pc, #12]	@ (10003498 <panic+0x2c>)
1000348a:	f003 ffaf 	bl	100073ec <__wrap_puts>
1000348e:	2001      	movs	r0, #1
10003490:	f003 fe00 	bl	10007094 <_exit>
10003494:	1000b5a0 	.word	0x1000b5a0
10003498:	1000b508 	.word	0x1000b508

1000349c <hw_claim_lock>:
1000349c:	f3ef 8010 	mrs	r0, PRIMASK
100034a0:	b672      	cpsid	i
100034a2:	4a03      	ldr	r2, [pc, #12]	@ (100034b0 <hw_claim_lock+0x14>)
100034a4:	6813      	ldr	r3, [r2, #0]
100034a6:	2b00      	cmp	r3, #0
100034a8:	d0fc      	beq.n	100034a4 <hw_claim_lock+0x8>
100034aa:	f3bf 8f5f 	dmb	sy
100034ae:	4770      	bx	lr
100034b0:	d000012c 	.word	0xd000012c

100034b4 <hw_claim_unlock>:
100034b4:	f3bf 8f5f 	dmb	sy
100034b8:	2200      	movs	r2, #0
100034ba:	4b02      	ldr	r3, [pc, #8]	@ (100034c4 <hw_claim_unlock+0x10>)
100034bc:	601a      	str	r2, [r3, #0]
100034be:	f380 8810 	msr	PRIMASK, r0
100034c2:	4770      	bx	lr
100034c4:	d000012c 	.word	0xd000012c

100034c8 <hw_claim_or_assert>:
100034c8:	b570      	push	{r4, r5, r6, lr}
100034ca:	f3ef 8c10 	mrs	ip, PRIMASK
100034ce:	b672      	cpsid	i
100034d0:	4d0d      	ldr	r5, [pc, #52]	@ (10003508 <hw_claim_or_assert+0x40>)
100034d2:	682b      	ldr	r3, [r5, #0]
100034d4:	2b00      	cmp	r3, #0
100034d6:	d0fc      	beq.n	100034d2 <hw_claim_or_assert+0xa>
100034d8:	f3bf 8f5f 	dmb	sy
100034dc:	2407      	movs	r4, #7
100034de:	08cb      	lsrs	r3, r1, #3
100034e0:	18c6      	adds	r6, r0, r3
100034e2:	5cc0      	ldrb	r0, [r0, r3]
100034e4:	2301      	movs	r3, #1
100034e6:	400c      	ands	r4, r1
100034e8:	40a3      	lsls	r3, r4
100034ea:	001c      	movs	r4, r3
100034ec:	4004      	ands	r4, r0
100034ee:	4203      	tst	r3, r0
100034f0:	d107      	bne.n	10003502 <hw_claim_or_assert+0x3a>
100034f2:	4318      	orrs	r0, r3
100034f4:	7030      	strb	r0, [r6, #0]
100034f6:	f3bf 8f5f 	dmb	sy
100034fa:	602c      	str	r4, [r5, #0]
100034fc:	f38c 8810 	msr	PRIMASK, ip
10003500:	bd70      	pop	{r4, r5, r6, pc}
10003502:	0010      	movs	r0, r2
10003504:	f7ff ffb2 	bl	1000346c <panic>
10003508:	d000012c 	.word	0xd000012c

1000350c <hw_claim_unused_from_range>:
1000350c:	b5f8      	push	{r3, r4, r5, r6, r7, lr}
1000350e:	4647      	mov	r7, r8
10003510:	46ce      	mov	lr, r9
10003512:	4688      	mov	r8, r1
10003514:	b580      	push	{r7, lr}
10003516:	f3ef 8c10 	mrs	ip, PRIMASK
1000351a:	b672      	cpsid	i
1000351c:	4d1c      	ldr	r5, [pc, #112]	@ (10003590 <hw_claim_unused_from_range+0x84>)
1000351e:	682c      	ldr	r4, [r5, #0]
10003520:	2c00      	cmp	r4, #0
10003522:	d0fc      	beq.n	1000351e <hw_claim_unused_from_range+0x12>
10003524:	f3bf 8f5f 	dmb	sy
10003528:	429a      	cmp	r2, r3
1000352a:	d822      	bhi.n	10003572 <hw_claim_unused_from_range+0x66>
1000352c:	2107      	movs	r1, #7
1000352e:	2601      	movs	r6, #1
10003530:	4689      	mov	r9, r1
10003532:	e002      	b.n	1000353a <hw_claim_unused_from_range+0x2e>
10003534:	3201      	adds	r2, #1
10003536:	4293      	cmp	r3, r2
10003538:	d318      	bcc.n	1000356c <hw_claim_unused_from_range+0x60>
1000353a:	464d      	mov	r5, r9
1000353c:	0037      	movs	r7, r6
1000353e:	4015      	ands	r5, r2
10003540:	40af      	lsls	r7, r5
10003542:	08d4      	lsrs	r4, r2, #3
10003544:	1901      	adds	r1, r0, r4
10003546:	5d04      	ldrb	r4, [r0, r4]
10003548:	4227      	tst	r7, r4
1000354a:	d1f3      	bne.n	10003534 <hw_claim_unused_from_range+0x28>
1000354c:	0010      	movs	r0, r2
1000354e:	433c      	orrs	r4, r7
10003550:	700c      	strb	r4, [r1, #0]
10003552:	f3bf 8f5f 	dmb	sy
10003556:	2200      	movs	r2, #0
10003558:	4b0d      	ldr	r3, [pc, #52]	@ (10003590 <hw_claim_unused_from_range+0x84>)
1000355a:	601a      	str	r2, [r3, #0]
1000355c:	f38c 8810 	msr	PRIMASK, ip
10003560:	2800      	cmp	r0, #0
10003562:	db0e      	blt.n	10003582 <hw_claim_unused_from_range+0x76>
10003564:	bcc0      	pop	{r6, r7}
10003566:	46b9      	mov	r9, r7
10003568:	46b0      	mov	r8, r6
1000356a:	bdf8      	pop	{r3, r4, r5, r6, r7, pc}
1000356c:	2001      	movs	r0, #1
1000356e:	4240      	negs	r0, r0
10003570:	e7ef      	b.n	10003552 <hw_claim_unused_from_range+0x46>
10003572:	f3bf 8f5f 	dmb	sy
10003576:	2300      	movs	r3, #0
10003578:	602b      	str	r3, [r5, #0]
1000357a:	f38c 8810 	msr	PRIMASK, ip
1000357e:	2001      	movs	r0, #1
10003580:	4240      	negs	r0, r0
10003582:	4643      	mov	r3, r8
10003584:	2b00      	cmp	r3, #0
10003586:	d0ed      	beq.n	10003564 <hw_claim_unused_from_range+0x58>
10003588:	9808      	ldr	r0, [sp, #32]
1000358a:	f7ff ff6f 	bl	1000346c <panic>
1000358e:	46c0      	nop			@ (mov r8, r8)
10003590:	d000012c 	.word	0xd000012c

10003594 <next_striped_spin_lock_num>:
10003594:	4a04      	ldr	r2, [pc, #16]	@ (100035a8 <next_striped_spin_lock_num+0x14>)
10003596:	7810      	ldrb	r0, [r2, #0]
10003598:	1c43      	adds	r3, r0, #1
1000359a:	b2db      	uxtb	r3, r3
1000359c:	2b17      	cmp	r3, #23
1000359e:	d900      	bls.n	100035a2 <next_striped_spin_lock_num+0xe>
100035a0:	2310      	movs	r3, #16
100035a2:	7013      	strb	r3, [r2, #0]
100035a4:	4770      	bx	lr
100035a6:	46c0      	nop			@ (mov r8, r8)
100035a8:	20003630 	.word	0x20003630

100035ac <spin_lock_claim_unused>:
100035ac:	b510      	push	{r4, lr}
100035ae:	4b06      	ldr	r3, [pc, #24]	@ (100035c8 <spin_lock_claim_unused+0x1c>)
100035b0:	4c06      	ldr	r4, [pc, #24]	@ (100035cc <spin_lock_claim_unused+0x20>)
100035b2:	b082      	sub	sp, #8
100035b4:	0001      	movs	r1, r0
100035b6:	9300      	str	r3, [sp, #0]
100035b8:	2218      	movs	r2, #24
100035ba:	231f      	movs	r3, #31
100035bc:	0020      	movs	r0, r4
100035be:	f7ff ffa5 	bl	1000350c <hw_claim_unused_from_range>
100035c2:	b002      	add	sp, #8
100035c4:	bd10      	pop	{r4, pc}
100035c6:	46c0      	nop			@ (mov r8, r8)
100035c8:	1000b5b0 	.word	0x1000b5b0
100035cc:	20004cf8 	.word	0x20004cf8

100035d0 <spin_locks_reset>:
100035d0:	2100      	movs	r1, #0
100035d2:	4b04      	ldr	r3, [pc, #16]	@ (100035e4 <spin_locks_reset+0x14>)
100035d4:	4a04      	ldr	r2, [pc, #16]	@ (100035e8 <spin_locks_reset+0x18>)
100035d6:	f3bf 8f5f 	dmb	sy
100035da:	c302      	stmia	r3!, {r1}
100035dc:	4293      	cmp	r3, r2
100035de:	d1fa      	bne.n	100035d6 <spin_locks_reset+0x6>
100035e0:	4770      	bx	lr
100035e2:	46c0      	nop			@ (mov r8, r8)
100035e4:	d0000100 	.word	0xd0000100
100035e8:	d0000180 	.word	0xd0000180

100035ec <runtime_init_per_core_irq_priorities>:
100035ec:	4b05      	ldr	r3, [pc, #20]	@ (10003604 <runtime_init_per_core_irq_priorities+0x18>)
100035ee:	4a06      	ldr	r2, [pc, #24]	@ (10003608 <runtime_init_per_core_irq_priorities+0x1c>)
100035f0:	6013      	str	r3, [r2, #0]
100035f2:	4a06      	ldr	r2, [pc, #24]	@ (1000360c <runtime_init_per_core_irq_priorities+0x20>)
100035f4:	6013      	str	r3, [r2, #0]
100035f6:	6053      	str	r3, [r2, #4]
100035f8:	6093      	str	r3, [r2, #8]
100035fa:	60d3      	str	r3, [r2, #12]
100035fc:	6113      	str	r3, [r2, #16]
100035fe:	6153      	str	r3, [r2, #20]
10003600:	6193      	str	r3, [r2, #24]
10003602:	4770      	bx	lr
10003604:	80808080 	.word	0x80808080
10003608:	e000e400 	.word	0xe000e400
1000360c:	e000e404 	.word	0xe000e404

10003610 <irq_set_enabled>:
10003610:	231f      	movs	r3, #31
10003612:	4018      	ands	r0, r3
10003614:	3b1e      	subs	r3, #30
10003616:	4083      	lsls	r3, r0
10003618:	2900      	cmp	r1, #0
1000361a:	d005      	beq.n	10003628 <irq_set_enabled+0x18>
1000361c:	21c0      	movs	r1, #192	@ 0xc0
1000361e:	4a04      	ldr	r2, [pc, #16]	@ (10003630 <irq_set_enabled+0x20>)
10003620:	0049      	lsls	r1, r1, #1
10003622:	5053      	str	r3, [r2, r1]
10003624:	6013      	str	r3, [r2, #0]
10003626:	4770      	bx	lr
10003628:	2280      	movs	r2, #128	@ 0x80
1000362a:	4901      	ldr	r1, [pc, #4]	@ (10003630 <irq_set_enabled+0x20>)
1000362c:	508b      	str	r3, [r1, r2]
1000362e:	e7fa      	b.n	10003626 <irq_set_enabled+0x16>
10003630:	e000e100 	.word	0xe000e100

10003634 <irq_is_enabled>:
10003634:	2201      	movs	r2, #1
10003636:	4082      	lsls	r2, r0
10003638:	4b03      	ldr	r3, [pc, #12]	@ (10003648 <irq_is_enabled+0x14>)
1000363a:	681b      	ldr	r3, [r3, #0]
1000363c:	4013      	ands	r3, r2
1000363e:	1e5a      	subs	r2, r3, #1
10003640:	4193      	sbcs	r3, r2
10003642:	b2d8      	uxtb	r0, r3
10003644:	4770      	bx	lr
10003646:	46c0      	nop			@ (mov r8, r8)
10003648:	e000e100 	.word	0xe000e100

1000364c <irq_set_pending>:
1000364c:	2301      	movs	r3, #1
1000364e:	4083      	lsls	r3, r0
10003650:	4a01      	ldr	r2, [pc, #4]	@ (10003658 <irq_set_pending+0xc>)
10003652:	6013      	str	r3, [r2, #0]
10003654:	4770      	bx	lr
10003656:	46c0      	nop			@ (mov r8, r8)
10003658:	e000e200 	.word	0xe000e200

1000365c <irq_has_shared_handler>:
1000365c:	4b06      	ldr	r3, [pc, #24]	@ (10003678 <irq_has_shared_handler+0x1c>)
1000365e:	3010      	adds	r0, #16
10003660:	689b      	ldr	r3, [r3, #8]
10003662:	0080      	lsls	r0, r0, #2
10003664:	58c3      	ldr	r3, [r0, r3]
10003666:	4a05      	ldr	r2, [pc, #20]	@ (1000367c <irq_has_shared_handler+0x20>)
10003668:	2000      	movs	r0, #0
1000366a:	1a9b      	subs	r3, r3, r2
1000366c:	222f      	movs	r2, #47	@ 0x2f
1000366e:	429a      	cmp	r2, r3
10003670:	4140      	adcs	r0, r0
10003672:	b2c0      	uxtb	r0, r0
10003674:	4770      	bx	lr
10003676:	46c0      	nop			@ (mov r8, r8)
10003678:	e000ed00 	.word	0xe000ed00
1000367c:	20003634 	.word	0x20003634

10003680 <irq_set_exclusive_handler>:
10003680:	b570      	push	{r4, r5, r6, lr}
10003682:	000d      	movs	r5, r1
10003684:	f3ef 8610 	mrs	r6, PRIMASK
10003688:	b672      	cpsid	i
1000368a:	4a0f      	ldr	r2, [pc, #60]	@ (100036c8 <irq_set_exclusive_handler+0x48>)
1000368c:	6813      	ldr	r3, [r2, #0]
1000368e:	2b00      	cmp	r3, #0
10003690:	d0fc      	beq.n	1000368c <irq_set_exclusive_handler+0xc>
10003692:	f3bf 8f5f 	dmb	sy
10003696:	4b0d      	ldr	r3, [pc, #52]	@ (100036cc <irq_set_exclusive_handler+0x4c>)
10003698:	3010      	adds	r0, #16
1000369a:	689b      	ldr	r3, [r3, #8]
1000369c:	0084      	lsls	r4, r0, #2
1000369e:	591b      	ldr	r3, [r3, r4]
100036a0:	4a0b      	ldr	r2, [pc, #44]	@ (100036d0 <irq_set_exclusive_handler+0x50>)
100036a2:	4293      	cmp	r3, r2
100036a4:	d003      	beq.n	100036ae <irq_set_exclusive_handler+0x2e>
100036a6:	429d      	cmp	r5, r3
100036a8:	d001      	beq.n	100036ae <irq_set_exclusive_handler+0x2e>
100036aa:	f001 fb09 	bl	10004cc0 <hard_assertion_failure>
100036ae:	4b07      	ldr	r3, [pc, #28]	@ (100036cc <irq_set_exclusive_handler+0x4c>)
100036b0:	689b      	ldr	r3, [r3, #8]
100036b2:	511d      	str	r5, [r3, r4]
100036b4:	f3bf 8f5f 	dmb	sy
100036b8:	f3bf 8f5f 	dmb	sy
100036bc:	2200      	movs	r2, #0
100036be:	4b02      	ldr	r3, [pc, #8]	@ (100036c8 <irq_set_exclusive_handler+0x48>)
100036c0:	601a      	str	r2, [r3, #0]
100036c2:	f386 8810 	msr	PRIMASK, r6
100036c6:	bd70      	pop	{r4, r5, r6, pc}
100036c8:	d0000124 	.word	0xd0000124
100036cc:	e000ed00 	.word	0xe000ed00
100036d0:	100001cd 	.word	0x100001cd

100036d4 <irq_add_shared_handler>:
100036d4:	b5f0      	push	{r4, r5, r6, r7, lr}
100036d6:	4657      	mov	r7, sl
100036d8:	464e      	mov	r6, r9
100036da:	46de      	mov	lr, fp
100036dc:	4645      	mov	r5, r8
100036de:	b5e0      	push	{r5, r6, r7, lr}
100036e0:	b085      	sub	sp, #20
100036e2:	0006      	movs	r6, r0
100036e4:	9100      	str	r1, [sp, #0]
100036e6:	0017      	movs	r7, r2
100036e8:	f3ef 8b10 	mrs	fp, PRIMASK
100036ec:	b672      	cpsid	i
100036ee:	4a6a      	ldr	r2, [pc, #424]	@ (10003898 <irq_add_shared_handler+0x1c4>)
100036f0:	6813      	ldr	r3, [r2, #0]
100036f2:	2b00      	cmp	r3, #0
100036f4:	d0fc      	beq.n	100036f0 <irq_add_shared_handler+0x1c>
100036f6:	f3bf 8f5f 	dmb	sy
100036fa:	2500      	movs	r5, #0
100036fc:	4b67      	ldr	r3, [pc, #412]	@ (1000389c <irq_add_shared_handler+0x1c8>)
100036fe:	575d      	ldrsb	r5, [r3, r5]
10003700:	469a      	mov	sl, r3
10003702:	2d00      	cmp	r5, #0
10003704:	da00      	bge.n	10003708 <irq_add_shared_handler+0x34>
10003706:	e0a9      	b.n	1000385c <irq_add_shared_handler+0x188>
10003708:	006b      	lsls	r3, r5, #1
1000370a:	4c65      	ldr	r4, [pc, #404]	@ (100038a0 <irq_add_shared_handler+0x1cc>)
1000370c:	9301      	str	r3, [sp, #4]
1000370e:	195b      	adds	r3, r3, r5
10003710:	009b      	lsls	r3, r3, #2
10003712:	4698      	mov	r8, r3
10003714:	46a1      	mov	r9, r4
10003716:	44c1      	add	r9, r8
10003718:	464b      	mov	r3, r9
1000371a:	4652      	mov	r2, sl
1000371c:	799b      	ldrb	r3, [r3, #6]
1000371e:	3610      	adds	r6, #16
10003720:	7013      	strb	r3, [r2, #0]
10003722:	4b60      	ldr	r3, [pc, #384]	@ (100038a4 <irq_add_shared_handler+0x1d0>)
10003724:	00b6      	lsls	r6, r6, #2
10003726:	689b      	ldr	r3, [r3, #8]
10003728:	5999      	ldr	r1, [r3, r6]
1000372a:	1b0b      	subs	r3, r1, r4
1000372c:	2b2f      	cmp	r3, #47	@ 0x2f
1000372e:	d933      	bls.n	10003798 <irq_add_shared_handler+0xc4>
10003730:	4b5d      	ldr	r3, [pc, #372]	@ (100038a8 <irq_add_shared_handler+0x1d4>)
10003732:	4299      	cmp	r1, r3
10003734:	d000      	beq.n	10003738 <irq_add_shared_handler+0x64>
10003736:	e0ac      	b.n	10003892 <irq_add_shared_handler+0x1be>
10003738:	9b01      	ldr	r3, [sp, #4]
1000373a:	4642      	mov	r2, r8
1000373c:	469c      	mov	ip, r3
1000373e:	4b5b      	ldr	r3, [pc, #364]	@ (100038ac <irq_add_shared_handler+0x1d8>)
10003740:	4465      	add	r5, ip
10003742:	00ad      	lsls	r5, r5, #2
10003744:	5363      	strh	r3, [r4, r5]
10003746:	4b5a      	ldr	r3, [pc, #360]	@ (100038b0 <irq_add_shared_handler+0x1dc>)
10003748:	3202      	adds	r2, #2
1000374a:	18a2      	adds	r2, r4, r2
1000374c:	3b04      	subs	r3, #4
1000374e:	1a9b      	subs	r3, r3, r2
10003750:	051b      	lsls	r3, r3, #20
10003752:	4a58      	ldr	r2, [pc, #352]	@ (100038b4 <irq_add_shared_handler+0x1e0>)
10003754:	0d5b      	lsrs	r3, r3, #21
10003756:	1965      	adds	r5, r4, r5
10003758:	4313      	orrs	r3, r2
1000375a:	806b      	strh	r3, [r5, #2]
1000375c:	4b56      	ldr	r3, [pc, #344]	@ (100038b8 <irq_add_shared_handler+0x1e4>)
1000375e:	2101      	movs	r1, #1
10003760:	80ab      	strh	r3, [r5, #4]
10003762:	23ff      	movs	r3, #255	@ 0xff
10003764:	71ab      	strb	r3, [r5, #6]
10003766:	9b00      	ldr	r3, [sp, #0]
10003768:	71ef      	strb	r7, [r5, #7]
1000376a:	60ab      	str	r3, [r5, #8]
1000376c:	464b      	mov	r3, r9
1000376e:	430b      	orrs	r3, r1
10003770:	0019      	movs	r1, r3
10003772:	4b4c      	ldr	r3, [pc, #304]	@ (100038a4 <irq_add_shared_handler+0x1d0>)
10003774:	689b      	ldr	r3, [r3, #8]
10003776:	5199      	str	r1, [r3, r6]
10003778:	f3bf 8f5f 	dmb	sy
1000377c:	f3bf 8f5f 	dmb	sy
10003780:	2200      	movs	r2, #0
10003782:	4b45      	ldr	r3, [pc, #276]	@ (10003898 <irq_add_shared_handler+0x1c4>)
10003784:	601a      	str	r2, [r3, #0]
10003786:	f38b 8810 	msr	PRIMASK, fp
1000378a:	b005      	add	sp, #20
1000378c:	bcf0      	pop	{r4, r5, r6, r7}
1000378e:	46bb      	mov	fp, r7
10003790:	46b2      	mov	sl, r6
10003792:	46a9      	mov	r9, r5
10003794:	46a0      	mov	r8, r4
10003796:	bdf0      	pop	{r4, r5, r6, r7, pc}
10003798:	2001      	movs	r0, #1
1000379a:	000a      	movs	r2, r1
1000379c:	4382      	bics	r2, r0
1000379e:	79d3      	ldrb	r3, [r2, #7]
100037a0:	468c      	mov	ip, r1
100037a2:	42bb      	cmp	r3, r7
100037a4:	d831      	bhi.n	1000380a <irq_add_shared_handler+0x136>
100037a6:	4645      	mov	r5, r8
100037a8:	0013      	movs	r3, r2
100037aa:	4944      	ldr	r1, [pc, #272]	@ (100038bc <irq_add_shared_handler+0x1e8>)
100037ac:	1b1b      	subs	r3, r3, r4
100037ae:	415b      	adcs	r3, r3
100037b0:	4359      	muls	r1, r3
100037b2:	0d09      	lsrs	r1, r1, #20
100037b4:	4b3d      	ldr	r3, [pc, #244]	@ (100038ac <irq_add_shared_handler+0x1d8>)
100037b6:	5363      	strh	r3, [r4, r5]
100037b8:	4b3d      	ldr	r3, [pc, #244]	@ (100038b0 <irq_add_shared_handler+0x1dc>)
100037ba:	3502      	adds	r5, #2
100037bc:	1965      	adds	r5, r4, r5
100037be:	3b04      	subs	r3, #4
100037c0:	1b5b      	subs	r3, r3, r5
100037c2:	051b      	lsls	r3, r3, #20
100037c4:	4d3b      	ldr	r5, [pc, #236]	@ (100038b4 <irq_add_shared_handler+0x1e0>)
100037c6:	0d5b      	lsrs	r3, r3, #21
100037c8:	432b      	orrs	r3, r5
100037ca:	46aa      	mov	sl, r5
100037cc:	464d      	mov	r5, r9
100037ce:	806b      	strh	r3, [r5, #2]
100037d0:	2504      	movs	r5, #4
100037d2:	46ac      	mov	ip, r5
100037d4:	4655      	mov	r5, sl
100037d6:	44e0      	add	r8, ip
100037d8:	1f13      	subs	r3, r2, #4
100037da:	4444      	add	r4, r8
100037dc:	1b1b      	subs	r3, r3, r4
100037de:	051b      	lsls	r3, r3, #20
100037e0:	0d5b      	lsrs	r3, r3, #21
100037e2:	431d      	orrs	r5, r3
100037e4:	464b      	mov	r3, r9
100037e6:	7199      	strb	r1, [r3, #6]
100037e8:	9900      	ldr	r1, [sp, #0]
100037ea:	809d      	strh	r5, [r3, #4]
100037ec:	6099      	str	r1, [r3, #8]
100037ee:	4649      	mov	r1, r9
100037f0:	71df      	strb	r7, [r3, #7]
100037f2:	4b33      	ldr	r3, [pc, #204]	@ (100038c0 <irq_add_shared_handler+0x1ec>)
100037f4:	4301      	orrs	r1, r0
100037f6:	6013      	str	r3, [r2, #0]
100037f8:	e7bb      	b.n	10003772 <irq_add_shared_handler+0x9e>
100037fa:	0058      	lsls	r0, r3, #1
100037fc:	18c0      	adds	r0, r0, r3
100037fe:	0080      	lsls	r0, r0, #2
10003800:	1820      	adds	r0, r4, r0
10003802:	79c1      	ldrb	r1, [r0, #7]
10003804:	42b9      	cmp	r1, r7
10003806:	d92f      	bls.n	10003868 <irq_add_shared_handler+0x194>
10003808:	0002      	movs	r2, r0
1000380a:	2306      	movs	r3, #6
1000380c:	56d3      	ldrsb	r3, [r2, r3]
1000380e:	2b00      	cmp	r3, #0
10003810:	daf3      	bge.n	100037fa <irq_add_shared_handler+0x126>
10003812:	9302      	str	r3, [sp, #8]
10003814:	4b2b      	ldr	r3, [pc, #172]	@ (100038c4 <irq_add_shared_handler+0x1f0>)
10003816:	4661      	mov	r1, ip
10003818:	9303      	str	r3, [sp, #12]
1000381a:	1d13      	adds	r3, r2, #4
1000381c:	469a      	mov	sl, r3
1000381e:	2304      	movs	r3, #4
10003820:	425b      	negs	r3, r3
10003822:	469c      	mov	ip, r3
10003824:	44e1      	add	r9, ip
10003826:	4650      	mov	r0, sl
10003828:	464b      	mov	r3, r9
1000382a:	1a1b      	subs	r3, r3, r0
1000382c:	051b      	lsls	r3, r3, #20
1000382e:	0d5b      	lsrs	r3, r3, #21
10003830:	469c      	mov	ip, r3
10003832:	4b20      	ldr	r3, [pc, #128]	@ (100038b4 <irq_add_shared_handler+0x1e0>)
10003834:	7195      	strb	r5, [r2, #6]
10003836:	4698      	mov	r8, r3
10003838:	4663      	mov	r3, ip
1000383a:	4640      	mov	r0, r8
1000383c:	4303      	orrs	r3, r0
1000383e:	8093      	strh	r3, [r2, #4]
10003840:	9b01      	ldr	r3, [sp, #4]
10003842:	195a      	adds	r2, r3, r5
10003844:	0092      	lsls	r2, r2, #2
10003846:	9b03      	ldr	r3, [sp, #12]
10003848:	18a4      	adds	r4, r4, r2
1000384a:	80a3      	strh	r3, [r4, #4]
1000384c:	9b02      	ldr	r3, [sp, #8]
1000384e:	4a1c      	ldr	r2, [pc, #112]	@ (100038c0 <irq_add_shared_handler+0x1ec>)
10003850:	71a3      	strb	r3, [r4, #6]
10003852:	9b00      	ldr	r3, [sp, #0]
10003854:	6022      	str	r2, [r4, #0]
10003856:	71e7      	strb	r7, [r4, #7]
10003858:	60a3      	str	r3, [r4, #8]
1000385a:	e78a      	b.n	10003772 <irq_add_shared_handler+0x9e>
1000385c:	f001 fa30 	bl	10004cc0 <hard_assertion_failure>
10003860:	2500      	movs	r5, #0
10003862:	4653      	mov	r3, sl
10003864:	575d      	ldrsb	r5, [r3, r5]
10003866:	e74f      	b.n	10003708 <irq_add_shared_handler+0x34>
10003868:	8890      	ldrh	r0, [r2, #4]
1000386a:	9302      	str	r3, [sp, #8]
1000386c:	0540      	lsls	r0, r0, #21
1000386e:	1d13      	adds	r3, r2, #4
10003870:	469a      	mov	sl, r3
10003872:	1503      	asrs	r3, r0, #20
10003874:	4661      	mov	r1, ip
10003876:	469c      	mov	ip, r3
10003878:	4640      	mov	r0, r8
1000387a:	44d4      	add	ip, sl
1000387c:	4663      	mov	r3, ip
1000387e:	3004      	adds	r0, #4
10003880:	1820      	adds	r0, r4, r0
10003882:	1a18      	subs	r0, r3, r0
10003884:	23e0      	movs	r3, #224	@ 0xe0
10003886:	0500      	lsls	r0, r0, #20
10003888:	0d40      	lsrs	r0, r0, #21
1000388a:	021b      	lsls	r3, r3, #8
1000388c:	4318      	orrs	r0, r3
1000388e:	9003      	str	r0, [sp, #12]
10003890:	e7c5      	b.n	1000381e <irq_add_shared_handler+0x14a>
10003892:	f001 fa15 	bl	10004cc0 <hard_assertion_failure>
10003896:	e74f      	b.n	10003738 <irq_add_shared_handler+0x64>
10003898:	d0000124 	.word	0xd0000124
1000389c:	20005308 	.word	0x20005308
100038a0:	20003634 	.word	0x20003634
100038a4:	e000ed00 	.word	0xe000ed00
100038a8:	100001cd 	.word	0x100001cd
100038ac:	ffffa100 	.word	0xffffa100
100038b0:	20003664 	.word	0x20003664
100038b4:	ffffe000 	.word	0xffffe000
100038b8:	ffffbd01 	.word	0xffffbd01
100038bc:	0000aaaa 	.word	0x0000aaaa
100038c0:	47804801 	.word	0x47804801
100038c4:	0000bd01 	.word	0x0000bd01

100038c8 <irq_remove_handler>:
100038c8:	b5f0      	push	{r4, r5, r6, r7, lr}
100038ca:	46de      	mov	lr, fp
100038cc:	4657      	mov	r7, sl
100038ce:	464e      	mov	r6, r9
100038d0:	4645      	mov	r5, r8
100038d2:	b5e0      	push	{r5, r6, r7, lr}
100038d4:	000c      	movs	r4, r1
100038d6:	b083      	sub	sp, #12
100038d8:	f3ef 8810 	mrs	r8, PRIMASK
100038dc:	b672      	cpsid	i
100038de:	4a63      	ldr	r2, [pc, #396]	@ (10003a6c <irq_remove_handler+0x1a4>)
100038e0:	6813      	ldr	r3, [r2, #0]
100038e2:	2b00      	cmp	r3, #0
100038e4:	d0fc      	beq.n	100038e0 <irq_remove_handler+0x18>
100038e6:	f3bf 8f5f 	dmb	sy
100038ea:	4b61      	ldr	r3, [pc, #388]	@ (10003a70 <irq_remove_handler+0x1a8>)
100038ec:	4961      	ldr	r1, [pc, #388]	@ (10003a74 <irq_remove_handler+0x1ac>)
100038ee:	689a      	ldr	r2, [r3, #8]
100038f0:	0003      	movs	r3, r0
100038f2:	3310      	adds	r3, #16
100038f4:	009f      	lsls	r7, r3, #2
100038f6:	59d5      	ldr	r5, [r2, r7]
100038f8:	9301      	str	r3, [sp, #4]
100038fa:	428d      	cmp	r5, r1
100038fc:	d043      	beq.n	10003986 <irq_remove_handler+0xbe>
100038fe:	42a5      	cmp	r5, r4
10003900:	d054      	beq.n	100039ac <irq_remove_handler+0xe4>
10003902:	4e5d      	ldr	r6, [pc, #372]	@ (10003a78 <irq_remove_handler+0x1b0>)
10003904:	1baa      	subs	r2, r5, r6
10003906:	2a2f      	cmp	r2, #47	@ 0x2f
10003908:	d83d      	bhi.n	10003986 <irq_remove_handler+0xbe>
1000390a:	4b5c      	ldr	r3, [pc, #368]	@ (10003a7c <irq_remove_handler+0x1b4>)
1000390c:	469b      	mov	fp, r3
1000390e:	681b      	ldr	r3, [r3, #0]
10003910:	4699      	mov	r9, r3
10003912:	2301      	movs	r3, #1
10003914:	001a      	movs	r2, r3
10003916:	469c      	mov	ip, r3
10003918:	4082      	lsls	r2, r0
1000391a:	464b      	mov	r3, r9
1000391c:	4013      	ands	r3, r2
1000391e:	221f      	movs	r2, #31
10003920:	4699      	mov	r9, r3
10003922:	4663      	mov	r3, ip
10003924:	4002      	ands	r2, r0
10003926:	4093      	lsls	r3, r2
10003928:	469a      	mov	sl, r3
1000392a:	2280      	movs	r2, #128	@ 0x80
1000392c:	465b      	mov	r3, fp
1000392e:	4650      	mov	r0, sl
10003930:	5098      	str	r0, [r3, r2]
10003932:	f3bf 8f5f 	dmb	sy
10003936:	f3ef 8305 	mrs	r3, IPSR
1000393a:	469b      	mov	fp, r3
1000393c:	2b00      	cmp	r3, #0
1000393e:	d037      	beq.n	100039b0 <irq_remove_handler+0xe8>
10003940:	9b01      	ldr	r3, [sp, #4]
10003942:	455b      	cmp	r3, fp
10003944:	d001      	beq.n	1000394a <irq_remove_handler+0x82>
10003946:	f001 f9bb 	bl	10004cc0 <hard_assertion_failure>
1000394a:	2301      	movs	r3, #1
1000394c:	002a      	movs	r2, r5
1000394e:	439a      	bics	r2, r3
10003950:	6890      	ldr	r0, [r2, #8]
10003952:	4284      	cmp	r4, r0
10003954:	d108      	bne.n	10003968 <irq_remove_handler+0xa0>
10003956:	e076      	b.n	10003a46 <irq_remove_handler+0x17e>
10003958:	004b      	lsls	r3, r1, #1
1000395a:	185b      	adds	r3, r3, r1
1000395c:	009b      	lsls	r3, r3, #2
1000395e:	18f3      	adds	r3, r6, r3
10003960:	6898      	ldr	r0, [r3, #8]
10003962:	4284      	cmp	r4, r0
10003964:	d036      	beq.n	100039d4 <irq_remove_handler+0x10c>
10003966:	001a      	movs	r2, r3
10003968:	2106      	movs	r1, #6
1000396a:	5651      	ldrsb	r1, [r2, r1]
1000396c:	2900      	cmp	r1, #0
1000396e:	daf3      	bge.n	10003958 <irq_remove_handler+0x90>
10003970:	4284      	cmp	r4, r0
10003972:	d054      	beq.n	10003a1e <irq_remove_handler+0x156>
10003974:	464b      	mov	r3, r9
10003976:	2b00      	cmp	r3, #0
10003978:	d027      	beq.n	100039ca <irq_remove_handler+0x102>
1000397a:	22c0      	movs	r2, #192	@ 0xc0
1000397c:	4651      	mov	r1, sl
1000397e:	4b3f      	ldr	r3, [pc, #252]	@ (10003a7c <irq_remove_handler+0x1b4>)
10003980:	0052      	lsls	r2, r2, #1
10003982:	5099      	str	r1, [r3, r2]
10003984:	6019      	str	r1, [r3, #0]
10003986:	4b3a      	ldr	r3, [pc, #232]	@ (10003a70 <irq_remove_handler+0x1a8>)
10003988:	689b      	ldr	r3, [r3, #8]
1000398a:	51dd      	str	r5, [r3, r7]
1000398c:	f3bf 8f5f 	dmb	sy
10003990:	f3bf 8f5f 	dmb	sy
10003994:	2200      	movs	r2, #0
10003996:	4b35      	ldr	r3, [pc, #212]	@ (10003a6c <irq_remove_handler+0x1a4>)
10003998:	601a      	str	r2, [r3, #0]
1000399a:	f388 8810 	msr	PRIMASK, r8
1000399e:	b003      	add	sp, #12
100039a0:	bcf0      	pop	{r4, r5, r6, r7}
100039a2:	46bb      	mov	fp, r7
100039a4:	46b2      	mov	sl, r6
100039a6:	46a9      	mov	r9, r5
100039a8:	46a0      	mov	r8, r4
100039aa:	bdf0      	pop	{r4, r5, r6, r7, pc}
100039ac:	000d      	movs	r5, r1
100039ae:	e7ea      	b.n	10003986 <irq_remove_handler+0xbe>
100039b0:	002a      	movs	r2, r5
100039b2:	4663      	mov	r3, ip
100039b4:	439a      	bics	r2, r3
100039b6:	6890      	ldr	r0, [r2, #8]
100039b8:	4284      	cmp	r4, r0
100039ba:	d1d5      	bne.n	10003968 <irq_remove_handler+0xa0>
100039bc:	2006      	movs	r0, #6
100039be:	5610      	ldrsb	r0, [r2, r0]
100039c0:	0013      	movs	r3, r2
100039c2:	2800      	cmp	r0, #0
100039c4:	da0a      	bge.n	100039dc <irq_remove_handler+0x114>
100039c6:	000d      	movs	r5, r1
100039c8:	e031      	b.n	10003a2e <irq_remove_handler+0x166>
100039ca:	2380      	movs	r3, #128	@ 0x80
100039cc:	4651      	mov	r1, sl
100039ce:	4a2b      	ldr	r2, [pc, #172]	@ (10003a7c <irq_remove_handler+0x1b4>)
100039d0:	50d1      	str	r1, [r2, r3]
100039d2:	e7d8      	b.n	10003986 <irq_remove_handler+0xbe>
100039d4:	2006      	movs	r0, #6
100039d6:	5618      	ldrsb	r0, [r3, r0]
100039d8:	2800      	cmp	r0, #0
100039da:	db21      	blt.n	10003a20 <irq_remove_handler+0x158>
100039dc:	0042      	lsls	r2, r0, #1
100039de:	1811      	adds	r1, r2, r0
100039e0:	0089      	lsls	r1, r1, #2
100039e2:	1874      	adds	r4, r6, r1
100039e4:	468b      	mov	fp, r1
100039e6:	68a1      	ldr	r1, [r4, #8]
100039e8:	6099      	str	r1, [r3, #8]
100039ea:	79e1      	ldrb	r1, [r4, #7]
100039ec:	71d9      	strb	r1, [r3, #7]
100039ee:	2106      	movs	r1, #6
100039f0:	5661      	ldrsb	r1, [r4, r1]
100039f2:	7199      	strb	r1, [r3, #6]
100039f4:	2900      	cmp	r1, #0
100039f6:	db24      	blt.n	10003a42 <irq_remove_handler+0x17a>
100039f8:	88a4      	ldrh	r4, [r4, #4]
100039fa:	1af1      	subs	r1, r6, r3
100039fc:	0564      	lsls	r4, r4, #21
100039fe:	1524      	asrs	r4, r4, #20
10003a00:	445c      	add	r4, fp
10003a02:	1909      	adds	r1, r1, r4
10003a04:	0509      	lsls	r1, r1, #20
10003a06:	4c1e      	ldr	r4, [pc, #120]	@ (10003a80 <irq_remove_handler+0x1b8>)
10003a08:	0d49      	lsrs	r1, r1, #21
10003a0a:	4321      	orrs	r1, r4
10003a0c:	8099      	strh	r1, [r3, #4]
10003a0e:	1813      	adds	r3, r2, r0
10003a10:	4a1c      	ldr	r2, [pc, #112]	@ (10003a84 <irq_remove_handler+0x1bc>)
10003a12:	009b      	lsls	r3, r3, #2
10003a14:	7811      	ldrb	r1, [r2, #0]
10003a16:	18f3      	adds	r3, r6, r3
10003a18:	7199      	strb	r1, [r3, #6]
10003a1a:	7010      	strb	r0, [r2, #0]
10003a1c:	e7aa      	b.n	10003974 <irq_remove_handler+0xac>
10003a1e:	0013      	movs	r3, r2
10003a20:	4659      	mov	r1, fp
10003a22:	2900      	cmp	r1, #0
10003a24:	d114      	bne.n	10003a50 <irq_remove_handler+0x188>
10003a26:	31ff      	adds	r1, #255	@ 0xff
10003a28:	7191      	strb	r1, [r2, #6]
10003a2a:	4917      	ldr	r1, [pc, #92]	@ (10003a88 <irq_remove_handler+0x1c0>)
10003a2c:	8091      	strh	r1, [r2, #4]
10003a2e:	4915      	ldr	r1, [pc, #84]	@ (10003a84 <irq_remove_handler+0x1bc>)
10003a30:	780a      	ldrb	r2, [r1, #0]
10003a32:	719a      	strb	r2, [r3, #6]
10003a34:	4a15      	ldr	r2, [pc, #84]	@ (10003a8c <irq_remove_handler+0x1c4>)
10003a36:	1b9b      	subs	r3, r3, r6
10003a38:	415b      	adcs	r3, r3
10003a3a:	435a      	muls	r2, r3
10003a3c:	0d12      	lsrs	r2, r2, #20
10003a3e:	700a      	strb	r2, [r1, #0]
10003a40:	e798      	b.n	10003974 <irq_remove_handler+0xac>
10003a42:	4911      	ldr	r1, [pc, #68]	@ (10003a88 <irq_remove_handler+0x1c0>)
10003a44:	e7e2      	b.n	10003a0c <irq_remove_handler+0x144>
10003a46:	2006      	movs	r0, #6
10003a48:	5610      	ldrsb	r0, [r2, r0]
10003a4a:	0013      	movs	r3, r2
10003a4c:	2800      	cmp	r0, #0
10003a4e:	dac5      	bge.n	100039dc <irq_remove_handler+0x114>
10003a50:	4a0f      	ldr	r2, [pc, #60]	@ (10003a90 <irq_remove_handler+0x1c8>)
10003a52:	4910      	ldr	r1, [pc, #64]	@ (10003a94 <irq_remove_handler+0x1cc>)
10003a54:	1ad2      	subs	r2, r2, r3
10003a56:	3a08      	subs	r2, #8
10003a58:	0250      	lsls	r0, r2, #9
10003a5a:	0d40      	lsrs	r0, r0, #21
10003a5c:	4301      	orrs	r1, r0
10003a5e:	8099      	strh	r1, [r3, #4]
10003a60:	490d      	ldr	r1, [pc, #52]	@ (10003a98 <irq_remove_handler+0x1d0>)
10003a62:	0852      	lsrs	r2, r2, #1
10003a64:	430a      	orrs	r2, r1
10003a66:	80da      	strh	r2, [r3, #6]
10003a68:	e784      	b.n	10003974 <irq_remove_handler+0xac>
10003a6a:	46c0      	nop			@ (mov r8, r8)
10003a6c:	d0000124 	.word	0xd0000124
10003a70:	e000ed00 	.word	0xe000ed00
10003a74:	100001cd 	.word	0x100001cd
10003a78:	20003634 	.word	0x20003634
10003a7c:	e000e100 	.word	0xe000e100
10003a80:	ffffe000 	.word	0xffffe000
10003a84:	20005308 	.word	0x20005308
10003a88:	ffffbd01 	.word	0xffffbd01
10003a8c:	0000aaaa 	.word	0x0000aaaa
10003a90:	2000366e 	.word	0x2000366e
10003a94:	fffff000 	.word	0xfffff000
10003a98:	fffff800 	.word	0xfffff800

10003a9c <irq_add_tail_to_free_list>:
10003a9c:	b570      	push	{r4, r5, r6, lr}
10003a9e:	2401      	movs	r4, #1
10003aa0:	4304      	orrs	r4, r0
10003aa2:	f3ef 8105 	mrs	r1, IPSR
10003aa6:	f3ef 8c10 	mrs	ip, PRIMASK
10003aaa:	b672      	cpsid	i
10003aac:	4a21      	ldr	r2, [pc, #132]	@ (10003b34 <irq_add_tail_to_free_list+0x98>)
10003aae:	6813      	ldr	r3, [r2, #0]
10003ab0:	2b00      	cmp	r3, #0
10003ab2:	d0fc      	beq.n	10003aae <irq_add_tail_to_free_list+0x12>
10003ab4:	f3bf 8f5f 	dmb	sy
10003ab8:	4b1f      	ldr	r3, [pc, #124]	@ (10003b38 <irq_add_tail_to_free_list+0x9c>)
10003aba:	0005      	movs	r5, r0
10003abc:	4a1f      	ldr	r2, [pc, #124]	@ (10003b3c <irq_add_tail_to_free_list+0xa0>)
10003abe:	1aed      	subs	r5, r5, r3
10003ac0:	416d      	adcs	r5, r5
10003ac2:	436a      	muls	r2, r5
10003ac4:	0d12      	lsrs	r2, r2, #20
10003ac6:	4d1e      	ldr	r5, [pc, #120]	@ (10003b40 <irq_add_tail_to_free_list+0xa4>)
10003ac8:	0089      	lsls	r1, r1, #2
10003aca:	68ae      	ldr	r6, [r5, #8]
10003acc:	b252      	sxtb	r2, r2
10003ace:	5876      	ldr	r6, [r6, r1]
10003ad0:	42a6      	cmp	r6, r4
10003ad2:	d01c      	beq.n	10003b0e <irq_add_tail_to_free_list+0x72>
10003ad4:	2106      	movs	r1, #6
10003ad6:	5659      	ldrsb	r1, [r3, r1]
10003ad8:	4291      	cmp	r1, r2
10003ada:	d01c      	beq.n	10003b16 <irq_add_tail_to_free_list+0x7a>
10003adc:	2112      	movs	r1, #18
10003ade:	5659      	ldrsb	r1, [r3, r1]
10003ae0:	4291      	cmp	r1, r2
10003ae2:	d022      	beq.n	10003b2a <irq_add_tail_to_free_list+0x8e>
10003ae4:	211e      	movs	r1, #30
10003ae6:	5659      	ldrsb	r1, [r3, r1]
10003ae8:	4291      	cmp	r1, r2
10003aea:	d020      	beq.n	10003b2e <irq_add_tail_to_free_list+0x92>
10003aec:	212a      	movs	r1, #42	@ 0x2a
10003aee:	5659      	ldrsb	r1, [r3, r1]
10003af0:	2403      	movs	r4, #3
10003af2:	4291      	cmp	r1, r2
10003af4:	d010      	beq.n	10003b18 <irq_add_tail_to_free_list+0x7c>
10003af6:	4b13      	ldr	r3, [pc, #76]	@ (10003b44 <irq_add_tail_to_free_list+0xa8>)
10003af8:	7819      	ldrb	r1, [r3, #0]
10003afa:	701a      	strb	r2, [r3, #0]
10003afc:	7181      	strb	r1, [r0, #6]
10003afe:	f3bf 8f5f 	dmb	sy
10003b02:	2200      	movs	r2, #0
10003b04:	4b0b      	ldr	r3, [pc, #44]	@ (10003b34 <irq_add_tail_to_free_list+0x98>)
10003b06:	601a      	str	r2, [r3, #0]
10003b08:	f38c 8810 	msr	PRIMASK, ip
10003b0c:	bd70      	pop	{r4, r5, r6, pc}
10003b0e:	68ab      	ldr	r3, [r5, #8]
10003b10:	4c0d      	ldr	r4, [pc, #52]	@ (10003b48 <irq_add_tail_to_free_list+0xac>)
10003b12:	505c      	str	r4, [r3, r1]
10003b14:	e7ef      	b.n	10003af6 <irq_add_tail_to_free_list+0x5a>
10003b16:	2400      	movs	r4, #0
10003b18:	0061      	lsls	r1, r4, #1
10003b1a:	1909      	adds	r1, r1, r4
10003b1c:	0089      	lsls	r1, r1, #2
10003b1e:	185b      	adds	r3, r3, r1
10003b20:	21ff      	movs	r1, #255	@ 0xff
10003b22:	7199      	strb	r1, [r3, #6]
10003b24:	4909      	ldr	r1, [pc, #36]	@ (10003b4c <irq_add_tail_to_free_list+0xb0>)
10003b26:	8099      	strh	r1, [r3, #4]
10003b28:	e7e5      	b.n	10003af6 <irq_add_tail_to_free_list+0x5a>
10003b2a:	2401      	movs	r4, #1
10003b2c:	e7f4      	b.n	10003b18 <irq_add_tail_to_free_list+0x7c>
10003b2e:	2402      	movs	r4, #2
10003b30:	e7f2      	b.n	10003b18 <irq_add_tail_to_free_list+0x7c>
10003b32:	46c0      	nop			@ (mov r8, r8)
10003b34:	d0000124 	.word	0xd0000124
10003b38:	20003634 	.word	0x20003634
10003b3c:	0000aaaa 	.word	0x0000aaaa
10003b40:	e000ed00 	.word	0xe000ed00
10003b44:	20005308 	.word	0x20005308
10003b48:	100001cd 	.word	0x100001cd
10003b4c:	ffffbd01 	.word	0xffffbd01

10003b50 <user_irq_claim_unused>:
10003b50:	b510      	push	{r4, lr}
10003b52:	4b08      	ldr	r3, [pc, #32]	@ (10003b74 <user_irq_claim_unused+0x24>)
10003b54:	4c08      	ldr	r4, [pc, #32]	@ (10003b78 <user_irq_claim_unused+0x28>)
10003b56:	b082      	sub	sp, #8
10003b58:	0001      	movs	r1, r0
10003b5a:	9300      	str	r3, [sp, #0]
10003b5c:	2200      	movs	r2, #0
10003b5e:	2305      	movs	r3, #5
10003b60:	0020      	movs	r0, r4
10003b62:	f7ff fcd3 	bl	1000350c <hw_claim_unused_from_range>
10003b66:	2800      	cmp	r0, #0
10003b68:	db01      	blt.n	10003b6e <user_irq_claim_unused+0x1e>
10003b6a:	231f      	movs	r3, #31
10003b6c:	1a18      	subs	r0, r3, r0
10003b6e:	b002      	add	sp, #8
10003b70:	bd10      	pop	{r4, pc}
10003b72:	46c0      	nop			@ (mov r8, r8)
10003b74:	1000b5cc 	.word	0x1000b5cc
10003b78:	2000530d 	.word	0x2000530d

10003b7c <lock_init>:
10003b7c:	4b02      	ldr	r3, [pc, #8]	@ (10003b88 <lock_init+0xc>)
10003b7e:	469c      	mov	ip, r3
10003b80:	4461      	add	r1, ip
10003b82:	0089      	lsls	r1, r1, #2
10003b84:	6001      	str	r1, [r0, #0]
10003b86:	4770      	bx	lr
10003b88:	34000040 	.word	0x34000040

10003b8c <runtime_init_mutex>:
10003b8c:	b570      	push	{r4, r5, r6, lr}
10003b8e:	4c11      	ldr	r4, [pc, #68]	@ (10003bd4 <runtime_init_mutex+0x48>)
10003b90:	4d11      	ldr	r5, [pc, #68]	@ (10003bd8 <runtime_init_mutex+0x4c>)
10003b92:	42ac      	cmp	r4, r5
10003b94:	d20f      	bcs.n	10003bb6 <runtime_init_mutex+0x2a>
10003b96:	26ff      	movs	r6, #255	@ 0xff
10003b98:	6823      	ldr	r3, [r4, #0]
10003b9a:	2b00      	cmp	r3, #0
10003b9c:	d00c      	beq.n	10003bb8 <runtime_init_mutex+0x2c>
10003b9e:	f7ff fcf9 	bl	10003594 <next_striped_spin_lock_num>
10003ba2:	0001      	movs	r1, r0
10003ba4:	0020      	movs	r0, r4
10003ba6:	f7ff ffe9 	bl	10003b7c <lock_init>
10003baa:	80a6      	strh	r6, [r4, #4]
10003bac:	f3bf 8f5f 	dmb	sy
10003bb0:	3408      	adds	r4, #8
10003bb2:	42ac      	cmp	r4, r5
10003bb4:	d3f0      	bcc.n	10003b98 <runtime_init_mutex+0xc>
10003bb6:	bd70      	pop	{r4, r5, r6, pc}
10003bb8:	f7ff fcec 	bl	10003594 <next_striped_spin_lock_num>
10003bbc:	0001      	movs	r1, r0
10003bbe:	0020      	movs	r0, r4
10003bc0:	f7ff ffdc 	bl	10003b7c <lock_init>
10003bc4:	7126      	strb	r6, [r4, #4]
10003bc6:	f3bf 8f5f 	dmb	sy
10003bca:	3408      	adds	r4, #8
10003bcc:	42ac      	cmp	r4, r5
10003bce:	d3e3      	bcc.n	10003b98 <runtime_init_mutex+0xc>
10003bd0:	e7f1      	b.n	10003bb6 <runtime_init_mutex+0x2a>
10003bd2:	46c0      	nop			@ (mov r8, r8)
10003bd4:	20003c60 	.word	0x20003c60
10003bd8:	20003c68 	.word	0x20003c68

10003bdc <mutex_init>:
10003bdc:	b510      	push	{r4, lr}
10003bde:	0004      	movs	r4, r0
10003be0:	f7ff fcd8 	bl	10003594 <next_striped_spin_lock_num>
10003be4:	0001      	movs	r1, r0
10003be6:	0020      	movs	r0, r4
10003be8:	f7ff ffc8 	bl	10003b7c <lock_init>
10003bec:	23ff      	movs	r3, #255	@ 0xff
10003bee:	7123      	strb	r3, [r4, #4]
10003bf0:	f3bf 8f5f 	dmb	sy
10003bf4:	bd10      	pop	{r4, pc}
10003bf6:	46c0      	nop			@ (mov r8, r8)

10003bf8 <critical_section_init>:
10003bf8:	b510      	push	{r4, lr}
10003bfa:	0004      	movs	r4, r0
10003bfc:	2001      	movs	r0, #1
10003bfe:	f7ff fcd5 	bl	100035ac <spin_lock_claim_unused>
10003c02:	4b03      	ldr	r3, [pc, #12]	@ (10003c10 <critical_section_init+0x18>)
10003c04:	18c3      	adds	r3, r0, r3
10003c06:	009b      	lsls	r3, r3, #2
10003c08:	6023      	str	r3, [r4, #0]
10003c0a:	f3bf 8f5f 	dmb	sy
10003c0e:	bd10      	pop	{r4, pc}
10003c10:	34000040 	.word	0x34000040

10003c14 <critical_section_init_with_lock_num>:
10003c14:	4b03      	ldr	r3, [pc, #12]	@ (10003c24 <critical_section_init_with_lock_num+0x10>)
10003c16:	469c      	mov	ip, r3
10003c18:	4461      	add	r1, ip
10003c1a:	0089      	lsls	r1, r1, #2
10003c1c:	6001      	str	r1, [r0, #0]
10003c1e:	f3bf 8f5f 	dmb	sy
10003c22:	4770      	bx	lr
10003c24:	34000040 	.word	0x34000040

10003c28 <sleep_until_callback>:
10003c28:	4b0a      	ldr	r3, [pc, #40]	@ (10003c54 <sleep_until_callback+0x2c>)
10003c2a:	6819      	ldr	r1, [r3, #0]
10003c2c:	f3ef 8010 	mrs	r0, PRIMASK
10003c30:	b672      	cpsid	i
10003c32:	680a      	ldr	r2, [r1, #0]
10003c34:	2a00      	cmp	r2, #0
10003c36:	d0fc      	beq.n	10003c32 <sleep_until_callback+0xa>
10003c38:	f3bf 8f5f 	dmb	sy
10003c3c:	681b      	ldr	r3, [r3, #0]
10003c3e:	f3bf 8f5f 	dmb	sy
10003c42:	2200      	movs	r2, #0
10003c44:	601a      	str	r2, [r3, #0]
10003c46:	f380 8810 	msr	PRIMASK, r0
10003c4a:	bf40      	sev
10003c4c:	2000      	movs	r0, #0
10003c4e:	2100      	movs	r1, #0
10003c50:	4770      	bx	lr
10003c52:	46c0      	nop			@ (mov r8, r8)
10003c54:	200052c8 	.word	0x200052c8

10003c58 <alarm_pool_irq_handler>:
10003c58:	b5f0      	push	{r4, r5, r6, r7, lr}
10003c5a:	46de      	mov	lr, fp
10003c5c:	4657      	mov	r7, sl
10003c5e:	464e      	mov	r6, r9
10003c60:	4645      	mov	r5, r8
10003c62:	b5e0      	push	{r5, r6, r7, lr}
10003c64:	b087      	sub	sp, #28
10003c66:	f3ef 8305 	mrs	r3, IPSR
10003c6a:	2203      	movs	r2, #3
10003c6c:	2501      	movs	r5, #1
10003c6e:	401a      	ands	r2, r3
10003c70:	4095      	lsls	r5, r2
10003c72:	0091      	lsls	r1, r2, #2
10003c74:	4688      	mov	r8, r1
10003c76:	46a9      	mov	r9, r5
10003c78:	4bb3      	ldr	r3, [pc, #716]	@ (10003f48 <alarm_pool_irq_handler+0x2f0>)
10003c7a:	9203      	str	r2, [sp, #12]
10003c7c:	585c      	ldr	r4, [r3, r1]
10003c7e:	4bb3      	ldr	r3, [pc, #716]	@ (10003f4c <alarm_pool_irq_handler+0x2f4>)
10003c80:	601d      	str	r5, [r3, #0]
10003c82:	4bb3      	ldr	r3, [pc, #716]	@ (10003f50 <alarm_pool_irq_handler+0x2f8>)
10003c84:	9304      	str	r3, [sp, #16]
10003c86:	464b      	mov	r3, r9
10003c88:	48b2      	ldr	r0, [pc, #712]	@ (10003f54 <alarm_pool_irq_handler+0x2fc>)
10003c8a:	6343      	str	r3, [r0, #52]	@ 0x34
10003c8c:	2308      	movs	r3, #8
10003c8e:	5ee5      	ldrsh	r5, [r4, r3]
10003c90:	2d00      	cmp	r5, #0
10003c92:	da37      	bge.n	10003d04 <alarm_pool_irq_handler+0xac>
10003c94:	88a3      	ldrh	r3, [r4, #4]
10003c96:	b21b      	sxth	r3, r3
10003c98:	2b00      	cmp	r3, #0
10003c9a:	db00      	blt.n	10003c9e <alarm_pool_irq_handler+0x46>
10003c9c:	e0ad      	b.n	10003dfa <alarm_pool_irq_handler+0x1a2>
10003c9e:	79a3      	ldrb	r3, [r4, #6]
10003ca0:	2b00      	cmp	r3, #0
10003ca2:	d000      	beq.n	10003ca6 <alarm_pool_irq_handler+0x4e>
10003ca4:	e0ee      	b.n	10003e84 <alarm_pool_irq_handler+0x22c>
10003ca6:	2308      	movs	r3, #8
10003ca8:	5ee0      	ldrsh	r0, [r4, r3]
10003caa:	2800      	cmp	r0, #0
10003cac:	db20      	blt.n	10003cf0 <alarm_pool_irq_handler+0x98>
10003cae:	0043      	lsls	r3, r0, #1
10003cb0:	6962      	ldr	r2, [r4, #20]
10003cb2:	181b      	adds	r3, r3, r0
10003cb4:	00db      	lsls	r3, r3, #3
10003cb6:	18d3      	adds	r3, r2, r3
10003cb8:	689e      	ldr	r6, [r3, #8]
10003cba:	68dd      	ldr	r5, [r3, #12]
10003cbc:	1c73      	adds	r3, r6, #1
10003cbe:	d100      	bne.n	10003cc2 <alarm_pool_irq_handler+0x6a>
10003cc0:	e111      	b.n	10003ee6 <alarm_pool_irq_handler+0x28e>
10003cc2:	48a4      	ldr	r0, [pc, #656]	@ (10003f54 <alarm_pool_irq_handler+0x2fc>)
10003cc4:	0001      	movs	r1, r0
10003cc6:	4441      	add	r1, r8
10003cc8:	6a82      	ldr	r2, [r0, #40]	@ 0x28
10003cca:	690b      	ldr	r3, [r1, #16]
10003ccc:	1ab7      	subs	r7, r6, r2
10003cce:	1a9b      	subs	r3, r3, r2
10003cd0:	429f      	cmp	r7, r3
10003cd2:	d315      	bcc.n	10003d00 <alarm_pool_irq_handler+0xa8>
10003cd4:	2301      	movs	r3, #1
10003cd6:	6a02      	ldr	r2, [r0, #32]
10003cd8:	9803      	ldr	r0, [sp, #12]
10003cda:	4083      	lsls	r3, r0
10003cdc:	421a      	tst	r2, r3
10003cde:	d00f      	beq.n	10003d00 <alarm_pool_irq_handler+0xa8>
10003ce0:	489c      	ldr	r0, [pc, #624]	@ (10003f54 <alarm_pool_irq_handler+0x2fc>)
10003ce2:	f000 fbb5 	bl	10004450 <timer_time_us_64>
10003ce6:	428d      	cmp	r5, r1
10003ce8:	dc02      	bgt.n	10003cf0 <alarm_pool_irq_handler+0x98>
10003cea:	d1cc      	bne.n	10003c86 <alarm_pool_irq_handler+0x2e>
10003cec:	4286      	cmp	r6, r0
10003cee:	d9ca      	bls.n	10003c86 <alarm_pool_irq_handler+0x2e>
10003cf0:	bf40      	sev
10003cf2:	b007      	add	sp, #28
10003cf4:	bcf0      	pop	{r4, r5, r6, r7}
10003cf6:	46bb      	mov	fp, r7
10003cf8:	46b2      	mov	sl, r6
10003cfa:	46a9      	mov	r9, r5
10003cfc:	46a0      	mov	r8, r4
10003cfe:	bdf0      	pop	{r4, r5, r6, r7, pc}
10003d00:	610e      	str	r6, [r1, #16]
10003d02:	e7ed      	b.n	10003ce0 <alarm_pool_irq_handler+0x88>
10003d04:	6962      	ldr	r2, [r4, #20]
10003d06:	006b      	lsls	r3, r5, #1
10003d08:	4692      	mov	sl, r2
10003d0a:	195b      	adds	r3, r3, r5
10003d0c:	00db      	lsls	r3, r3, #3
10003d0e:	449a      	add	sl, r3
10003d10:	4653      	mov	r3, sl
10003d12:	689e      	ldr	r6, [r3, #8]
10003d14:	68df      	ldr	r7, [r3, #12]
10003d16:	f000 fb9b 	bl	10004450 <timer_time_us_64>
10003d1a:	428f      	cmp	r7, r1
10003d1c:	dcba      	bgt.n	10003c94 <alarm_pool_irq_handler+0x3c>
10003d1e:	d100      	bne.n	10003d22 <alarm_pool_irq_handler+0xca>
10003d20:	e103      	b.n	10003f2a <alarm_pool_irq_handler+0x2d2>
10003d22:	2f00      	cmp	r7, #0
10003d24:	da00      	bge.n	10003d28 <alarm_pool_irq_handler+0xd0>
10003d26:	e0e8      	b.n	10003efa <alarm_pool_irq_handler+0x2a2>
10003d28:	4652      	mov	r2, sl
10003d2a:	4653      	mov	r3, sl
10003d2c:	6952      	ldr	r2, [r2, #20]
10003d2e:	691b      	ldr	r3, [r3, #16]
10003d30:	4693      	mov	fp, r2
10003d32:	9a04      	ldr	r2, [sp, #16]
10003d34:	4293      	cmp	r3, r2
10003d36:	d100      	bne.n	10003d3a <alarm_pool_irq_handler+0xe2>
10003d38:	e0d9      	b.n	10003eee <alarm_pool_irq_handler+0x296>
10003d3a:	4652      	mov	r2, sl
10003d3c:	2108      	movs	r1, #8
10003d3e:	5e60      	ldrsh	r0, [r4, r1]
10003d40:	8852      	ldrh	r2, [r2, #2]
10003d42:	0400      	lsls	r0, r0, #16
10003d44:	4659      	mov	r1, fp
10003d46:	4310      	orrs	r0, r2
10003d48:	4798      	blx	r3
10003d4a:	9000      	str	r0, [sp, #0]
10003d4c:	9101      	str	r1, [sp, #4]
10003d4e:	9900      	ldr	r1, [sp, #0]
10003d50:	9a01      	ldr	r2, [sp, #4]
10003d52:	000b      	movs	r3, r1
10003d54:	0010      	movs	r0, r2
10003d56:	4313      	orrs	r3, r2
10003d58:	d100      	bne.n	10003d5c <alarm_pool_irq_handler+0x104>
10003d5a:	e0ce      	b.n	10003efa <alarm_pool_irq_handler+0x2a2>
10003d5c:	0013      	movs	r3, r2
10003d5e:	000a      	movs	r2, r1
10003d60:	1ab6      	subs	r6, r6, r2
10003d62:	419f      	sbcs	r7, r3
10003d64:	2800      	cmp	r0, #0
10003d66:	db06      	blt.n	10003d76 <alarm_pool_irq_handler+0x11e>
10003d68:	487a      	ldr	r0, [pc, #488]	@ (10003f54 <alarm_pool_irq_handler+0x2fc>)
10003d6a:	f000 fb71 	bl	10004450 <timer_time_us_64>
10003d6e:	9e00      	ldr	r6, [sp, #0]
10003d70:	9f01      	ldr	r7, [sp, #4]
10003d72:	1836      	adds	r6, r6, r0
10003d74:	414f      	adcs	r7, r1
10003d76:	4653      	mov	r3, sl
10003d78:	609e      	str	r6, [r3, #8]
10003d7a:	60df      	str	r7, [r3, #12]
10003d7c:	2200      	movs	r2, #0
10003d7e:	5e9a      	ldrsh	r2, [r3, r2]
10003d80:	2a00      	cmp	r2, #0
10003d82:	da00      	bge.n	10003d86 <alarm_pool_irq_handler+0x12e>
10003d84:	e786      	b.n	10003c94 <alarm_pool_irq_handler+0x3c>
10003d86:	0053      	lsls	r3, r2, #1
10003d88:	1899      	adds	r1, r3, r2
10003d8a:	6960      	ldr	r0, [r4, #20]
10003d8c:	00c9      	lsls	r1, r1, #3
10003d8e:	1841      	adds	r1, r0, r1
10003d90:	9302      	str	r3, [sp, #8]
10003d92:	688b      	ldr	r3, [r1, #8]
10003d94:	68c9      	ldr	r1, [r1, #12]
10003d96:	469b      	mov	fp, r3
10003d98:	42b9      	cmp	r1, r7
10003d9a:	dd00      	ble.n	10003d9e <alarm_pool_irq_handler+0x146>
10003d9c:	e77a      	b.n	10003c94 <alarm_pool_irq_handler+0x3c>
10003d9e:	d102      	bne.n	10003da6 <alarm_pool_irq_handler+0x14e>
10003da0:	42b3      	cmp	r3, r6
10003da2:	d900      	bls.n	10003da6 <alarm_pool_irq_handler+0x14e>
10003da4:	e776      	b.n	10003c94 <alarm_pool_irq_handler+0x3c>
10003da6:	2308      	movs	r3, #8
10003da8:	469c      	mov	ip, r3
10003daa:	44a4      	add	ip, r4
10003dac:	9505      	str	r5, [sp, #20]
10003dae:	4665      	mov	r5, ip
10003db0:	8122      	strh	r2, [r4, #8]
10003db2:	46a4      	mov	ip, r4
10003db4:	9b02      	ldr	r3, [sp, #8]
10003db6:	002c      	movs	r4, r5
10003db8:	e006      	b.n	10003dc8 <alarm_pool_irq_handler+0x170>
10003dba:	0053      	lsls	r3, r2, #1
10003dbc:	1899      	adds	r1, r3, r2
10003dbe:	00c9      	lsls	r1, r1, #3
10003dc0:	1841      	adds	r1, r0, r1
10003dc2:	688d      	ldr	r5, [r1, #8]
10003dc4:	68c9      	ldr	r1, [r1, #12]
10003dc6:	46ab      	mov	fp, r5
10003dc8:	189b      	adds	r3, r3, r2
10003dca:	00db      	lsls	r3, r3, #3
10003dcc:	18c3      	adds	r3, r0, r3
10003dce:	42b9      	cmp	r1, r7
10003dd0:	dc06      	bgt.n	10003de0 <alarm_pool_irq_handler+0x188>
10003dd2:	d100      	bne.n	10003dd6 <alarm_pool_irq_handler+0x17e>
10003dd4:	e0b3      	b.n	10003f3e <alarm_pool_irq_handler+0x2e6>
10003dd6:	001c      	movs	r4, r3
10003dd8:	2300      	movs	r3, #0
10003dda:	5ee2      	ldrsh	r2, [r4, r3]
10003ddc:	2a00      	cmp	r2, #0
10003dde:	daec      	bge.n	10003dba <alarm_pool_irq_handler+0x162>
10003de0:	0023      	movs	r3, r4
10003de2:	4664      	mov	r4, ip
10003de4:	469c      	mov	ip, r3
10003de6:	4653      	mov	r3, sl
10003de8:	801a      	strh	r2, [r3, #0]
10003dea:	4663      	mov	r3, ip
10003dec:	9d05      	ldr	r5, [sp, #20]
10003dee:	801d      	strh	r5, [r3, #0]
10003df0:	88a3      	ldrh	r3, [r4, #4]
10003df2:	b21b      	sxth	r3, r3
10003df4:	2b00      	cmp	r3, #0
10003df6:	da00      	bge.n	10003dfa <alarm_pool_irq_handler+0x1a2>
10003df8:	e751      	b.n	10003c9e <alarm_pool_irq_handler+0x46>
10003dfa:	6922      	ldr	r2, [r4, #16]
10003dfc:	f3ef 8110 	mrs	r1, PRIMASK
10003e00:	b672      	cpsid	i
10003e02:	6813      	ldr	r3, [r2, #0]
10003e04:	2b00      	cmp	r3, #0
10003e06:	d0fc      	beq.n	10003e02 <alarm_pool_irq_handler+0x1aa>
10003e08:	f3bf 8f5f 	dmb	sy
10003e0c:	2301      	movs	r3, #1
10003e0e:	88a7      	ldrh	r7, [r4, #4]
10003e10:	425b      	negs	r3, r3
10003e12:	80a3      	strh	r3, [r4, #4]
10003e14:	b23f      	sxth	r7, r7
10003e16:	6923      	ldr	r3, [r4, #16]
10003e18:	f3bf 8f5f 	dmb	sy
10003e1c:	2200      	movs	r2, #0
10003e1e:	601a      	str	r2, [r3, #0]
10003e20:	f381 8810 	msr	PRIMASK, r1
10003e24:	2f00      	cmp	r7, #0
10003e26:	da00      	bge.n	10003e2a <alarm_pool_irq_handler+0x1d2>
10003e28:	e739      	b.n	10003c9e <alarm_pool_irq_handler+0x46>
10003e2a:	0023      	movs	r3, r4
10003e2c:	3308      	adds	r3, #8
10003e2e:	0022      	movs	r2, r4
10003e30:	469a      	mov	sl, r3
10003e32:	6966      	ldr	r6, [r4, #20]
10003e34:	007b      	lsls	r3, r7, #1
10003e36:	19db      	adds	r3, r3, r7
10003e38:	00db      	lsls	r3, r3, #3
10003e3a:	18f3      	adds	r3, r6, r3
10003e3c:	6899      	ldr	r1, [r3, #8]
10003e3e:	4650      	mov	r0, sl
10003e40:	468c      	mov	ip, r1
10003e42:	2408      	movs	r4, #8
10003e44:	5f11      	ldrsh	r1, [r2, r4]
10003e46:	68dd      	ldr	r5, [r3, #12]
10003e48:	2900      	cmp	r1, #0
10003e4a:	db10      	blt.n	10003e6e <alarm_pool_irq_handler+0x216>
10003e4c:	9302      	str	r3, [sp, #8]
10003e4e:	e006      	b.n	10003e5e <alarm_pool_irq_handler+0x206>
10003e50:	42ab      	cmp	r3, r5
10003e52:	d044      	beq.n	10003ede <alarm_pool_irq_handler+0x286>
10003e54:	2300      	movs	r3, #0
10003e56:	5ee1      	ldrsh	r1, [r4, r3]
10003e58:	0020      	movs	r0, r4
10003e5a:	2900      	cmp	r1, #0
10003e5c:	db06      	blt.n	10003e6c <alarm_pool_irq_handler+0x214>
10003e5e:	004c      	lsls	r4, r1, #1
10003e60:	1864      	adds	r4, r4, r1
10003e62:	00e4      	lsls	r4, r4, #3
10003e64:	1934      	adds	r4, r6, r4
10003e66:	68e3      	ldr	r3, [r4, #12]
10003e68:	42ab      	cmp	r3, r5
10003e6a:	ddf1      	ble.n	10003e50 <alarm_pool_irq_handler+0x1f8>
10003e6c:	9b02      	ldr	r3, [sp, #8]
10003e6e:	8007      	strh	r7, [r0, #0]
10003e70:	2000      	movs	r0, #0
10003e72:	5e1f      	ldrsh	r7, [r3, r0]
10003e74:	8019      	strh	r1, [r3, #0]
10003e76:	2f00      	cmp	r7, #0
10003e78:	dadc      	bge.n	10003e34 <alarm_pool_irq_handler+0x1dc>
10003e7a:	0014      	movs	r4, r2
10003e7c:	79a3      	ldrb	r3, [r4, #6]
10003e7e:	2b00      	cmp	r3, #0
10003e80:	d100      	bne.n	10003e84 <alarm_pool_irq_handler+0x22c>
10003e82:	e710      	b.n	10003ca6 <alarm_pool_irq_handler+0x4e>
10003e84:	2300      	movs	r3, #0
10003e86:	71a3      	strb	r3, [r4, #6]
10003e88:	0026      	movs	r6, r4
10003e8a:	2308      	movs	r3, #8
10003e8c:	5ee1      	ldrsh	r1, [r4, r3]
10003e8e:	3608      	adds	r6, #8
10003e90:	1c4b      	adds	r3, r1, #1
10003e92:	d100      	bne.n	10003e96 <alarm_pool_irq_handler+0x23e>
10003e94:	e72c      	b.n	10003cf0 <alarm_pool_irq_handler+0x98>
10003e96:	0008      	movs	r0, r1
10003e98:	46a2      	mov	sl, r4
10003e9a:	6965      	ldr	r5, [r4, #20]
10003e9c:	e002      	b.n	10003ea4 <alarm_pool_irq_handler+0x24c>
10003e9e:	003e      	movs	r6, r7
10003ea0:	1c4b      	adds	r3, r1, #1
10003ea2:	d01a      	beq.n	10003eda <alarm_pool_irq_handler+0x282>
10003ea4:	004b      	lsls	r3, r1, #1
10003ea6:	185b      	adds	r3, r3, r1
10003ea8:	00db      	lsls	r3, r3, #3
10003eaa:	18ef      	adds	r7, r5, r3
10003eac:	000a      	movs	r2, r1
10003eae:	468c      	mov	ip, r1
10003eb0:	5ee9      	ldrsh	r1, [r5, r3]
10003eb2:	887b      	ldrh	r3, [r7, #2]
10003eb4:	b21b      	sxth	r3, r3
10003eb6:	2b00      	cmp	r3, #0
10003eb8:	daf1      	bge.n	10003e9e <alarm_pool_irq_handler+0x246>
10003eba:	2301      	movs	r3, #1
10003ebc:	425b      	negs	r3, r3
10003ebe:	17dc      	asrs	r4, r3, #31
10003ec0:	60bb      	str	r3, [r7, #8]
10003ec2:	60fc      	str	r4, [r7, #12]
10003ec4:	4282      	cmp	r2, r0
10003ec6:	d005      	beq.n	10003ed4 <alarm_pool_irq_handler+0x27c>
10003ec8:	4653      	mov	r3, sl
10003eca:	8031      	strh	r1, [r6, #0]
10003ecc:	891b      	ldrh	r3, [r3, #8]
10003ece:	803b      	strh	r3, [r7, #0]
10003ed0:	4653      	mov	r3, sl
10003ed2:	811a      	strh	r2, [r3, #8]
10003ed4:	4660      	mov	r0, ip
10003ed6:	1c4b      	adds	r3, r1, #1
10003ed8:	d1e4      	bne.n	10003ea4 <alarm_pool_irq_handler+0x24c>
10003eda:	4654      	mov	r4, sl
10003edc:	e6e5      	b.n	10003caa <alarm_pool_irq_handler+0x52>
10003ede:	68a3      	ldr	r3, [r4, #8]
10003ee0:	4563      	cmp	r3, ip
10003ee2:	d9b7      	bls.n	10003e54 <alarm_pool_irq_handler+0x1fc>
10003ee4:	e7c2      	b.n	10003e6c <alarm_pool_irq_handler+0x214>
10003ee6:	1c6b      	adds	r3, r5, #1
10003ee8:	d000      	beq.n	10003eec <alarm_pool_irq_handler+0x294>
10003eea:	e6ea      	b.n	10003cc2 <alarm_pool_irq_handler+0x6a>
10003eec:	e6f8      	b.n	10003ce0 <alarm_pool_irq_handler+0x88>
10003eee:	465b      	mov	r3, fp
10003ef0:	4658      	mov	r0, fp
10003ef2:	691b      	ldr	r3, [r3, #16]
10003ef4:	4798      	blx	r3
10003ef6:	2800      	cmp	r0, #0
10003ef8:	d11b      	bne.n	10003f32 <alarm_pool_irq_handler+0x2da>
10003efa:	4653      	mov	r3, sl
10003efc:	881b      	ldrh	r3, [r3, #0]
10003efe:	6922      	ldr	r2, [r4, #16]
10003f00:	8123      	strh	r3, [r4, #8]
10003f02:	f3ef 8310 	mrs	r3, PRIMASK
10003f06:	b672      	cpsid	i
10003f08:	6811      	ldr	r1, [r2, #0]
10003f0a:	2900      	cmp	r1, #0
10003f0c:	d0fc      	beq.n	10003f08 <alarm_pool_irq_handler+0x2b0>
10003f0e:	f3bf 8f5f 	dmb	sy
10003f12:	4651      	mov	r1, sl
10003f14:	8862      	ldrh	r2, [r4, #2]
10003f16:	800a      	strh	r2, [r1, #0]
10003f18:	6922      	ldr	r2, [r4, #16]
10003f1a:	8065      	strh	r5, [r4, #2]
10003f1c:	f3bf 8f5f 	dmb	sy
10003f20:	2100      	movs	r1, #0
10003f22:	6011      	str	r1, [r2, #0]
10003f24:	f383 8810 	msr	PRIMASK, r3
10003f28:	e6b4      	b.n	10003c94 <alarm_pool_irq_handler+0x3c>
10003f2a:	4286      	cmp	r6, r0
10003f2c:	d800      	bhi.n	10003f30 <alarm_pool_irq_handler+0x2d8>
10003f2e:	e6f8      	b.n	10003d22 <alarm_pool_irq_handler+0xca>
10003f30:	e6b0      	b.n	10003c94 <alarm_pool_irq_handler+0x3c>
10003f32:	465b      	mov	r3, fp
10003f34:	681a      	ldr	r2, [r3, #0]
10003f36:	685b      	ldr	r3, [r3, #4]
10003f38:	9200      	str	r2, [sp, #0]
10003f3a:	9301      	str	r3, [sp, #4]
10003f3c:	e707      	b.n	10003d4e <alarm_pool_irq_handler+0xf6>
10003f3e:	45b3      	cmp	fp, r6
10003f40:	d800      	bhi.n	10003f44 <alarm_pool_irq_handler+0x2ec>
10003f42:	e748      	b.n	10003dd6 <alarm_pool_irq_handler+0x17e>
10003f44:	e74c      	b.n	10003de0 <alarm_pool_irq_handler+0x188>
10003f46:	46c0      	nop			@ (mov r8, r8)
10003f48:	200051a0 	.word	0x200051a0
10003f4c:	4005703c 	.word	0x4005703c
10003f50:	10003c59 	.word	0x10003c59
10003f54:	40054000 	.word	0x40054000

10003f58 <runtime_init_default_alarm_pool>:
10003f58:	b570      	push	{r4, r5, r6, lr}
10003f5a:	4c2e      	ldr	r4, [pc, #184]	@ (10004014 <runtime_init_default_alarm_pool+0xbc>)
10003f5c:	6925      	ldr	r5, [r4, #16]
10003f5e:	2d00      	cmp	r5, #0
10003f60:	d004      	beq.n	10003f6c <runtime_init_default_alarm_pool+0x14>
10003f62:	210a      	movs	r1, #10
10003f64:	482c      	ldr	r0, [pc, #176]	@ (10004018 <runtime_init_default_alarm_pool+0xc0>)
10003f66:	f7ff fe09 	bl	10003b7c <lock_init>
10003f6a:	bd70      	pop	{r4, r5, r6, pc}
10003f6c:	4e2b      	ldr	r6, [pc, #172]	@ (1000401c <runtime_init_default_alarm_pool+0xc4>)
10003f6e:	2103      	movs	r1, #3
10003f70:	0030      	movs	r0, r6
10003f72:	f000 fa63 	bl	1000443c <timer_hardware_alarm_claim>
10003f76:	60e6      	str	r6, [r4, #12]
10003f78:	f7ff fb0c 	bl	10003594 <next_striped_spin_lock_num>
10003f7c:	4b28      	ldr	r3, [pc, #160]	@ (10004020 <runtime_init_default_alarm_pool+0xc8>)
10003f7e:	2203      	movs	r2, #3
10003f80:	469c      	mov	ip, r3
10003f82:	23d0      	movs	r3, #208	@ 0xd0
10003f84:	7022      	strb	r2, [r4, #0]
10003f86:	061b      	lsls	r3, r3, #24
10003f88:	681b      	ldr	r3, [r3, #0]
10003f8a:	2101      	movs	r1, #1
10003f8c:	7063      	strb	r3, [r4, #1]
10003f8e:	4b25      	ldr	r3, [pc, #148]	@ (10004024 <runtime_init_default_alarm_pool+0xcc>)
10003f90:	4460      	add	r0, ip
10003f92:	60a3      	str	r3, [r4, #8]
10003f94:	230f      	movs	r3, #15
10003f96:	0080      	lsls	r0, r0, #2
10003f98:	6120      	str	r0, [r4, #16]
10003f9a:	2002      	movs	r0, #2
10003f9c:	8063      	strh	r3, [r4, #2]
10003f9e:	6963      	ldr	r3, [r4, #20]
10003fa0:	4249      	negs	r1, r1
10003fa2:	80a1      	strh	r1, [r4, #4]
10003fa4:	8019      	strh	r1, [r3, #0]
10003fa6:	3102      	adds	r1, #2
10003fa8:	8619      	strh	r1, [r3, #48]	@ 0x30
10003faa:	3147      	adds	r1, #71	@ 0x47
10003fac:	831d      	strh	r5, [r3, #24]
10003fae:	5258      	strh	r0, [r3, r1]
10003fb0:	3118      	adds	r1, #24
10003fb2:	525a      	strh	r2, [r3, r1]
10003fb4:	3275      	adds	r2, #117	@ 0x75
10003fb6:	395c      	subs	r1, #92	@ 0x5c
10003fb8:	5299      	strh	r1, [r3, r2]
10003fba:	3218      	adds	r2, #24
10003fbc:	3101      	adds	r1, #1
10003fbe:	5299      	strh	r1, [r3, r2]
10003fc0:	3218      	adds	r2, #24
10003fc2:	3101      	adds	r1, #1
10003fc4:	5299      	strh	r1, [r3, r2]
10003fc6:	3218      	adds	r2, #24
10003fc8:	3101      	adds	r1, #1
10003fca:	5299      	strh	r1, [r3, r2]
10003fcc:	3508      	adds	r5, #8
10003fce:	3218      	adds	r2, #24
10003fd0:	529d      	strh	r5, [r3, r2]
10003fd2:	3102      	adds	r1, #2
10003fd4:	3218      	adds	r2, #24
10003fd6:	5299      	strh	r1, [r3, r2]
10003fd8:	3218      	adds	r2, #24
10003fda:	3101      	adds	r1, #1
10003fdc:	5299      	strh	r1, [r3, r2]
10003fde:	3218      	adds	r2, #24
10003fe0:	3101      	adds	r1, #1
10003fe2:	5299      	strh	r1, [r3, r2]
10003fe4:	3218      	adds	r2, #24
10003fe6:	3101      	adds	r1, #1
10003fe8:	5299      	strh	r1, [r3, r2]
10003fea:	3218      	adds	r2, #24
10003fec:	3101      	adds	r1, #1
10003fee:	5299      	strh	r1, [r3, r2]
10003ff0:	3218      	adds	r2, #24
10003ff2:	3101      	adds	r1, #1
10003ff4:	5299      	strh	r1, [r3, r2]
10003ff6:	4b0c      	ldr	r3, [pc, #48]	@ (10004028 <runtime_init_default_alarm_pool+0xd0>)
10003ff8:	490c      	ldr	r1, [pc, #48]	@ (1000402c <runtime_init_default_alarm_pool+0xd4>)
10003ffa:	60dc      	str	r4, [r3, #12]
10003ffc:	3001      	adds	r0, #1
10003ffe:	6235      	str	r5, [r6, #32]
10004000:	f7ff fb3e 	bl	10003680 <irq_set_exclusive_handler>
10004004:	2101      	movs	r1, #1
10004006:	2003      	movs	r0, #3
10004008:	f7ff fb02 	bl	10003610 <irq_set_enabled>
1000400c:	4b08      	ldr	r3, [pc, #32]	@ (10004030 <runtime_init_default_alarm_pool+0xd8>)
1000400e:	601d      	str	r5, [r3, #0]
10004010:	e7a7      	b.n	10003f62 <runtime_init_default_alarm_pool+0xa>
10004012:	46c0      	nop			@ (mov r8, r8)
10004014:	2000367c 	.word	0x2000367c
10004018:	200052c8 	.word	0x200052c8
1000401c:	40054000 	.word	0x40054000
10004020:	34000040 	.word	0x34000040
10004024:	0010ffff 	.word	0x0010ffff
10004028:	200051a0 	.word	0x200051a0
1000402c:	10003c59 	.word	0x10003c59
10004030:	40056038 	.word	0x40056038

10004034 <alarm_pool_get_default>:
10004034:	4800      	ldr	r0, [pc, #0]	@ (10004038 <alarm_pool_get_default+0x4>)
10004036:	4770      	bx	lr
10004038:	2000367c 	.word	0x2000367c

1000403c <alarm_pool_add_alarm_at>:
1000403c:	b5f8      	push	{r3, r4, r5, r6, r7, lr}
1000403e:	001f      	movs	r7, r3
10004040:	ab08      	add	r3, sp, #32
10004042:	781b      	ldrb	r3, [r3, #0]
10004044:	0004      	movs	r4, r0
10004046:	0016      	movs	r6, r2
10004048:	2b00      	cmp	r3, #0
1000404a:	d108      	bne.n	1000405e <alarm_pool_add_alarm_at+0x22>
1000404c:	f000 fa08 	bl	10004460 <time_us_64>
10004050:	0032      	movs	r2, r6
10004052:	003b      	movs	r3, r7
10004054:	1a12      	subs	r2, r2, r0
10004056:	418b      	sbcs	r3, r1
10004058:	2b00      	cmp	r3, #0
1000405a:	da00      	bge.n	1000405e <alarm_pool_add_alarm_at+0x22>
1000405c:	e052      	b.n	10004104 <alarm_pool_add_alarm_at+0xc8>
1000405e:	6922      	ldr	r2, [r4, #16]
10004060:	f3ef 8010 	mrs	r0, PRIMASK
10004064:	b672      	cpsid	i
10004066:	6813      	ldr	r3, [r2, #0]
10004068:	2b00      	cmp	r3, #0
1000406a:	d0fc      	beq.n	10004066 <alarm_pool_add_alarm_at+0x2a>
1000406c:	f3bf 8f5f 	dmb	sy
10004070:	2302      	movs	r3, #2
10004072:	5ee1      	ldrsh	r1, [r4, r3]
10004074:	6963      	ldr	r3, [r4, #20]
10004076:	004a      	lsls	r2, r1, #1
10004078:	1852      	adds	r2, r2, r1
1000407a:	00d2      	lsls	r2, r2, #3
1000407c:	189b      	adds	r3, r3, r2
1000407e:	6922      	ldr	r2, [r4, #16]
10004080:	2900      	cmp	r1, #0
10004082:	db36      	blt.n	100040f2 <alarm_pool_add_alarm_at+0xb6>
10004084:	881d      	ldrh	r5, [r3, #0]
10004086:	8065      	strh	r5, [r4, #2]
10004088:	f3bf 8f5f 	dmb	sy
1000408c:	2500      	movs	r5, #0
1000408e:	6015      	str	r5, [r2, #0]
10004090:	f380 8810 	msr	PRIMASK, r0
10004094:	9a06      	ldr	r2, [sp, #24]
10004096:	609e      	str	r6, [r3, #8]
10004098:	60df      	str	r7, [r3, #12]
1000409a:	611a      	str	r2, [r3, #16]
1000409c:	9a07      	ldr	r2, [sp, #28]
1000409e:	615a      	str	r2, [r3, #20]
100040a0:	885a      	ldrh	r2, [r3, #2]
100040a2:	3201      	adds	r2, #1
100040a4:	0452      	lsls	r2, r2, #17
100040a6:	0c52      	lsrs	r2, r2, #17
100040a8:	1c10      	adds	r0, r2, #0
100040aa:	2a00      	cmp	r2, #0
100040ac:	d01f      	beq.n	100040ee <alarm_pool_add_alarm_at+0xb2>
100040ae:	b282      	uxth	r2, r0
100040b0:	8058      	strh	r0, [r3, #2]
100040b2:	0408      	lsls	r0, r1, #16
100040b4:	4310      	orrs	r0, r2
100040b6:	6926      	ldr	r6, [r4, #16]
100040b8:	f3ef 8710 	mrs	r7, PRIMASK
100040bc:	b672      	cpsid	i
100040be:	6832      	ldr	r2, [r6, #0]
100040c0:	2a00      	cmp	r2, #0
100040c2:	d0fc      	beq.n	100040be <alarm_pool_add_alarm_at+0x82>
100040c4:	f3bf 8f5f 	dmb	sy
100040c8:	88a2      	ldrh	r2, [r4, #4]
100040ca:	801a      	strh	r2, [r3, #0]
100040cc:	80a1      	strh	r1, [r4, #4]
100040ce:	6923      	ldr	r3, [r4, #16]
100040d0:	f3bf 8f5f 	dmb	sy
100040d4:	2200      	movs	r2, #0
100040d6:	601a      	str	r2, [r3, #0]
100040d8:	f387 8810 	msr	PRIMASK, r7
100040dc:	490a      	ldr	r1, [pc, #40]	@ (10004108 <alarm_pool_add_alarm_at+0xcc>)
100040de:	7823      	ldrb	r3, [r4, #0]
100040e0:	468c      	mov	ip, r1
100040e2:	3201      	adds	r2, #1
100040e4:	409a      	lsls	r2, r3
100040e6:	68e3      	ldr	r3, [r4, #12]
100040e8:	4463      	add	r3, ip
100040ea:	601a      	str	r2, [r3, #0]
100040ec:	bdf8      	pop	{r3, r4, r5, r6, r7, pc}
100040ee:	2001      	movs	r0, #1
100040f0:	e7dd      	b.n	100040ae <alarm_pool_add_alarm_at+0x72>
100040f2:	f3bf 8f5f 	dmb	sy
100040f6:	2300      	movs	r3, #0
100040f8:	6013      	str	r3, [r2, #0]
100040fa:	f380 8810 	msr	PRIMASK, r0
100040fe:	2001      	movs	r0, #1
10004100:	4240      	negs	r0, r0
10004102:	e7f3      	b.n	100040ec <alarm_pool_add_alarm_at+0xb0>
10004104:	2000      	movs	r0, #0
10004106:	e7f1      	b.n	100040ec <alarm_pool_add_alarm_at+0xb0>
10004108:	0000203c 	.word	0x0000203c

1000410c <alarm_pool_add_alarm_at_force_in_context>:
1000410c:	b570      	push	{r4, r5, r6, lr}
1000410e:	0001      	movs	r1, r0
10004110:	6904      	ldr	r4, [r0, #16]
10004112:	f3ef 8c10 	mrs	ip, PRIMASK
10004116:	b672      	cpsid	i
10004118:	6820      	ldr	r0, [r4, #0]
1000411a:	2800      	cmp	r0, #0
1000411c:	d0fc      	beq.n	10004118 <alarm_pool_add_alarm_at_force_in_context+0xc>
1000411e:	f3bf 8f5f 	dmb	sy
10004122:	2002      	movs	r0, #2
10004124:	5e0d      	ldrsh	r5, [r1, r0]
10004126:	694c      	ldr	r4, [r1, #20]
10004128:	0068      	lsls	r0, r5, #1
1000412a:	1940      	adds	r0, r0, r5
1000412c:	00c0      	lsls	r0, r0, #3
1000412e:	1824      	adds	r4, r4, r0
10004130:	6908      	ldr	r0, [r1, #16]
10004132:	2d00      	cmp	r5, #0
10004134:	db36      	blt.n	100041a4 <alarm_pool_add_alarm_at_force_in_context+0x98>
10004136:	8826      	ldrh	r6, [r4, #0]
10004138:	804e      	strh	r6, [r1, #2]
1000413a:	f3bf 8f5f 	dmb	sy
1000413e:	2600      	movs	r6, #0
10004140:	6006      	str	r6, [r0, #0]
10004142:	f38c 8810 	msr	PRIMASK, ip
10004146:	60e3      	str	r3, [r4, #12]
10004148:	8863      	ldrh	r3, [r4, #2]
1000414a:	9804      	ldr	r0, [sp, #16]
1000414c:	3301      	adds	r3, #1
1000414e:	6120      	str	r0, [r4, #16]
10004150:	045b      	lsls	r3, r3, #17
10004152:	9805      	ldr	r0, [sp, #20]
10004154:	0c5b      	lsrs	r3, r3, #17
10004156:	60a2      	str	r2, [r4, #8]
10004158:	6160      	str	r0, [r4, #20]
1000415a:	1c1a      	adds	r2, r3, #0
1000415c:	2b00      	cmp	r3, #0
1000415e:	d01f      	beq.n	100041a0 <alarm_pool_add_alarm_at_force_in_context+0x94>
10004160:	b293      	uxth	r3, r2
10004162:	0428      	lsls	r0, r5, #16
10004164:	8062      	strh	r2, [r4, #2]
10004166:	4318      	orrs	r0, r3
10004168:	690a      	ldr	r2, [r1, #16]
1000416a:	f3ef 8c10 	mrs	ip, PRIMASK
1000416e:	b672      	cpsid	i
10004170:	6813      	ldr	r3, [r2, #0]
10004172:	2b00      	cmp	r3, #0
10004174:	d0fc      	beq.n	10004170 <alarm_pool_add_alarm_at_force_in_context+0x64>
10004176:	f3bf 8f5f 	dmb	sy
1000417a:	888b      	ldrh	r3, [r1, #4]
1000417c:	8023      	strh	r3, [r4, #0]
1000417e:	808d      	strh	r5, [r1, #4]
10004180:	690b      	ldr	r3, [r1, #16]
10004182:	f3bf 8f5f 	dmb	sy
10004186:	2200      	movs	r2, #0
10004188:	601a      	str	r2, [r3, #0]
1000418a:	f38c 8810 	msr	PRIMASK, ip
1000418e:	780b      	ldrb	r3, [r1, #0]
10004190:	3201      	adds	r2, #1
10004192:	409a      	lsls	r2, r3
10004194:	68cb      	ldr	r3, [r1, #12]
10004196:	4908      	ldr	r1, [pc, #32]	@ (100041b8 <alarm_pool_add_alarm_at_force_in_context+0xac>)
10004198:	468c      	mov	ip, r1
1000419a:	4463      	add	r3, ip
1000419c:	601a      	str	r2, [r3, #0]
1000419e:	bd70      	pop	{r4, r5, r6, pc}
100041a0:	2201      	movs	r2, #1
100041a2:	e7dd      	b.n	10004160 <alarm_pool_add_alarm_at_force_in_context+0x54>
100041a4:	f3bf 8f5f 	dmb	sy
100041a8:	2300      	movs	r3, #0
100041aa:	6003      	str	r3, [r0, #0]
100041ac:	f38c 8810 	msr	PRIMASK, ip
100041b0:	2001      	movs	r0, #1
100041b2:	4240      	negs	r0, r0
100041b4:	e7f3      	b.n	1000419e <alarm_pool_add_alarm_at_force_in_context+0x92>
100041b6:	46c0      	nop			@ (mov r8, r8)
100041b8:	0000203c 	.word	0x0000203c

100041bc <alarm_pool_cancel_alarm>:
100041bc:	b510      	push	{r4, lr}
100041be:	8943      	ldrh	r3, [r0, #10]
100041c0:	140a      	asrs	r2, r1, #16
100041c2:	4293      	cmp	r3, r2
100041c4:	dd1a      	ble.n	100041fc <alarm_pool_cancel_alarm+0x40>
100041c6:	0053      	lsls	r3, r2, #1
100041c8:	189b      	adds	r3, r3, r2
100041ca:	6942      	ldr	r2, [r0, #20]
100041cc:	00db      	lsls	r3, r3, #3
100041ce:	18d3      	adds	r3, r2, r3
100041d0:	6904      	ldr	r4, [r0, #16]
100041d2:	f3ef 8c10 	mrs	ip, PRIMASK
100041d6:	b672      	cpsid	i
100041d8:	6822      	ldr	r2, [r4, #0]
100041da:	2a00      	cmp	r2, #0
100041dc:	d0fc      	beq.n	100041d8 <alarm_pool_cancel_alarm+0x1c>
100041de:	f3bf 8f5f 	dmb	sy
100041e2:	885a      	ldrh	r2, [r3, #2]
100041e4:	0409      	lsls	r1, r1, #16
100041e6:	b294      	uxth	r4, r2
100041e8:	0c09      	lsrs	r1, r1, #16
100041ea:	428a      	cmp	r2, r1
100041ec:	d008      	beq.n	10004200 <alarm_pool_cancel_alarm+0x44>
100041ee:	6903      	ldr	r3, [r0, #16]
100041f0:	f3bf 8f5f 	dmb	sy
100041f4:	2200      	movs	r2, #0
100041f6:	601a      	str	r2, [r3, #0]
100041f8:	f38c 8810 	msr	PRIMASK, ip
100041fc:	2000      	movs	r0, #0
100041fe:	bd10      	pop	{r4, pc}
10004200:	2280      	movs	r2, #128	@ 0x80
10004202:	0212      	lsls	r2, r2, #8
10004204:	4314      	orrs	r4, r2
10004206:	805c      	strh	r4, [r3, #2]
10004208:	2301      	movs	r3, #1
1000420a:	6902      	ldr	r2, [r0, #16]
1000420c:	7183      	strb	r3, [r0, #6]
1000420e:	f3bf 8f5f 	dmb	sy
10004212:	2100      	movs	r1, #0
10004214:	6011      	str	r1, [r2, #0]
10004216:	f38c 8810 	msr	PRIMASK, ip
1000421a:	4904      	ldr	r1, [pc, #16]	@ (1000422c <alarm_pool_cancel_alarm+0x70>)
1000421c:	7802      	ldrb	r2, [r0, #0]
1000421e:	468c      	mov	ip, r1
10004220:	4093      	lsls	r3, r2
10004222:	68c2      	ldr	r2, [r0, #12]
10004224:	2001      	movs	r0, #1
10004226:	4462      	add	r2, ip
10004228:	6013      	str	r3, [r2, #0]
1000422a:	e7e8      	b.n	100041fe <alarm_pool_cancel_alarm+0x42>
1000422c:	0000203c 	.word	0x0000203c

10004230 <alarm_pool_core_num>:
10004230:	7840      	ldrb	r0, [r0, #1]
10004232:	4770      	bx	lr

10004234 <sleep_ms>:
10004234:	b5f0      	push	{r4, r5, r6, r7, lr}
10004236:	46c6      	mov	lr, r8
10004238:	b500      	push	{lr}
1000423a:	b082      	sub	sp, #8
1000423c:	0004      	movs	r4, r0
1000423e:	f000 f90f 	bl	10004460 <time_us_64>
10004242:	22fa      	movs	r2, #250	@ 0xfa
10004244:	0006      	movs	r6, r0
10004246:	000f      	movs	r7, r1
10004248:	0020      	movs	r0, r4
1000424a:	2300      	movs	r3, #0
1000424c:	2100      	movs	r1, #0
1000424e:	0092      	lsls	r2, r2, #2
10004250:	f001 f9be 	bl	100055d0 <__wrap___aeabi_lmul>
10004254:	1980      	adds	r0, r0, r6
10004256:	4179      	adcs	r1, r7
10004258:	0004      	movs	r4, r0
1000425a:	1e0d      	subs	r5, r1, #0
1000425c:	da02      	bge.n	10004264 <sleep_ms+0x30>
1000425e:	2401      	movs	r4, #1
10004260:	4d2e      	ldr	r5, [pc, #184]	@ (1000431c <sleep_ms+0xe8>)
10004262:	4264      	negs	r4, r4
10004264:	2606      	movs	r6, #6
10004266:	4276      	negs	r6, r6
10004268:	17f7      	asrs	r7, r6, #31
1000426a:	1936      	adds	r6, r6, r4
1000426c:	416f      	adcs	r7, r5
1000426e:	42af      	cmp	r7, r5
10004270:	d814      	bhi.n	1000429c <sleep_ms+0x68>
10004272:	d011      	beq.n	10004298 <sleep_ms+0x64>
10004274:	f000 f8f4 	bl	10004460 <time_us_64>
10004278:	0032      	movs	r2, r6
1000427a:	003b      	movs	r3, r7
1000427c:	1a12      	subs	r2, r2, r0
1000427e:	418b      	sbcs	r3, r1
10004280:	2b00      	cmp	r3, #0
10004282:	dc15      	bgt.n	100042b0 <sleep_ms+0x7c>
10004284:	2b00      	cmp	r3, #0
10004286:	d046      	beq.n	10004316 <sleep_ms+0xe2>
10004288:	0020      	movs	r0, r4
1000428a:	0029      	movs	r1, r5
1000428c:	f000 f8f2 	bl	10004474 <busy_wait_until>
10004290:	b002      	add	sp, #8
10004292:	bc80      	pop	{r7}
10004294:	46b8      	mov	r8, r7
10004296:	bdf0      	pop	{r4, r5, r6, r7, pc}
10004298:	42a6      	cmp	r6, r4
1000429a:	d9eb      	bls.n	10004274 <sleep_ms+0x40>
1000429c:	2600      	movs	r6, #0
1000429e:	2700      	movs	r7, #0
100042a0:	f000 f8de 	bl	10004460 <time_us_64>
100042a4:	0032      	movs	r2, r6
100042a6:	003b      	movs	r3, r7
100042a8:	1a12      	subs	r2, r2, r0
100042aa:	418b      	sbcs	r3, r1
100042ac:	2b00      	cmp	r3, #0
100042ae:	dde9      	ble.n	10004284 <sleep_ms+0x50>
100042b0:	f000 f8d6 	bl	10004460 <time_us_64>
100042b4:	0032      	movs	r2, r6
100042b6:	003b      	movs	r3, r7
100042b8:	1a12      	subs	r2, r2, r0
100042ba:	418b      	sbcs	r3, r1
100042bc:	2b00      	cmp	r3, #0
100042be:	db0a      	blt.n	100042d6 <sleep_ms+0xa2>
100042c0:	2300      	movs	r3, #0
100042c2:	9301      	str	r3, [sp, #4]
100042c4:	4b16      	ldr	r3, [pc, #88]	@ (10004320 <sleep_ms+0xec>)
100042c6:	0032      	movs	r2, r6
100042c8:	9300      	str	r3, [sp, #0]
100042ca:	4816      	ldr	r0, [pc, #88]	@ (10004324 <sleep_ms+0xf0>)
100042cc:	003b      	movs	r3, r7
100042ce:	f7ff ff1d 	bl	1000410c <alarm_pool_add_alarm_at_force_in_context>
100042d2:	3001      	adds	r0, #1
100042d4:	d0d8      	beq.n	10004288 <sleep_ms+0x54>
100042d6:	2300      	movs	r3, #0
100042d8:	0039      	movs	r1, r7
100042da:	46b0      	mov	r8, r6
100042dc:	469c      	mov	ip, r3
100042de:	4a12      	ldr	r2, [pc, #72]	@ (10004328 <sleep_ms+0xf4>)
100042e0:	4812      	ldr	r0, [pc, #72]	@ (1000432c <sleep_ms+0xf8>)
100042e2:	6a53      	ldr	r3, [r2, #36]	@ 0x24
100042e4:	4299      	cmp	r1, r3
100042e6:	d804      	bhi.n	100042f2 <sleep_ms+0xbe>
100042e8:	6a96      	ldr	r6, [r2, #40]	@ 0x28
100042ea:	4546      	cmp	r6, r8
100042ec:	d2cc      	bcs.n	10004288 <sleep_ms+0x54>
100042ee:	4299      	cmp	r1, r3
100042f0:	d1ca      	bne.n	10004288 <sleep_ms+0x54>
100042f2:	6806      	ldr	r6, [r0, #0]
100042f4:	f3ef 8710 	mrs	r7, PRIMASK
100042f8:	b672      	cpsid	i
100042fa:	6833      	ldr	r3, [r6, #0]
100042fc:	2b00      	cmp	r3, #0
100042fe:	d0fc      	beq.n	100042fa <sleep_ms+0xc6>
10004300:	f3bf 8f5f 	dmb	sy
10004304:	6803      	ldr	r3, [r0, #0]
10004306:	f3bf 8f5f 	dmb	sy
1000430a:	4666      	mov	r6, ip
1000430c:	601e      	str	r6, [r3, #0]
1000430e:	f387 8810 	msr	PRIMASK, r7
10004312:	bf20      	wfe
10004314:	e7e5      	b.n	100042e2 <sleep_ms+0xae>
10004316:	2a00      	cmp	r2, #0
10004318:	d0b6      	beq.n	10004288 <sleep_ms+0x54>
1000431a:	e7c9      	b.n	100042b0 <sleep_ms+0x7c>
1000431c:	7fffffff 	.word	0x7fffffff
10004320:	10003c29 	.word	0x10003c29
10004324:	2000367c 	.word	0x2000367c
10004328:	40054000 	.word	0x40054000
1000432c:	200052c8 	.word	0x200052c8

10004330 <best_effort_wfe_or_timeout>:
10004330:	b5f0      	push	{r4, r5, r6, r7, lr}
10004332:	4657      	mov	r7, sl
10004334:	464e      	mov	r6, r9
10004336:	46de      	mov	lr, fp
10004338:	4645      	mov	r5, r8
1000433a:	b5e0      	push	{r5, r6, r7, lr}
1000433c:	0006      	movs	r6, r0
1000433e:	000f      	movs	r7, r1
10004340:	b085      	sub	sp, #20
10004342:	f3ef 8305 	mrs	r3, IPSR
10004346:	4699      	mov	r9, r3
10004348:	468b      	mov	fp, r1
1000434a:	2b00      	cmp	r3, #0
1000434c:	d012      	beq.n	10004374 <best_effort_wfe_or_timeout+0x44>
1000434e:	4938      	ldr	r1, [pc, #224]	@ (10004430 <best_effort_wfe_or_timeout+0x100>)
10004350:	2000      	movs	r0, #0
10004352:	6a4b      	ldr	r3, [r1, #36]	@ 0x24
10004354:	42bb      	cmp	r3, r7
10004356:	d306      	bcc.n	10004366 <best_effort_wfe_or_timeout+0x36>
10004358:	6a8a      	ldr	r2, [r1, #40]	@ 0x28
1000435a:	1bdb      	subs	r3, r3, r7
1000435c:	1e59      	subs	r1, r3, #1
1000435e:	418b      	sbcs	r3, r1
10004360:	42b2      	cmp	r2, r6
10004362:	4140      	adcs	r0, r0
10004364:	4318      	orrs	r0, r3
10004366:	b005      	add	sp, #20
10004368:	bcf0      	pop	{r4, r5, r6, r7}
1000436a:	46bb      	mov	fp, r7
1000436c:	46b2      	mov	sl, r6
1000436e:	46a9      	mov	r9, r5
10004370:	46a0      	mov	r8, r4
10004372:	bdf0      	pop	{r4, r5, r6, r7, pc}
10004374:	4b2f      	ldr	r3, [pc, #188]	@ (10004434 <best_effort_wfe_or_timeout+0x104>)
10004376:	469a      	mov	sl, r3
10004378:	68db      	ldr	r3, [r3, #12]
1000437a:	4698      	mov	r8, r3
1000437c:	4653      	mov	r3, sl
1000437e:	781b      	ldrb	r3, [r3, #0]
10004380:	4640      	mov	r0, r8
10004382:	9303      	str	r3, [sp, #12]
10004384:	f000 f864 	bl	10004450 <timer_time_us_64>
10004388:	4642      	mov	r2, r8
1000438a:	9b03      	ldr	r3, [sp, #12]
1000438c:	0004      	movs	r4, r0
1000438e:	3304      	adds	r3, #4
10004390:	009b      	lsls	r3, r3, #2
10004392:	589b      	ldr	r3, [r3, r2]
10004394:	000d      	movs	r5, r1
10004396:	1a1b      	subs	r3, r3, r0
10004398:	0039      	movs	r1, r7
1000439a:	0030      	movs	r0, r6
1000439c:	1b00      	subs	r0, r0, r4
1000439e:	41a9      	sbcs	r1, r5
100043a0:	4589      	cmp	r9, r1
100043a2:	dc10      	bgt.n	100043c6 <best_effort_wfe_or_timeout+0x96>
100043a4:	d00d      	beq.n	100043c2 <best_effort_wfe_or_timeout+0x92>
100043a6:	bf20      	wfe
100043a8:	4a21      	ldr	r2, [pc, #132]	@ (10004430 <best_effort_wfe_or_timeout+0x100>)
100043aa:	2000      	movs	r0, #0
100043ac:	6a53      	ldr	r3, [r2, #36]	@ 0x24
100043ae:	455b      	cmp	r3, fp
100043b0:	d3d9      	bcc.n	10004366 <best_effort_wfe_or_timeout+0x36>
100043b2:	6a92      	ldr	r2, [r2, #40]	@ 0x28
100043b4:	1bdb      	subs	r3, r3, r7
100043b6:	1e59      	subs	r1, r3, #1
100043b8:	418b      	sbcs	r3, r1
100043ba:	42b2      	cmp	r2, r6
100043bc:	4140      	adcs	r0, r0
100043be:	4318      	orrs	r0, r3
100043c0:	e7d1      	b.n	10004366 <best_effort_wfe_or_timeout+0x36>
100043c2:	4283      	cmp	r3, r0
100043c4:	d9ef      	bls.n	100043a6 <best_effort_wfe_or_timeout+0x76>
100043c6:	f000 f84b 	bl	10004460 <time_us_64>
100043ca:	0032      	movs	r2, r6
100043cc:	003b      	movs	r3, r7
100043ce:	1a12      	subs	r2, r2, r0
100043d0:	418b      	sbcs	r3, r1
100043d2:	2b00      	cmp	r3, #0
100043d4:	db1a      	blt.n	1000440c <best_effort_wfe_or_timeout+0xdc>
100043d6:	2300      	movs	r3, #0
100043d8:	9301      	str	r3, [sp, #4]
100043da:	4b17      	ldr	r3, [pc, #92]	@ (10004438 <best_effort_wfe_or_timeout+0x108>)
100043dc:	0032      	movs	r2, r6
100043de:	9300      	str	r3, [sp, #0]
100043e0:	4650      	mov	r0, sl
100043e2:	003b      	movs	r3, r7
100043e4:	f7ff fe92 	bl	1000410c <alarm_pool_add_alarm_at_force_in_context>
100043e8:	1e01      	subs	r1, r0, #0
100043ea:	dd0f      	ble.n	1000440c <best_effort_wfe_or_timeout+0xdc>
100043ec:	4b10      	ldr	r3, [pc, #64]	@ (10004430 <best_effort_wfe_or_timeout+0x100>)
100043ee:	6a5a      	ldr	r2, [r3, #36]	@ 0x24
100043f0:	455a      	cmp	r2, fp
100043f2:	d31b      	bcc.n	1000442c <best_effort_wfe_or_timeout+0xfc>
100043f4:	6a9b      	ldr	r3, [r3, #40]	@ 0x28
100043f6:	42b3      	cmp	r3, r6
100043f8:	d316      	bcc.n	10004428 <best_effort_wfe_or_timeout+0xf8>
100043fa:	4650      	mov	r0, sl
100043fc:	f7ff fede 	bl	100041bc <alarm_pool_cancel_alarm>
10004400:	4a0b      	ldr	r2, [pc, #44]	@ (10004430 <best_effort_wfe_or_timeout+0x100>)
10004402:	2000      	movs	r0, #0
10004404:	6a53      	ldr	r3, [r2, #36]	@ 0x24
10004406:	455b      	cmp	r3, fp
10004408:	d3ad      	bcc.n	10004366 <best_effort_wfe_or_timeout+0x36>
1000440a:	e7d2      	b.n	100043b2 <best_effort_wfe_or_timeout+0x82>
1000440c:	4a08      	ldr	r2, [pc, #32]	@ (10004430 <best_effort_wfe_or_timeout+0x100>)
1000440e:	2000      	movs	r0, #0
10004410:	6a53      	ldr	r3, [r2, #36]	@ 0x24
10004412:	455b      	cmp	r3, fp
10004414:	d3a7      	bcc.n	10004366 <best_effort_wfe_or_timeout+0x36>
10004416:	2000      	movs	r0, #0
10004418:	6a92      	ldr	r2, [r2, #40]	@ 0x28
1000441a:	1bdb      	subs	r3, r3, r7
1000441c:	42b2      	cmp	r2, r6
1000441e:	4140      	adcs	r0, r0
10004420:	1e5a      	subs	r2, r3, #1
10004422:	4193      	sbcs	r3, r2
10004424:	4318      	orrs	r0, r3
10004426:	e79e      	b.n	10004366 <best_effort_wfe_or_timeout+0x36>
10004428:	455a      	cmp	r2, fp
1000442a:	d1e6      	bne.n	100043fa <best_effort_wfe_or_timeout+0xca>
1000442c:	bf20      	wfe
1000442e:	e7e4      	b.n	100043fa <best_effort_wfe_or_timeout+0xca>
10004430:	40054000 	.word	0x40054000
10004434:	2000367c 	.word	0x2000367c
10004438:	10003c29 	.word	0x10003c29

1000443c <timer_hardware_alarm_claim>:
1000443c:	b510      	push	{r4, lr}
1000443e:	4a02      	ldr	r2, [pc, #8]	@ (10004448 <timer_hardware_alarm_claim+0xc>)
10004440:	4802      	ldr	r0, [pc, #8]	@ (1000444c <timer_hardware_alarm_claim+0x10>)
10004442:	f7ff f841 	bl	100034c8 <hw_claim_or_assert>
10004446:	bd10      	pop	{r4, pc}
10004448:	1000b5e8 	.word	0x1000b5e8
1000444c:	20004cfc 	.word	0x20004cfc

10004450 <timer_time_us_64>:
10004450:	0003      	movs	r3, r0
10004452:	6a41      	ldr	r1, [r0, #36]	@ 0x24
10004454:	000a      	movs	r2, r1
10004456:	6a98      	ldr	r0, [r3, #40]	@ 0x28
10004458:	6a59      	ldr	r1, [r3, #36]	@ 0x24
1000445a:	428a      	cmp	r2, r1
1000445c:	d1fa      	bne.n	10004454 <timer_time_us_64+0x4>
1000445e:	4770      	bx	lr

10004460 <time_us_64>:
10004460:	4b03      	ldr	r3, [pc, #12]	@ (10004470 <time_us_64+0x10>)
10004462:	6a59      	ldr	r1, [r3, #36]	@ 0x24
10004464:	000a      	movs	r2, r1
10004466:	6a98      	ldr	r0, [r3, #40]	@ 0x28
10004468:	6a59      	ldr	r1, [r3, #36]	@ 0x24
1000446a:	4291      	cmp	r1, r2
1000446c:	d1fa      	bne.n	10004464 <time_us_64+0x4>
1000446e:	4770      	bx	lr
10004470:	40054000 	.word	0x40054000

10004474 <busy_wait_until>:
10004474:	4a06      	ldr	r2, [pc, #24]	@ (10004490 <busy_wait_until+0x1c>)
10004476:	6a53      	ldr	r3, [r2, #36]	@ 0x24
10004478:	4299      	cmp	r1, r3
1000447a:	d8fc      	bhi.n	10004476 <busy_wait_until+0x2>
1000447c:	d107      	bne.n	1000448e <busy_wait_until+0x1a>
1000447e:	4b04      	ldr	r3, [pc, #16]	@ (10004490 <busy_wait_until+0x1c>)
10004480:	e002      	b.n	10004488 <busy_wait_until+0x14>
10004482:	6a5a      	ldr	r2, [r3, #36]	@ 0x24
10004484:	4291      	cmp	r1, r2
10004486:	d102      	bne.n	1000448e <busy_wait_until+0x1a>
10004488:	6a9a      	ldr	r2, [r3, #40]	@ 0x28
1000448a:	4290      	cmp	r0, r2
1000448c:	d8f9      	bhi.n	10004482 <busy_wait_until+0xe>
1000448e:	4770      	bx	lr
10004490:	40054000 	.word	0x40054000

10004494 <clock_configure_int_divider>:
10004494:	b5f8      	push	{r3, r4, r5, r6, r7, lr}
10004496:	46de      	mov	lr, fp
10004498:	464e      	mov	r6, r9
1000449a:	4657      	mov	r7, sl
1000449c:	4645      	mov	r5, r8
1000449e:	b5e0      	push	{r5, r6, r7, lr}
100044a0:	468b      	mov	fp, r1
100044a2:	0005      	movs	r5, r0
100044a4:	990a      	ldr	r1, [sp, #40]	@ 0x28
100044a6:	0018      	movs	r0, r3
100044a8:	0016      	movs	r6, r2
100044aa:	f000 fd0f 	bl	10004ecc <__wrap___aeabi_uidiv>
100044ae:	9b0a      	ldr	r3, [sp, #40]	@ 0x28
100044b0:	006c      	lsls	r4, r5, #1
100044b2:	021f      	lsls	r7, r3, #8
100044b4:	4b32      	ldr	r3, [pc, #200]	@ (10004580 <clock_configure_int_divider+0xec>)
100044b6:	1964      	adds	r4, r4, r5
100044b8:	469c      	mov	ip, r3
100044ba:	00a4      	lsls	r4, r4, #2
100044bc:	4464      	add	r4, ip
100044be:	6863      	ldr	r3, [r4, #4]
100044c0:	4681      	mov	r9, r0
100044c2:	429f      	cmp	r7, r3
100044c4:	d900      	bls.n	100044c8 <clock_configure_int_divider+0x34>
100044c6:	6067      	str	r7, [r4, #4]
100044c8:	1f2b      	subs	r3, r5, #4
100044ca:	b2db      	uxtb	r3, r3
100044cc:	4698      	mov	r8, r3
100044ce:	2b01      	cmp	r3, #1
100044d0:	d930      	bls.n	10004534 <clock_configure_int_divider+0xa0>
100044d2:	23c0      	movs	r3, #192	@ 0xc0
100044d4:	2280      	movs	r2, #128	@ 0x80
100044d6:	019b      	lsls	r3, r3, #6
100044d8:	18e3      	adds	r3, r4, r3
100044da:	0112      	lsls	r2, r2, #4
100044dc:	601a      	str	r2, [r3, #0]
100044de:	4b29      	ldr	r3, [pc, #164]	@ (10004584 <clock_configure_int_divider+0xf0>)
100044e0:	00ad      	lsls	r5, r5, #2
100044e2:	5959      	ldr	r1, [r3, r5]
100044e4:	469a      	mov	sl, r3
100044e6:	2900      	cmp	r1, #0
100044e8:	d11b      	bne.n	10004522 <clock_configure_int_divider+0x8e>
100044ea:	0173      	lsls	r3, r6, #5
100044ec:	26e0      	movs	r6, #224	@ 0xe0
100044ee:	6822      	ldr	r2, [r4, #0]
100044f0:	4053      	eors	r3, r2
100044f2:	401e      	ands	r6, r3
100044f4:	2380      	movs	r3, #128	@ 0x80
100044f6:	4642      	mov	r2, r8
100044f8:	015b      	lsls	r3, r3, #5
100044fa:	18e3      	adds	r3, r4, r3
100044fc:	601e      	str	r6, [r3, #0]
100044fe:	2a01      	cmp	r2, #1
10004500:	d930      	bls.n	10004564 <clock_configure_int_divider+0xd0>
10004502:	2380      	movs	r3, #128	@ 0x80
10004504:	2280      	movs	r2, #128	@ 0x80
10004506:	019b      	lsls	r3, r3, #6
10004508:	18e3      	adds	r3, r4, r3
1000450a:	0112      	lsls	r2, r2, #4
1000450c:	601a      	str	r2, [r3, #0]
1000450e:	4653      	mov	r3, sl
10004510:	464a      	mov	r2, r9
10004512:	6067      	str	r7, [r4, #4]
10004514:	515a      	str	r2, [r3, r5]
10004516:	bcf0      	pop	{r4, r5, r6, r7}
10004518:	46bb      	mov	fp, r7
1000451a:	46b2      	mov	sl, r6
1000451c:	46a9      	mov	r9, r5
1000451e:	46a0      	mov	r8, r4
10004520:	bdf8      	pop	{r3, r4, r5, r6, r7, pc}
10004522:	6958      	ldr	r0, [r3, #20]
10004524:	f000 fcd2 	bl	10004ecc <__wrap___aeabi_uidiv>
10004528:	3001      	adds	r0, #1
1000452a:	0043      	lsls	r3, r0, #1
1000452c:	181b      	adds	r3, r3, r0
1000452e:	3b03      	subs	r3, #3
10004530:	d2fd      	bcs.n	1000452e <clock_configure_int_divider+0x9a>
10004532:	e7da      	b.n	100044ea <clock_configure_int_divider+0x56>
10004534:	465b      	mov	r3, fp
10004536:	2b01      	cmp	r3, #1
10004538:	d1cb      	bne.n	100044d2 <clock_configure_int_divider+0x3e>
1000453a:	23c0      	movs	r3, #192	@ 0xc0
1000453c:	2203      	movs	r2, #3
1000453e:	019b      	lsls	r3, r3, #6
10004540:	18e3      	adds	r3, r4, r3
10004542:	601a      	str	r2, [r3, #0]
10004544:	3a02      	subs	r2, #2
10004546:	68a3      	ldr	r3, [r4, #8]
10004548:	421a      	tst	r2, r3
1000454a:	d0fc      	beq.n	10004546 <clock_configure_int_divider+0xb2>
1000454c:	0173      	lsls	r3, r6, #5
1000454e:	26e0      	movs	r6, #224	@ 0xe0
10004550:	6822      	ldr	r2, [r4, #0]
10004552:	00ad      	lsls	r5, r5, #2
10004554:	4053      	eors	r3, r2
10004556:	401e      	ands	r6, r3
10004558:	2380      	movs	r3, #128	@ 0x80
1000455a:	4a0a      	ldr	r2, [pc, #40]	@ (10004584 <clock_configure_int_divider+0xf0>)
1000455c:	015b      	lsls	r3, r3, #5
1000455e:	4692      	mov	sl, r2
10004560:	18e3      	adds	r3, r4, r3
10004562:	601e      	str	r6, [r3, #0]
10004564:	465a      	mov	r2, fp
10004566:	6821      	ldr	r1, [r4, #0]
10004568:	4051      	eors	r1, r2
1000456a:	2203      	movs	r2, #3
1000456c:	400a      	ands	r2, r1
1000456e:	601a      	str	r2, [r3, #0]
10004570:	2201      	movs	r2, #1
10004572:	465b      	mov	r3, fp
10004574:	409a      	lsls	r2, r3
10004576:	68a3      	ldr	r3, [r4, #8]
10004578:	421a      	tst	r2, r3
1000457a:	d0fc      	beq.n	10004576 <clock_configure_int_divider+0xe2>
1000457c:	e7c1      	b.n	10004502 <clock_configure_int_divider+0x6e>
1000457e:	46c0      	nop			@ (mov r8, r8)
10004580:	40008000 	.word	0x40008000
10004584:	20004d04 	.word	0x20004d04

10004588 <clock_configure_undivided>:
10004588:	b5f0      	push	{r4, r5, r6, r7, lr}
1000458a:	4646      	mov	r6, r8
1000458c:	464f      	mov	r7, r9
1000458e:	46d6      	mov	lr, sl
10004590:	b5c0      	push	{r6, r7, lr}
10004592:	001f      	movs	r7, r3
10004594:	4b34      	ldr	r3, [pc, #208]	@ (10004668 <clock_configure_undivided+0xe0>)
10004596:	0044      	lsls	r4, r0, #1
10004598:	469c      	mov	ip, r3
1000459a:	1824      	adds	r4, r4, r0
1000459c:	00a4      	lsls	r4, r4, #2
1000459e:	4464      	add	r4, ip
100045a0:	6863      	ldr	r3, [r4, #4]
100045a2:	4688      	mov	r8, r1
100045a4:	0016      	movs	r6, r2
100045a6:	2bff      	cmp	r3, #255	@ 0xff
100045a8:	d802      	bhi.n	100045b0 <clock_configure_undivided+0x28>
100045aa:	2380      	movs	r3, #128	@ 0x80
100045ac:	005b      	lsls	r3, r3, #1
100045ae:	6063      	str	r3, [r4, #4]
100045b0:	1f03      	subs	r3, r0, #4
100045b2:	b2db      	uxtb	r3, r3
100045b4:	469a      	mov	sl, r3
100045b6:	2b01      	cmp	r3, #1
100045b8:	d930      	bls.n	1000461c <clock_configure_undivided+0x94>
100045ba:	23c0      	movs	r3, #192	@ 0xc0
100045bc:	2280      	movs	r2, #128	@ 0x80
100045be:	019b      	lsls	r3, r3, #6
100045c0:	18e3      	adds	r3, r4, r3
100045c2:	0112      	lsls	r2, r2, #4
100045c4:	601a      	str	r2, [r3, #0]
100045c6:	4b29      	ldr	r3, [pc, #164]	@ (1000466c <clock_configure_undivided+0xe4>)
100045c8:	0085      	lsls	r5, r0, #2
100045ca:	5959      	ldr	r1, [r3, r5]
100045cc:	4699      	mov	r9, r3
100045ce:	2900      	cmp	r1, #0
100045d0:	d11b      	bne.n	1000460a <clock_configure_undivided+0x82>
100045d2:	0173      	lsls	r3, r6, #5
100045d4:	26e0      	movs	r6, #224	@ 0xe0
100045d6:	6822      	ldr	r2, [r4, #0]
100045d8:	4053      	eors	r3, r2
100045da:	401e      	ands	r6, r3
100045dc:	2380      	movs	r3, #128	@ 0x80
100045de:	4652      	mov	r2, sl
100045e0:	015b      	lsls	r3, r3, #5
100045e2:	18e3      	adds	r3, r4, r3
100045e4:	601e      	str	r6, [r3, #0]
100045e6:	2a01      	cmp	r2, #1
100045e8:	d930      	bls.n	1000464c <clock_configure_undivided+0xc4>
100045ea:	2380      	movs	r3, #128	@ 0x80
100045ec:	2280      	movs	r2, #128	@ 0x80
100045ee:	019b      	lsls	r3, r3, #6
100045f0:	18e3      	adds	r3, r4, r3
100045f2:	0112      	lsls	r2, r2, #4
100045f4:	601a      	str	r2, [r3, #0]
100045f6:	2380      	movs	r3, #128	@ 0x80
100045f8:	005b      	lsls	r3, r3, #1
100045fa:	6063      	str	r3, [r4, #4]
100045fc:	464b      	mov	r3, r9
100045fe:	515f      	str	r7, [r3, r5]
10004600:	bce0      	pop	{r5, r6, r7}
10004602:	46ba      	mov	sl, r7
10004604:	46b1      	mov	r9, r6
10004606:	46a8      	mov	r8, r5
10004608:	bdf0      	pop	{r4, r5, r6, r7, pc}
1000460a:	6958      	ldr	r0, [r3, #20]
1000460c:	f000 fc5e 	bl	10004ecc <__wrap___aeabi_uidiv>
10004610:	3001      	adds	r0, #1
10004612:	0043      	lsls	r3, r0, #1
10004614:	181b      	adds	r3, r3, r0
10004616:	3b03      	subs	r3, #3
10004618:	d2fd      	bcs.n	10004616 <clock_configure_undivided+0x8e>
1000461a:	e7da      	b.n	100045d2 <clock_configure_undivided+0x4a>
1000461c:	4643      	mov	r3, r8
1000461e:	2b01      	cmp	r3, #1
10004620:	d1cb      	bne.n	100045ba <clock_configure_undivided+0x32>
10004622:	23c0      	movs	r3, #192	@ 0xc0
10004624:	2203      	movs	r2, #3
10004626:	019b      	lsls	r3, r3, #6
10004628:	18e3      	adds	r3, r4, r3
1000462a:	601a      	str	r2, [r3, #0]
1000462c:	3a02      	subs	r2, #2
1000462e:	68a3      	ldr	r3, [r4, #8]
10004630:	421a      	tst	r2, r3
10004632:	d0fc      	beq.n	1000462e <clock_configure_undivided+0xa6>
10004634:	0173      	lsls	r3, r6, #5
10004636:	26e0      	movs	r6, #224	@ 0xe0
10004638:	6822      	ldr	r2, [r4, #0]
1000463a:	0085      	lsls	r5, r0, #2
1000463c:	4053      	eors	r3, r2
1000463e:	401e      	ands	r6, r3
10004640:	2380      	movs	r3, #128	@ 0x80
10004642:	4a0a      	ldr	r2, [pc, #40]	@ (1000466c <clock_configure_undivided+0xe4>)
10004644:	015b      	lsls	r3, r3, #5
10004646:	4691      	mov	r9, r2
10004648:	18e3      	adds	r3, r4, r3
1000464a:	601e      	str	r6, [r3, #0]
1000464c:	4642      	mov	r2, r8
1000464e:	6821      	ldr	r1, [r4, #0]
10004650:	4051      	eors	r1, r2
10004652:	2203      	movs	r2, #3
10004654:	400a      	ands	r2, r1
10004656:	601a      	str	r2, [r3, #0]
10004658:	2301      	movs	r3, #1
1000465a:	4642      	mov	r2, r8
1000465c:	4093      	lsls	r3, r2
1000465e:	68a2      	ldr	r2, [r4, #8]
10004660:	4213      	tst	r3, r2
10004662:	d0fc      	beq.n	1000465e <clock_configure_undivided+0xd6>
10004664:	e7c1      	b.n	100045ea <clock_configure_undivided+0x62>
10004666:	46c0      	nop			@ (mov r8, r8)
10004668:	40008000 	.word	0x40008000
1000466c:	20004d04 	.word	0x20004d04

10004670 <clock_get_hz>:
10004670:	4b01      	ldr	r3, [pc, #4]	@ (10004678 <clock_get_hz+0x8>)
10004672:	0080      	lsls	r0, r0, #2
10004674:	58c0      	ldr	r0, [r0, r3]
10004676:	4770      	bx	lr
10004678:	20004d04 	.word	0x20004d04

1000467c <set_sys_clock_pll>:
1000467c:	b5f0      	push	{r4, r5, r6, r7, lr}
1000467e:	4647      	mov	r7, r8
10004680:	46ce      	mov	lr, r9
10004682:	b580      	push	{r7, lr}
10004684:	4b5b      	ldr	r3, [pc, #364]	@ (100047f4 <set_sys_clock_pll+0x178>)
10004686:	0016      	movs	r6, r2
10004688:	685a      	ldr	r2, [r3, #4]
1000468a:	0007      	movs	r7, r0
1000468c:	4688      	mov	r8, r1
1000468e:	b083      	sub	sp, #12
10004690:	2aff      	cmp	r2, #255	@ 0xff
10004692:	d802      	bhi.n	1000469a <set_sys_clock_pll+0x1e>
10004694:	2280      	movs	r2, #128	@ 0x80
10004696:	0052      	lsls	r2, r2, #1
10004698:	605a      	str	r2, [r3, #4]
1000469a:	2203      	movs	r2, #3
1000469c:	4b56      	ldr	r3, [pc, #344]	@ (100047f8 <set_sys_clock_pll+0x17c>)
1000469e:	4d55      	ldr	r5, [pc, #340]	@ (100047f4 <set_sys_clock_pll+0x178>)
100046a0:	601a      	str	r2, [r3, #0]
100046a2:	2301      	movs	r3, #1
100046a4:	68ac      	ldr	r4, [r5, #8]
100046a6:	4223      	tst	r3, r4
100046a8:	d0fc      	beq.n	100046a4 <set_sys_clock_pll+0x28>
100046aa:	2220      	movs	r2, #32
100046ac:	6829      	ldr	r1, [r5, #0]
100046ae:	4051      	eors	r1, r2
100046b0:	32c0      	adds	r2, #192	@ 0xc0
100046b2:	400a      	ands	r2, r1
100046b4:	4951      	ldr	r1, [pc, #324]	@ (100047fc <set_sys_clock_pll+0x180>)
100046b6:	600a      	str	r2, [r1, #0]
100046b8:	682a      	ldr	r2, [r5, #0]
100046ba:	4d4e      	ldr	r5, [pc, #312]	@ (100047f4 <set_sys_clock_pll+0x178>)
100046bc:	405a      	eors	r2, r3
100046be:	2303      	movs	r3, #3
100046c0:	4013      	ands	r3, r2
100046c2:	600b      	str	r3, [r1, #0]
100046c4:	2302      	movs	r3, #2
100046c6:	68ac      	ldr	r4, [r5, #8]
100046c8:	4223      	tst	r3, r4
100046ca:	d0fc      	beq.n	100046c6 <set_sys_clock_pll+0x4a>
100046cc:	2280      	movs	r2, #128	@ 0x80
100046ce:	4b4c      	ldr	r3, [pc, #304]	@ (10004800 <set_sys_clock_pll+0x184>)
100046d0:	0112      	lsls	r2, r2, #4
100046d2:	601a      	str	r2, [r3, #0]
100046d4:	2380      	movs	r3, #128	@ 0x80
100046d6:	005b      	lsls	r3, r3, #1
100046d8:	606b      	str	r3, [r5, #4]
100046da:	4c4a      	ldr	r4, [pc, #296]	@ (10004804 <set_sys_clock_pll+0x188>)
100046dc:	4699      	mov	r9, r3
100046de:	4b4a      	ldr	r3, [pc, #296]	@ (10004808 <set_sys_clock_pll+0x18c>)
100046e0:	003a      	movs	r2, r7
100046e2:	6163      	str	r3, [r4, #20]
100046e4:	2101      	movs	r1, #1
100046e6:	4643      	mov	r3, r8
100046e8:	4848      	ldr	r0, [pc, #288]	@ (1000480c <set_sys_clock_pll+0x190>)
100046ea:	9600      	str	r6, [sp, #0]
100046ec:	f000 f9d8 	bl	10004aa0 <pll_init>
100046f0:	4641      	mov	r1, r8
100046f2:	0038      	movs	r0, r7
100046f4:	4371      	muls	r1, r6
100046f6:	f000 fbe9 	bl	10004ecc <__wrap___aeabi_uidiv>
100046fa:	4b45      	ldr	r3, [pc, #276]	@ (10004810 <set_sys_clock_pll+0x194>)
100046fc:	0005      	movs	r5, r0
100046fe:	685a      	ldr	r2, [r3, #4]
10004700:	2aff      	cmp	r2, #255	@ 0xff
10004702:	d801      	bhi.n	10004708 <set_sys_clock_pll+0x8c>
10004704:	464a      	mov	r2, r9
10004706:	605a      	str	r2, [r3, #4]
10004708:	2280      	movs	r2, #128	@ 0x80
1000470a:	4b42      	ldr	r3, [pc, #264]	@ (10004814 <set_sys_clock_pll+0x198>)
1000470c:	0112      	lsls	r2, r2, #4
1000470e:	601a      	str	r2, [r3, #0]
10004710:	6921      	ldr	r1, [r4, #16]
10004712:	2900      	cmp	r1, #0
10004714:	d007      	beq.n	10004726 <set_sys_clock_pll+0xaa>
10004716:	6960      	ldr	r0, [r4, #20]
10004718:	f000 fbd8 	bl	10004ecc <__wrap___aeabi_uidiv>
1000471c:	3001      	adds	r0, #1
1000471e:	0043      	lsls	r3, r0, #1
10004720:	181b      	adds	r3, r3, r0
10004722:	3b03      	subs	r3, #3
10004724:	d2fd      	bcs.n	10004722 <set_sys_clock_pll+0xa6>
10004726:	23e0      	movs	r3, #224	@ 0xe0
10004728:	4a39      	ldr	r2, [pc, #228]	@ (10004810 <set_sys_clock_pll+0x194>)
1000472a:	483b      	ldr	r0, [pc, #236]	@ (10004818 <set_sys_clock_pll+0x19c>)
1000472c:	6811      	ldr	r1, [r2, #0]
1000472e:	400b      	ands	r3, r1
10004730:	6003      	str	r3, [r0, #0]
10004732:	2302      	movs	r3, #2
10004734:	6811      	ldr	r1, [r2, #0]
10004736:	4059      	eors	r1, r3
10004738:	3301      	adds	r3, #1
1000473a:	400b      	ands	r3, r1
1000473c:	2104      	movs	r1, #4
1000473e:	6003      	str	r3, [r0, #0]
10004740:	6893      	ldr	r3, [r2, #8]
10004742:	4219      	tst	r1, r3
10004744:	d0fc      	beq.n	10004740 <set_sys_clock_pll+0xc4>
10004746:	2180      	movs	r1, #128	@ 0x80
10004748:	4b34      	ldr	r3, [pc, #208]	@ (1000481c <set_sys_clock_pll+0x1a0>)
1000474a:	0109      	lsls	r1, r1, #4
1000474c:	6019      	str	r1, [r3, #0]
1000474e:	2180      	movs	r1, #128	@ 0x80
10004750:	4b33      	ldr	r3, [pc, #204]	@ (10004820 <set_sys_clock_pll+0x1a4>)
10004752:	0049      	lsls	r1, r1, #1
10004754:	6051      	str	r1, [r2, #4]
10004756:	6123      	str	r3, [r4, #16]
10004758:	4b26      	ldr	r3, [pc, #152]	@ (100047f4 <set_sys_clock_pll+0x178>)
1000475a:	685a      	ldr	r2, [r3, #4]
1000475c:	2aff      	cmp	r2, #255	@ 0xff
1000475e:	d800      	bhi.n	10004762 <set_sys_clock_pll+0xe6>
10004760:	6059      	str	r1, [r3, #4]
10004762:	2203      	movs	r2, #3
10004764:	2101      	movs	r1, #1
10004766:	4b24      	ldr	r3, [pc, #144]	@ (100047f8 <set_sys_clock_pll+0x17c>)
10004768:	601a      	str	r2, [r3, #0]
1000476a:	4a22      	ldr	r2, [pc, #136]	@ (100047f4 <set_sys_clock_pll+0x178>)
1000476c:	6893      	ldr	r3, [r2, #8]
1000476e:	4219      	tst	r1, r3
10004770:	d0fc      	beq.n	1000476c <set_sys_clock_pll+0xf0>
10004772:	23e0      	movs	r3, #224	@ 0xe0
10004774:	6810      	ldr	r0, [r2, #0]
10004776:	4003      	ands	r3, r0
10004778:	4820      	ldr	r0, [pc, #128]	@ (100047fc <set_sys_clock_pll+0x180>)
1000477a:	6003      	str	r3, [r0, #0]
1000477c:	6812      	ldr	r2, [r2, #0]
1000477e:	2303      	movs	r3, #3
10004780:	404a      	eors	r2, r1
10004782:	2102      	movs	r1, #2
10004784:	4013      	ands	r3, r2
10004786:	4a1b      	ldr	r2, [pc, #108]	@ (100047f4 <set_sys_clock_pll+0x178>)
10004788:	6003      	str	r3, [r0, #0]
1000478a:	6893      	ldr	r3, [r2, #8]
1000478c:	4219      	tst	r1, r3
1000478e:	d0fc      	beq.n	1000478a <set_sys_clock_pll+0x10e>
10004790:	2180      	movs	r1, #128	@ 0x80
10004792:	4b1b      	ldr	r3, [pc, #108]	@ (10004800 <set_sys_clock_pll+0x184>)
10004794:	0109      	lsls	r1, r1, #4
10004796:	6019      	str	r1, [r3, #0]
10004798:	2180      	movs	r1, #128	@ 0x80
1000479a:	4b22      	ldr	r3, [pc, #136]	@ (10004824 <set_sys_clock_pll+0x1a8>)
1000479c:	0049      	lsls	r1, r1, #1
1000479e:	6051      	str	r1, [r2, #4]
100047a0:	6165      	str	r5, [r4, #20]
100047a2:	685a      	ldr	r2, [r3, #4]
100047a4:	2aff      	cmp	r2, #255	@ 0xff
100047a6:	d800      	bhi.n	100047aa <set_sys_clock_pll+0x12e>
100047a8:	6059      	str	r1, [r3, #4]
100047aa:	2280      	movs	r2, #128	@ 0x80
100047ac:	4b1e      	ldr	r3, [pc, #120]	@ (10004828 <set_sys_clock_pll+0x1ac>)
100047ae:	0112      	lsls	r2, r2, #4
100047b0:	601a      	str	r2, [r3, #0]
100047b2:	69a1      	ldr	r1, [r4, #24]
100047b4:	2900      	cmp	r1, #0
100047b6:	d007      	beq.n	100047c8 <set_sys_clock_pll+0x14c>
100047b8:	6960      	ldr	r0, [r4, #20]
100047ba:	f000 fb87 	bl	10004ecc <__wrap___aeabi_uidiv>
100047be:	3001      	adds	r0, #1
100047c0:	0043      	lsls	r3, r0, #1
100047c2:	181b      	adds	r3, r3, r0
100047c4:	3b03      	subs	r3, #3
100047c6:	d2fd      	bcs.n	100047c4 <set_sys_clock_pll+0x148>
100047c8:	2340      	movs	r3, #64	@ 0x40
100047ca:	4916      	ldr	r1, [pc, #88]	@ (10004824 <set_sys_clock_pll+0x1a8>)
100047cc:	680a      	ldr	r2, [r1, #0]
100047ce:	405a      	eors	r2, r3
100047d0:	33a0      	adds	r3, #160	@ 0xa0
100047d2:	4013      	ands	r3, r2
100047d4:	4a15      	ldr	r2, [pc, #84]	@ (1000482c <set_sys_clock_pll+0x1b0>)
100047d6:	6013      	str	r3, [r2, #0]
100047d8:	2280      	movs	r2, #128	@ 0x80
100047da:	4b15      	ldr	r3, [pc, #84]	@ (10004830 <set_sys_clock_pll+0x1b4>)
100047dc:	0112      	lsls	r2, r2, #4
100047de:	601a      	str	r2, [r3, #0]
100047e0:	2380      	movs	r3, #128	@ 0x80
100047e2:	005b      	lsls	r3, r3, #1
100047e4:	604b      	str	r3, [r1, #4]
100047e6:	4b08      	ldr	r3, [pc, #32]	@ (10004808 <set_sys_clock_pll+0x18c>)
100047e8:	61a3      	str	r3, [r4, #24]
100047ea:	b003      	add	sp, #12
100047ec:	bcc0      	pop	{r6, r7}
100047ee:	46b9      	mov	r9, r7
100047f0:	46b0      	mov	r8, r6
100047f2:	bdf0      	pop	{r4, r5, r6, r7, pc}
100047f4:	4000803c 	.word	0x4000803c
100047f8:	4000b03c 	.word	0x4000b03c
100047fc:	4000903c 	.word	0x4000903c
10004800:	4000a03c 	.word	0x4000a03c
10004804:	20004d04 	.word	0x20004d04
10004808:	02dc6c00 	.word	0x02dc6c00
1000480c:	40028000 	.word	0x40028000
10004810:	40008030 	.word	0x40008030
10004814:	4000b030 	.word	0x4000b030
10004818:	40009030 	.word	0x40009030
1000481c:	4000a030 	.word	0x4000a030
10004820:	00b71b00 	.word	0x00b71b00
10004824:	40008048 	.word	0x40008048
10004828:	4000b048 	.word	0x4000b048
1000482c:	40009048 	.word	0x40009048
10004830:	4000a048 	.word	0x4000a048

10004834 <check_sys_clock_khz>:
10004834:	b5f0      	push	{r4, r5, r6, r7, lr}
10004836:	464e      	mov	r6, r9
10004838:	46de      	mov	lr, fp
1000483a:	4657      	mov	r7, sl
1000483c:	4645      	mov	r5, r8
1000483e:	b5e0      	push	{r5, r6, r7, lr}
10004840:	0016      	movs	r6, r2
10004842:	4a92      	ldr	r2, [pc, #584]	@ (10004a8c <check_sys_clock_khz+0x258>)
10004844:	b085      	sub	sp, #20
10004846:	4693      	mov	fp, r2
10004848:	22a0      	movs	r2, #160	@ 0xa0
1000484a:	0052      	lsls	r2, r2, #1
1000484c:	4691      	mov	r9, r2
1000484e:	465a      	mov	r2, fp
10004850:	9603      	str	r6, [sp, #12]
10004852:	469b      	mov	fp, r3
10004854:	0006      	movs	r6, r0
10004856:	9201      	str	r2, [sp, #4]
10004858:	9102      	str	r1, [sp, #8]
1000485a:	9b01      	ldr	r3, [sp, #4]
1000485c:	4a8c      	ldr	r2, [pc, #560]	@ (10004a90 <check_sys_clock_khz+0x25c>)
1000485e:	4293      	cmp	r3, r2
10004860:	d90d      	bls.n	1000487e <check_sys_clock_khz+0x4a>
10004862:	2301      	movs	r3, #1
10004864:	425b      	negs	r3, r3
10004866:	469c      	mov	ip, r3
10004868:	4a8a      	ldr	r2, [pc, #552]	@ (10004a94 <check_sys_clock_khz+0x260>)
1000486a:	44e1      	add	r9, ip
1000486c:	4694      	mov	ip, r2
1000486e:	9b01      	ldr	r3, [sp, #4]
10004870:	4463      	add	r3, ip
10004872:	9301      	str	r3, [sp, #4]
10004874:	464b      	mov	r3, r9
10004876:	2b0f      	cmp	r3, #15
10004878:	d1ef      	bne.n	1000485a <check_sys_clock_khz+0x26>
1000487a:	2000      	movs	r0, #0
1000487c:	e08e      	b.n	1000499c <check_sys_clock_khz+0x168>
1000487e:	001f      	movs	r7, r3
10004880:	4b85      	ldr	r3, [pc, #532]	@ (10004a98 <check_sys_clock_khz+0x264>)
10004882:	2407      	movs	r4, #7
10004884:	469c      	mov	ip, r3
10004886:	4467      	add	r7, ip
10004888:	0023      	movs	r3, r4
1000488a:	4363      	muls	r3, r4
1000488c:	0038      	movs	r0, r7
1000488e:	0019      	movs	r1, r3
10004890:	4698      	mov	r8, r3
10004892:	f000 fb1b 	bl	10004ecc <__wrap___aeabi_uidiv>
10004896:	46a2      	mov	sl, r4
10004898:	1e65      	subs	r5, r4, #1
1000489a:	4286      	cmp	r6, r0
1000489c:	d050      	beq.n	10004940 <check_sys_clock_khz+0x10c>
1000489e:	436c      	muls	r4, r5
100048a0:	0038      	movs	r0, r7
100048a2:	0021      	movs	r1, r4
100048a4:	f000 fb12 	bl	10004ecc <__wrap___aeabi_uidiv>
100048a8:	4286      	cmp	r6, r0
100048aa:	d059      	beq.n	10004960 <check_sys_clock_khz+0x12c>
100048ac:	1e6b      	subs	r3, r5, #1
100048ae:	4698      	mov	r8, r3
100048b0:	2d01      	cmp	r5, #1
100048b2:	d100      	bne.n	100048b6 <check_sys_clock_khz+0x82>
100048b4:	e0d3      	b.n	10004a5e <check_sys_clock_khz+0x22a>
100048b6:	4653      	mov	r3, sl
100048b8:	1ae4      	subs	r4, r4, r3
100048ba:	0021      	movs	r1, r4
100048bc:	0038      	movs	r0, r7
100048be:	f000 fb05 	bl	10004ecc <__wrap___aeabi_uidiv>
100048c2:	4286      	cmp	r6, r0
100048c4:	d058      	beq.n	10004978 <check_sys_clock_khz+0x144>
100048c6:	1eab      	subs	r3, r5, #2
100048c8:	4698      	mov	r8, r3
100048ca:	2d02      	cmp	r5, #2
100048cc:	d100      	bne.n	100048d0 <check_sys_clock_khz+0x9c>
100048ce:	e0b9      	b.n	10004a44 <check_sys_clock_khz+0x210>
100048d0:	4653      	mov	r3, sl
100048d2:	1ae4      	subs	r4, r4, r3
100048d4:	0021      	movs	r1, r4
100048d6:	0038      	movs	r0, r7
100048d8:	f000 faf8 	bl	10004ecc <__wrap___aeabi_uidiv>
100048dc:	4286      	cmp	r6, r0
100048de:	d064      	beq.n	100049aa <check_sys_clock_khz+0x176>
100048e0:	1eeb      	subs	r3, r5, #3
100048e2:	4698      	mov	r8, r3
100048e4:	2d03      	cmp	r5, #3
100048e6:	d066      	beq.n	100049b6 <check_sys_clock_khz+0x182>
100048e8:	4653      	mov	r3, sl
100048ea:	1ae4      	subs	r4, r4, r3
100048ec:	0021      	movs	r1, r4
100048ee:	0038      	movs	r0, r7
100048f0:	f000 faec 	bl	10004ecc <__wrap___aeabi_uidiv>
100048f4:	4286      	cmp	r6, r0
100048f6:	d100      	bne.n	100048fa <check_sys_clock_khz+0xc6>
100048f8:	e072      	b.n	100049e0 <check_sys_clock_khz+0x1ac>
100048fa:	1f2b      	subs	r3, r5, #4
100048fc:	4698      	mov	r8, r3
100048fe:	2d04      	cmp	r5, #4
10004900:	d100      	bne.n	10004904 <check_sys_clock_khz+0xd0>
10004902:	e074      	b.n	100049ee <check_sys_clock_khz+0x1ba>
10004904:	4653      	mov	r3, sl
10004906:	1ae4      	subs	r4, r4, r3
10004908:	0021      	movs	r1, r4
1000490a:	0038      	movs	r0, r7
1000490c:	f000 fade 	bl	10004ecc <__wrap___aeabi_uidiv>
10004910:	4286      	cmp	r6, r0
10004912:	d100      	bne.n	10004916 <check_sys_clock_khz+0xe2>
10004914:	e07d      	b.n	10004a12 <check_sys_clock_khz+0x1de>
10004916:	2d05      	cmp	r5, #5
10004918:	d100      	bne.n	1000491c <check_sys_clock_khz+0xe8>
1000491a:	e07f      	b.n	10004a1c <check_sys_clock_khz+0x1e8>
1000491c:	4653      	mov	r3, sl
1000491e:	0038      	movs	r0, r7
10004920:	1ae1      	subs	r1, r4, r3
10004922:	f000 fad3 	bl	10004ecc <__wrap___aeabi_uidiv>
10004926:	2406      	movs	r4, #6
10004928:	4286      	cmp	r6, r0
1000492a:	d1ad      	bne.n	10004888 <check_sys_clock_khz+0x54>
1000492c:	2900      	cmp	r1, #0
1000492e:	d1ab      	bne.n	10004888 <check_sys_clock_khz+0x54>
10004930:	46c8      	mov	r8, r9
10004932:	465b      	mov	r3, fp
10004934:	46d1      	mov	r9, sl
10004936:	2501      	movs	r5, #1
10004938:	9802      	ldr	r0, [sp, #8]
1000493a:	9e03      	ldr	r6, [sp, #12]
1000493c:	e026      	b.n	1000498c <check_sys_clock_khz+0x158>
1000493e:	46a8      	mov	r8, r5
10004940:	4641      	mov	r1, r8
10004942:	0038      	movs	r0, r7
10004944:	f000 fac2 	bl	10004ecc <__wrap___aeabi_uidiv>
10004948:	2900      	cmp	r1, #0
1000494a:	d100      	bne.n	1000494e <check_sys_clock_khz+0x11a>
1000494c:	e097      	b.n	10004a7e <check_sys_clock_khz+0x24a>
1000494e:	1e65      	subs	r5, r4, #1
10004950:	46a2      	mov	sl, r4
10004952:	436c      	muls	r4, r5
10004954:	0038      	movs	r0, r7
10004956:	0021      	movs	r1, r4
10004958:	f000 fab8 	bl	10004ecc <__wrap___aeabi_uidiv>
1000495c:	4286      	cmp	r6, r0
1000495e:	d1a5      	bne.n	100048ac <check_sys_clock_khz+0x78>
10004960:	0021      	movs	r1, r4
10004962:	0038      	movs	r0, r7
10004964:	f000 fab2 	bl	10004ecc <__wrap___aeabi_uidiv>
10004968:	2900      	cmp	r1, #0
1000496a:	d19f      	bne.n	100048ac <check_sys_clock_khz+0x78>
1000496c:	46c8      	mov	r8, r9
1000496e:	465b      	mov	r3, fp
10004970:	46d1      	mov	r9, sl
10004972:	9802      	ldr	r0, [sp, #8]
10004974:	9e03      	ldr	r6, [sp, #12]
10004976:	e009      	b.n	1000498c <check_sys_clock_khz+0x158>
10004978:	2900      	cmp	r1, #0
1000497a:	d1a4      	bne.n	100048c6 <check_sys_clock_khz+0x92>
1000497c:	4652      	mov	r2, sl
1000497e:	46c2      	mov	sl, r8
10004980:	465b      	mov	r3, fp
10004982:	46c8      	mov	r8, r9
10004984:	4655      	mov	r5, sl
10004986:	4691      	mov	r9, r2
10004988:	9802      	ldr	r0, [sp, #8]
1000498a:	9e03      	ldr	r6, [sp, #12]
1000498c:	4642      	mov	r2, r8
1000498e:	4943      	ldr	r1, [pc, #268]	@ (10004a9c <check_sys_clock_khz+0x268>)
10004990:	4351      	muls	r1, r2
10004992:	464a      	mov	r2, r9
10004994:	6001      	str	r1, [r0, #0]
10004996:	2001      	movs	r0, #1
10004998:	6032      	str	r2, [r6, #0]
1000499a:	601d      	str	r5, [r3, #0]
1000499c:	b005      	add	sp, #20
1000499e:	bcf0      	pop	{r4, r5, r6, r7}
100049a0:	46bb      	mov	fp, r7
100049a2:	46b2      	mov	sl, r6
100049a4:	46a9      	mov	r9, r5
100049a6:	46a0      	mov	r8, r4
100049a8:	bdf0      	pop	{r4, r5, r6, r7, pc}
100049aa:	2900      	cmp	r1, #0
100049ac:	d0e6      	beq.n	1000497c <check_sys_clock_khz+0x148>
100049ae:	1eeb      	subs	r3, r5, #3
100049b0:	4698      	mov	r8, r3
100049b2:	2d03      	cmp	r5, #3
100049b4:	d198      	bne.n	100048e8 <check_sys_clock_khz+0xb4>
100049b6:	2109      	movs	r1, #9
100049b8:	0038      	movs	r0, r7
100049ba:	2403      	movs	r4, #3
100049bc:	2509      	movs	r5, #9
100049be:	f000 fa85 	bl	10004ecc <__wrap___aeabi_uidiv>
100049c2:	4286      	cmp	r6, r0
100049c4:	d0bb      	beq.n	1000493e <check_sys_clock_khz+0x10a>
100049c6:	2303      	movs	r3, #3
100049c8:	2106      	movs	r1, #6
100049ca:	0038      	movs	r0, r7
100049cc:	469a      	mov	sl, r3
100049ce:	3403      	adds	r4, #3
100049d0:	3d07      	subs	r5, #7
100049d2:	f000 fa7b 	bl	10004ecc <__wrap___aeabi_uidiv>
100049d6:	4286      	cmp	r6, r0
100049d8:	d0c2      	beq.n	10004960 <check_sys_clock_khz+0x12c>
100049da:	2301      	movs	r3, #1
100049dc:	4698      	mov	r8, r3
100049de:	e76a      	b.n	100048b6 <check_sys_clock_khz+0x82>
100049e0:	2900      	cmp	r1, #0
100049e2:	d0cb      	beq.n	1000497c <check_sys_clock_khz+0x148>
100049e4:	1f2b      	subs	r3, r5, #4
100049e6:	4698      	mov	r8, r3
100049e8:	2d04      	cmp	r5, #4
100049ea:	d000      	beq.n	100049ee <check_sys_clock_khz+0x1ba>
100049ec:	e78a      	b.n	10004904 <check_sys_clock_khz+0xd0>
100049ee:	2404      	movs	r4, #4
100049f0:	350c      	adds	r5, #12
100049f2:	093b      	lsrs	r3, r7, #4
100049f4:	429e      	cmp	r6, r3
100049f6:	d0a2      	beq.n	1000493e <check_sys_clock_khz+0x10a>
100049f8:	2304      	movs	r3, #4
100049fa:	210c      	movs	r1, #12
100049fc:	0038      	movs	r0, r7
100049fe:	469a      	mov	sl, r3
10004a00:	3408      	adds	r4, #8
10004a02:	3d0d      	subs	r5, #13
10004a04:	f000 fa62 	bl	10004ecc <__wrap___aeabi_uidiv>
10004a08:	4286      	cmp	r6, r0
10004a0a:	d0a9      	beq.n	10004960 <check_sys_clock_khz+0x12c>
10004a0c:	2302      	movs	r3, #2
10004a0e:	4698      	mov	r8, r3
10004a10:	e751      	b.n	100048b6 <check_sys_clock_khz+0x82>
10004a12:	2900      	cmp	r1, #0
10004a14:	d0b2      	beq.n	1000497c <check_sys_clock_khz+0x148>
10004a16:	2d05      	cmp	r5, #5
10004a18:	d000      	beq.n	10004a1c <check_sys_clock_khz+0x1e8>
10004a1a:	e77f      	b.n	1000491c <check_sys_clock_khz+0xe8>
10004a1c:	2119      	movs	r1, #25
10004a1e:	0038      	movs	r0, r7
10004a20:	2519      	movs	r5, #25
10004a22:	f000 fa53 	bl	10004ecc <__wrap___aeabi_uidiv>
10004a26:	4286      	cmp	r6, r0
10004a28:	d026      	beq.n	10004a78 <check_sys_clock_khz+0x244>
10004a2a:	2114      	movs	r1, #20
10004a2c:	0038      	movs	r0, r7
10004a2e:	f000 fa4d 	bl	10004ecc <__wrap___aeabi_uidiv>
10004a32:	2305      	movs	r3, #5
10004a34:	2414      	movs	r4, #20
10004a36:	469a      	mov	sl, r3
10004a38:	4286      	cmp	r6, r0
10004a3a:	d01b      	beq.n	10004a74 <check_sys_clock_khz+0x240>
10004a3c:	3b02      	subs	r3, #2
10004a3e:	4698      	mov	r8, r3
10004a40:	3d15      	subs	r5, #21
10004a42:	e738      	b.n	100048b6 <check_sys_clock_khz+0x82>
10004a44:	2304      	movs	r3, #4
10004a46:	2402      	movs	r4, #2
10004a48:	4698      	mov	r8, r3
10004a4a:	08bb      	lsrs	r3, r7, #2
10004a4c:	429e      	cmp	r6, r3
10004a4e:	d100      	bne.n	10004a52 <check_sys_clock_khz+0x21e>
10004a50:	e776      	b.n	10004940 <check_sys_clock_khz+0x10c>
10004a52:	46a2      	mov	sl, r4
10004a54:	3d01      	subs	r5, #1
10004a56:	087b      	lsrs	r3, r7, #1
10004a58:	429e      	cmp	r6, r3
10004a5a:	d100      	bne.n	10004a5e <check_sys_clock_khz+0x22a>
10004a5c:	e780      	b.n	10004960 <check_sys_clock_khz+0x12c>
10004a5e:	42b7      	cmp	r7, r6
10004a60:	d000      	beq.n	10004a64 <check_sys_clock_khz+0x230>
10004a62:	e6fe      	b.n	10004862 <check_sys_clock_khz+0x2e>
10004a64:	2201      	movs	r2, #1
10004a66:	46c8      	mov	r8, r9
10004a68:	465b      	mov	r3, fp
10004a6a:	4691      	mov	r9, r2
10004a6c:	2501      	movs	r5, #1
10004a6e:	9802      	ldr	r0, [sp, #8]
10004a70:	9e03      	ldr	r6, [sp, #12]
10004a72:	e78b      	b.n	1000498c <check_sys_clock_khz+0x158>
10004a74:	2504      	movs	r5, #4
10004a76:	e773      	b.n	10004960 <check_sys_clock_khz+0x12c>
10004a78:	46a8      	mov	r8, r5
10004a7a:	2405      	movs	r4, #5
10004a7c:	e760      	b.n	10004940 <check_sys_clock_khz+0x10c>
10004a7e:	46c8      	mov	r8, r9
10004a80:	465b      	mov	r3, fp
10004a82:	46a1      	mov	r9, r4
10004a84:	0025      	movs	r5, r4
10004a86:	9802      	ldr	r0, [sp, #8]
10004a88:	9e03      	ldr	r6, [sp, #12]
10004a8a:	e77f      	b.n	1000498c <check_sys_clock_khz+0x158>
10004a8c:	002f2650 	.word	0x002f2650
10004a90:	000cf850 	.word	0x000cf850
10004a94:	ffffd120 	.word	0xffffd120
10004a98:	000b71b0 	.word	0x000b71b0
10004a9c:	00b71b00 	.word	0x00b71b00

10004aa0 <pll_init>:
10004aa0:	b5f8      	push	{r3, r4, r5, r6, r7, lr}
10004aa2:	0004      	movs	r4, r0
10004aa4:	4821      	ldr	r0, [pc, #132]	@ (10004b2c <pll_init+0x8c>)
10004aa6:	001e      	movs	r6, r3
10004aa8:	0017      	movs	r7, r2
10004aaa:	000d      	movs	r5, r1
10004aac:	f000 fa0e 	bl	10004ecc <__wrap___aeabi_uidiv>
10004ab0:	0001      	movs	r1, r0
10004ab2:	0038      	movs	r0, r7
10004ab4:	f000 fa0a 	bl	10004ecc <__wrap___aeabi_uidiv>
10004ab8:	9b06      	ldr	r3, [sp, #24]
10004aba:	0436      	lsls	r6, r6, #16
10004abc:	031b      	lsls	r3, r3, #12
10004abe:	431e      	orrs	r6, r3
10004ac0:	6823      	ldr	r3, [r4, #0]
10004ac2:	2b00      	cmp	r3, #0
10004ac4:	db20      	blt.n	10004b08 <pll_init+0x68>
10004ac6:	4b1a      	ldr	r3, [pc, #104]	@ (10004b30 <pll_init+0x90>)
10004ac8:	491a      	ldr	r1, [pc, #104]	@ (10004b34 <pll_init+0x94>)
10004aca:	18e3      	adds	r3, r4, r3
10004acc:	1e5a      	subs	r2, r3, #1
10004ace:	4193      	sbcs	r3, r2
10004ad0:	2280      	movs	r2, #128	@ 0x80
10004ad2:	0192      	lsls	r2, r2, #6
10004ad4:	4694      	mov	ip, r2
10004ad6:	425b      	negs	r3, r3
10004ad8:	0b1b      	lsrs	r3, r3, #12
10004ada:	4a17      	ldr	r2, [pc, #92]	@ (10004b38 <pll_init+0x98>)
10004adc:	031b      	lsls	r3, r3, #12
10004ade:	4463      	add	r3, ip
10004ae0:	6013      	str	r3, [r2, #0]
10004ae2:	4a16      	ldr	r2, [pc, #88]	@ (10004b3c <pll_init+0x9c>)
10004ae4:	6013      	str	r3, [r2, #0]
10004ae6:	001f      	movs	r7, r3
10004ae8:	680a      	ldr	r2, [r1, #0]
10004aea:	4397      	bics	r7, r2
10004aec:	d1fb      	bne.n	10004ae6 <pll_init+0x46>
10004aee:	4b14      	ldr	r3, [pc, #80]	@ (10004b40 <pll_init+0xa0>)
10004af0:	6025      	str	r5, [r4, #0]
10004af2:	18e2      	adds	r2, r4, r3
10004af4:	2321      	movs	r3, #33	@ 0x21
10004af6:	60a0      	str	r0, [r4, #8]
10004af8:	6013      	str	r3, [r2, #0]
10004afa:	6823      	ldr	r3, [r4, #0]
10004afc:	2b00      	cmp	r3, #0
10004afe:	dafc      	bge.n	10004afa <pll_init+0x5a>
10004b00:	2308      	movs	r3, #8
10004b02:	60e6      	str	r6, [r4, #12]
10004b04:	6013      	str	r3, [r2, #0]
10004b06:	bdf8      	pop	{r3, r4, r5, r6, r7, pc}
10004b08:	233f      	movs	r3, #63	@ 0x3f
10004b0a:	6822      	ldr	r2, [r4, #0]
10004b0c:	4013      	ands	r3, r2
10004b0e:	42ab      	cmp	r3, r5
10004b10:	d1d9      	bne.n	10004ac6 <pll_init+0x26>
10004b12:	68a3      	ldr	r3, [r4, #8]
10004b14:	051b      	lsls	r3, r3, #20
10004b16:	0d1b      	lsrs	r3, r3, #20
10004b18:	4283      	cmp	r3, r0
10004b1a:	d1d4      	bne.n	10004ac6 <pll_init+0x26>
10004b1c:	22ee      	movs	r2, #238	@ 0xee
10004b1e:	68e3      	ldr	r3, [r4, #12]
10004b20:	02d2      	lsls	r2, r2, #11
10004b22:	4013      	ands	r3, r2
10004b24:	42b3      	cmp	r3, r6
10004b26:	d1ce      	bne.n	10004ac6 <pll_init+0x26>
10004b28:	e7ed      	b.n	10004b06 <pll_init+0x66>
10004b2a:	46c0      	nop			@ (mov r8, r8)
10004b2c:	00b71b00 	.word	0x00b71b00
10004b30:	bffd4000 	.word	0xbffd4000
10004b34:	4000c008 	.word	0x4000c008
10004b38:	4000e000 	.word	0x4000e000
10004b3c:	4000f000 	.word	0x4000f000
10004b40:	00003004 	.word	0x00003004

10004b44 <watchdog_reboot>:
10004b44:	b510      	push	{r4, lr}
10004b46:	2480      	movs	r4, #128	@ 0x80
10004b48:	4b1c      	ldr	r3, [pc, #112]	@ (10004bbc <watchdog_reboot+0x78>)
10004b4a:	05e4      	lsls	r4, r4, #23
10004b4c:	601c      	str	r4, [r3, #0]
10004b4e:	2800      	cmp	r0, #0
10004b50:	d01a      	beq.n	10004b88 <watchdog_reboot+0x44>
10004b52:	2301      	movs	r3, #1
10004b54:	4c1a      	ldr	r4, [pc, #104]	@ (10004bc0 <watchdog_reboot+0x7c>)
10004b56:	4318      	orrs	r0, r3
10004b58:	4b1a      	ldr	r3, [pc, #104]	@ (10004bc4 <watchdog_reboot+0x80>)
10004b5a:	61dc      	str	r4, [r3, #28]
10004b5c:	4c1a      	ldr	r4, [pc, #104]	@ (10004bc8 <watchdog_reboot+0x84>)
10004b5e:	4044      	eors	r4, r0
10004b60:	621c      	str	r4, [r3, #32]
10004b62:	6259      	str	r1, [r3, #36]	@ 0x24
10004b64:	6298      	str	r0, [r3, #40]	@ 0x28
10004b66:	2180      	movs	r1, #128	@ 0x80
10004b68:	4b14      	ldr	r3, [pc, #80]	@ (10004bbc <watchdog_reboot+0x78>)
10004b6a:	05c9      	lsls	r1, r1, #23
10004b6c:	6019      	str	r1, [r3, #0]
10004b6e:	4817      	ldr	r0, [pc, #92]	@ (10004bcc <watchdog_reboot+0x88>)
10004b70:	4917      	ldr	r1, [pc, #92]	@ (10004bd0 <watchdog_reboot+0x8c>)
10004b72:	6008      	str	r0, [r1, #0]
10004b74:	21e0      	movs	r1, #224	@ 0xe0
10004b76:	04c9      	lsls	r1, r1, #19
10004b78:	6019      	str	r1, [r3, #0]
10004b7a:	2a00      	cmp	r2, #0
10004b7c:	d107      	bne.n	10004b8e <watchdog_reboot+0x4a>
10004b7e:	2280      	movs	r2, #128	@ 0x80
10004b80:	4b14      	ldr	r3, [pc, #80]	@ (10004bd4 <watchdog_reboot+0x90>)
10004b82:	0612      	lsls	r2, r2, #24
10004b84:	601a      	str	r2, [r3, #0]
10004b86:	bd10      	pop	{r4, pc}
10004b88:	4b0e      	ldr	r3, [pc, #56]	@ (10004bc4 <watchdog_reboot+0x80>)
10004b8a:	61d8      	str	r0, [r3, #28]
10004b8c:	e7eb      	b.n	10004b66 <watchdog_reboot+0x22>
10004b8e:	0153      	lsls	r3, r2, #5
10004b90:	1a9b      	subs	r3, r3, r2
10004b92:	009b      	lsls	r3, r3, #2
10004b94:	189a      	adds	r2, r3, r2
10004b96:	2380      	movs	r3, #128	@ 0x80
10004b98:	0112      	lsls	r2, r2, #4
10004b9a:	045b      	lsls	r3, r3, #17
10004b9c:	429a      	cmp	r2, r3
10004b9e:	d209      	bcs.n	10004bb4 <watchdog_reboot+0x70>
10004ba0:	0013      	movs	r3, r2
10004ba2:	490d      	ldr	r1, [pc, #52]	@ (10004bd8 <watchdog_reboot+0x94>)
10004ba4:	600b      	str	r3, [r1, #0]
10004ba6:	4b07      	ldr	r3, [pc, #28]	@ (10004bc4 <watchdog_reboot+0x80>)
10004ba8:	605a      	str	r2, [r3, #4]
10004baa:	2280      	movs	r2, #128	@ 0x80
10004bac:	4b09      	ldr	r3, [pc, #36]	@ (10004bd4 <watchdog_reboot+0x90>)
10004bae:	05d2      	lsls	r2, r2, #23
10004bb0:	601a      	str	r2, [r3, #0]
10004bb2:	e7e8      	b.n	10004b86 <watchdog_reboot+0x42>
10004bb4:	4b09      	ldr	r3, [pc, #36]	@ (10004bdc <watchdog_reboot+0x98>)
10004bb6:	001a      	movs	r2, r3
10004bb8:	e7f3      	b.n	10004ba2 <watchdog_reboot+0x5e>
10004bba:	46c0      	nop			@ (mov r8, r8)
10004bbc:	4005b000 	.word	0x4005b000
10004bc0:	b007c0d3 	.word	0xb007c0d3
10004bc4:	40058000 	.word	0x40058000
10004bc8:	4ff83f2d 	.word	0x4ff83f2d
10004bcc:	0001fffc 	.word	0x0001fffc
10004bd0:	40012008 	.word	0x40012008
10004bd4:	4005a000 	.word	0x4005a000
10004bd8:	20005170 	.word	0x20005170
10004bdc:	00ffffff 	.word	0x00ffffff

10004be0 <tick_start>:
10004be0:	2380      	movs	r3, #128	@ 0x80
10004be2:	4a02      	ldr	r2, [pc, #8]	@ (10004bec <tick_start+0xc>)
10004be4:	009b      	lsls	r3, r3, #2
10004be6:	430b      	orrs	r3, r1
10004be8:	62d3      	str	r3, [r2, #44]	@ 0x2c
10004bea:	4770      	bx	lr
10004bec:	40058000 	.word	0x40058000

10004bf0 <rom_func_lookup>:
10004bf0:	2300      	movs	r3, #0
10004bf2:	b510      	push	{r4, lr}
10004bf4:	0001      	movs	r1, r0
10004bf6:	8a98      	ldrh	r0, [r3, #20]
10004bf8:	8b1b      	ldrh	r3, [r3, #24]
10004bfa:	4798      	blx	r3
10004bfc:	bd10      	pop	{r4, pc}
10004bfe:	46c0      	nop			@ (mov r8, r8)

10004c00 <rom_data_lookup>:
10004c00:	2316      	movs	r3, #22
10004c02:	b510      	push	{r4, lr}
10004c04:	0001      	movs	r1, r0
10004c06:	8818      	ldrh	r0, [r3, #0]
10004c08:	3302      	adds	r3, #2
10004c0a:	881b      	ldrh	r3, [r3, #0]
10004c0c:	4798      	blx	r3
10004c0e:	bd10      	pop	{r4, pc}

10004c10 <rom_funcs_lookup>:
10004c10:	b5f8      	push	{r3, r4, r5, r6, r7, lr}
10004c12:	4647      	mov	r7, r8
10004c14:	46ce      	mov	lr, r9
10004c16:	b580      	push	{r7, lr}
10004c18:	1e0f      	subs	r7, r1, #0
10004c1a:	d018      	beq.n	10004c4e <rom_funcs_lookup+0x3e>
10004c1c:	2314      	movs	r3, #20
10004c1e:	4699      	mov	r9, r3
10004c20:	3304      	adds	r3, #4
10004c22:	0004      	movs	r4, r0
10004c24:	2500      	movs	r5, #0
10004c26:	2601      	movs	r6, #1
10004c28:	4698      	mov	r8, r3
10004c2a:	464b      	mov	r3, r9
10004c2c:	8818      	ldrh	r0, [r3, #0]
10004c2e:	4643      	mov	r3, r8
10004c30:	6821      	ldr	r1, [r4, #0]
10004c32:	881b      	ldrh	r3, [r3, #0]
10004c34:	4798      	blx	r3
10004c36:	c401      	stmia	r4!, {r0}
10004c38:	1e43      	subs	r3, r0, #1
10004c3a:	4198      	sbcs	r0, r3
10004c3c:	3501      	adds	r5, #1
10004c3e:	4006      	ands	r6, r0
10004c40:	42af      	cmp	r7, r5
10004c42:	d1f2      	bne.n	10004c2a <rom_funcs_lookup+0x1a>
10004c44:	0030      	movs	r0, r6
10004c46:	bcc0      	pop	{r6, r7}
10004c48:	46b9      	mov	r9, r7
10004c4a:	46b0      	mov	r8, r6
10004c4c:	bdf8      	pop	{r3, r4, r5, r6, r7, pc}
10004c4e:	2601      	movs	r6, #1
10004c50:	e7f8      	b.n	10004c44 <rom_funcs_lookup+0x34>
10004c52:	46c0      	nop			@ (mov r8, r8)

10004c54 <rom_reset_usb_boot>:
10004c54:	2300      	movs	r3, #0
10004c56:	b570      	push	{r4, r5, r6, lr}
10004c58:	0004      	movs	r4, r0
10004c5a:	000d      	movs	r5, r1
10004c5c:	8a98      	ldrh	r0, [r3, #20]
10004c5e:	4903      	ldr	r1, [pc, #12]	@ (10004c6c <rom_reset_usb_boot+0x18>)
10004c60:	8b1b      	ldrh	r3, [r3, #24]
10004c62:	4798      	blx	r3
10004c64:	0029      	movs	r1, r5
10004c66:	0003      	movs	r3, r0
10004c68:	0020      	movs	r0, r4
10004c6a:	4798      	blx	r3
10004c6c:	00004255 	.word	0x00004255

10004c70 <rom_reset_usb_boot_extra>:
10004c70:	2300      	movs	r3, #0
10004c72:	b570      	push	{r4, r5, r6, lr}
10004c74:	0004      	movs	r4, r0
10004c76:	000d      	movs	r5, r1
10004c78:	8a98      	ldrh	r0, [r3, #20]
10004c7a:	4905      	ldr	r1, [pc, #20]	@ (10004c90 <rom_reset_usb_boot_extra+0x20>)
10004c7c:	8b1b      	ldrh	r3, [r3, #24]
10004c7e:	4798      	blx	r3
10004c80:	0003      	movs	r3, r0
10004c82:	2000      	movs	r0, #0
10004c84:	2c00      	cmp	r4, #0
10004c86:	db01      	blt.n	10004c8c <rom_reset_usb_boot_extra+0x1c>
10004c88:	3001      	adds	r0, #1
10004c8a:	40a0      	lsls	r0, r4
10004c8c:	0029      	movs	r1, r5
10004c8e:	4798      	blx	r3
10004c90:	00004255 	.word	0x00004255

10004c94 <xosc_init>:
10004c94:	23aa      	movs	r3, #170	@ 0xaa
10004c96:	4a06      	ldr	r2, [pc, #24]	@ (10004cb0 <xosc_init+0x1c>)
10004c98:	011b      	lsls	r3, r3, #4
10004c9a:	6013      	str	r3, [r2, #0]
10004c9c:	238d      	movs	r3, #141	@ 0x8d
10004c9e:	005b      	lsls	r3, r3, #1
10004ca0:	60d3      	str	r3, [r2, #12]
10004ca2:	4904      	ldr	r1, [pc, #16]	@ (10004cb4 <xosc_init+0x20>)
10004ca4:	4b04      	ldr	r3, [pc, #16]	@ (10004cb8 <xosc_init+0x24>)
10004ca6:	6019      	str	r1, [r3, #0]
10004ca8:	6853      	ldr	r3, [r2, #4]
10004caa:	2b00      	cmp	r3, #0
10004cac:	dafc      	bge.n	10004ca8 <xosc_init+0x14>
10004cae:	4770      	bx	lr
10004cb0:	40024000 	.word	0x40024000
10004cb4:	00fab000 	.word	0x00fab000
10004cb8:	40026000 	.word	0x40026000

10004cbc <first_per_core_initializer>:
10004cbc:	4770      	bx	lr
10004cbe:	46c0      	nop			@ (mov r8, r8)

10004cc0 <hard_assertion_failure>:
10004cc0:	b510      	push	{r4, lr}
10004cc2:	4801      	ldr	r0, [pc, #4]	@ (10004cc8 <hard_assertion_failure+0x8>)
10004cc4:	f7fe fbd2 	bl	1000346c <panic>
10004cc8:	1000b60c 	.word	0x1000b60c

10004ccc <runtime_run_initializers>:
10004ccc:	b570      	push	{r4, r5, r6, lr}
10004cce:	4d07      	ldr	r5, [pc, #28]	@ (10004cec <runtime_run_initializers+0x20>)
10004cd0:	4e07      	ldr	r6, [pc, #28]	@ (10004cf0 <runtime_run_initializers+0x24>)
10004cd2:	42b5      	cmp	r5, r6
10004cd4:	d209      	bcs.n	10004cea <runtime_run_initializers+0x1e>
10004cd6:	2400      	movs	r4, #0
10004cd8:	3e01      	subs	r6, #1
10004cda:	1b76      	subs	r6, r6, r5
10004cdc:	08b6      	lsrs	r6, r6, #2
10004cde:	cd08      	ldmia	r5!, {r3}
10004ce0:	4798      	blx	r3
10004ce2:	0023      	movs	r3, r4
10004ce4:	3401      	adds	r4, #1
10004ce6:	42b3      	cmp	r3, r6
10004ce8:	d1f9      	bne.n	10004cde <runtime_run_initializers+0x12>
10004cea:	bd70      	pop	{r4, r5, r6, pc}
10004cec:	1000ac40 	.word	0x1000ac40
10004cf0:	1000ac7c 	.word	0x1000ac7c

10004cf4 <runtime_init_early_resets>:
10004cf4:	4b05      	ldr	r3, [pc, #20]	@ (10004d0c <runtime_init_early_resets+0x18>)
10004cf6:	4a06      	ldr	r2, [pc, #24]	@ (10004d10 <runtime_init_early_resets+0x1c>)
10004cf8:	4906      	ldr	r1, [pc, #24]	@ (10004d14 <runtime_init_early_resets+0x20>)
10004cfa:	601a      	str	r2, [r3, #0]
10004cfc:	4a06      	ldr	r2, [pc, #24]	@ (10004d18 <runtime_init_early_resets+0x24>)
10004cfe:	4b07      	ldr	r3, [pc, #28]	@ (10004d1c <runtime_init_early_resets+0x28>)
10004d00:	601a      	str	r2, [r3, #0]
10004d02:	0010      	movs	r0, r2
10004d04:	680b      	ldr	r3, [r1, #0]
10004d06:	4398      	bics	r0, r3
10004d08:	d1fb      	bne.n	10004d02 <runtime_init_early_resets+0xe>
10004d0a:	4770      	bx	lr
10004d0c:	4000e000 	.word	0x4000e000
10004d10:	fefbcdbf 	.word	0xfefbcdbf
10004d14:	4000c008 	.word	0x4000c008
10004d18:	003c7ffe 	.word	0x003c7ffe
10004d1c:	4000f000 	.word	0x4000f000

10004d20 <runtime_init_usb_power_down>:
10004d20:	4b04      	ldr	r3, [pc, #16]	@ (10004d34 <runtime_init_usb_power_down+0x14>)
10004d22:	6cdb      	ldr	r3, [r3, #76]	@ 0x4c
10004d24:	2b00      	cmp	r3, #0
10004d26:	d103      	bne.n	10004d30 <runtime_init_usb_power_down+0x10>
10004d28:	2280      	movs	r2, #128	@ 0x80
10004d2a:	4b03      	ldr	r3, [pc, #12]	@ (10004d38 <runtime_init_usb_power_down+0x18>)
10004d2c:	02d2      	lsls	r2, r2, #11
10004d2e:	601a      	str	r2, [r3, #0]
10004d30:	4770      	bx	lr
10004d32:	46c0      	nop			@ (mov r8, r8)
10004d34:	50110000 	.word	0x50110000
10004d38:	5011204c 	.word	0x5011204c

10004d3c <runtime_init_post_clock_resets>:
10004d3c:	4a04      	ldr	r2, [pc, #16]	@ (10004d50 <runtime_init_post_clock_resets+0x14>)
10004d3e:	4b05      	ldr	r3, [pc, #20]	@ (10004d54 <runtime_init_post_clock_resets+0x18>)
10004d40:	601a      	str	r2, [r3, #0]
10004d42:	4a05      	ldr	r2, [pc, #20]	@ (10004d58 <runtime_init_post_clock_resets+0x1c>)
10004d44:	6813      	ldr	r3, [r2, #0]
10004d46:	01db      	lsls	r3, r3, #7
10004d48:	3380      	adds	r3, #128	@ 0x80
10004d4a:	d1fb      	bne.n	10004d44 <runtime_init_post_clock_resets+0x8>
10004d4c:	4770      	bx	lr
10004d4e:	46c0      	nop			@ (mov r8, r8)
10004d50:	01ffffff 	.word	0x01ffffff
10004d54:	4000f000 	.word	0x4000f000
10004d58:	4000c008 	.word	0x4000c008

10004d5c <runtime_init_rp2040_gpio_ie_disable>:
10004d5c:	2240      	movs	r2, #64	@ 0x40
10004d5e:	4b03      	ldr	r3, [pc, #12]	@ (10004d6c <runtime_init_rp2040_gpio_ie_disable+0x10>)
10004d60:	679a      	str	r2, [r3, #120]	@ 0x78
10004d62:	675a      	str	r2, [r3, #116]	@ 0x74
10004d64:	671a      	str	r2, [r3, #112]	@ 0x70
10004d66:	66da      	str	r2, [r3, #108]	@ 0x6c
10004d68:	4770      	bx	lr
10004d6a:	46c0      	nop			@ (mov r8, r8)
10004d6c:	4001f000 	.word	0x4001f000

10004d70 <runtime_init_spin_locks_reset>:
10004d70:	b510      	push	{r4, lr}
10004d72:	f7fe fc2d 	bl	100035d0 <spin_locks_reset>
10004d76:	bd10      	pop	{r4, pc}

10004d78 <runtime_init_install_ram_vector_table>:
10004d78:	b570      	push	{r4, r5, r6, lr}
10004d7a:	4d04      	ldr	r5, [pc, #16]	@ (10004d8c <runtime_init_install_ram_vector_table+0x14>)
10004d7c:	4c04      	ldr	r4, [pc, #16]	@ (10004d90 <runtime_init_install_ram_vector_table+0x18>)
10004d7e:	68a9      	ldr	r1, [r5, #8]
10004d80:	22c0      	movs	r2, #192	@ 0xc0
10004d82:	0020      	movs	r0, r4
10004d84:	f000 fcee 	bl	10005764 <__wrap___aeabi_memcpy>
10004d88:	60ac      	str	r4, [r5, #8]
10004d8a:	bd70      	pop	{r4, r5, r6, pc}
10004d8c:	e000ed00 	.word	0xe000ed00
10004d90:	20000000 	.word	0x20000000

10004d94 <runtime_init_clocks>:
10004d94:	2300      	movs	r3, #0
10004d96:	b510      	push	{r4, lr}
10004d98:	4c29      	ldr	r4, [pc, #164]	@ (10004e40 <runtime_init_clocks+0xac>)
10004d9a:	b082      	sub	sp, #8
10004d9c:	67a3      	str	r3, [r4, #120]	@ 0x78
10004d9e:	f7ff ff79 	bl	10004c94 <xosc_init>
10004da2:	2201      	movs	r2, #1
10004da4:	4b27      	ldr	r3, [pc, #156]	@ (10004e44 <runtime_init_clocks+0xb0>)
10004da6:	601a      	str	r2, [r3, #0]
10004da8:	6c63      	ldr	r3, [r4, #68]	@ 0x44
10004daa:	2b01      	cmp	r3, #1
10004dac:	d1fc      	bne.n	10004da8 <runtime_init_clocks+0x14>
10004dae:	2203      	movs	r2, #3
10004db0:	4b25      	ldr	r3, [pc, #148]	@ (10004e48 <runtime_init_clocks+0xb4>)
10004db2:	601a      	str	r2, [r3, #0]
10004db4:	4a22      	ldr	r2, [pc, #136]	@ (10004e40 <runtime_init_clocks+0xac>)
10004db6:	6b93      	ldr	r3, [r2, #56]	@ 0x38
10004db8:	2b01      	cmp	r3, #1
10004dba:	d1fc      	bne.n	10004db6 <runtime_init_clocks+0x22>
10004dbc:	3301      	adds	r3, #1
10004dbe:	9300      	str	r3, [sp, #0]
10004dc0:	2101      	movs	r1, #1
10004dc2:	4a22      	ldr	r2, [pc, #136]	@ (10004e4c <runtime_init_clocks+0xb8>)
10004dc4:	4822      	ldr	r0, [pc, #136]	@ (10004e50 <runtime_init_clocks+0xbc>)
10004dc6:	3304      	adds	r3, #4
10004dc8:	f7ff fe6a 	bl	10004aa0 <pll_init>
10004dcc:	2305      	movs	r3, #5
10004dce:	2101      	movs	r1, #1
10004dd0:	9300      	str	r3, [sp, #0]
10004dd2:	4a20      	ldr	r2, [pc, #128]	@ (10004e54 <runtime_init_clocks+0xc0>)
10004dd4:	4820      	ldr	r0, [pc, #128]	@ (10004e58 <runtime_init_clocks+0xc4>)
10004dd6:	f7ff fe63 	bl	10004aa0 <pll_init>
10004dda:	2200      	movs	r2, #0
10004ddc:	2102      	movs	r1, #2
10004dde:	2004      	movs	r0, #4
10004de0:	4b1e      	ldr	r3, [pc, #120]	@ (10004e5c <runtime_init_clocks+0xc8>)
10004de2:	f7ff fbd1 	bl	10004588 <clock_configure_undivided>
10004de6:	2200      	movs	r2, #0
10004de8:	2101      	movs	r1, #1
10004dea:	2005      	movs	r0, #5
10004dec:	4b1c      	ldr	r3, [pc, #112]	@ (10004e60 <runtime_init_clocks+0xcc>)
10004dee:	f7ff fbcb 	bl	10004588 <clock_configure_undivided>
10004df2:	2200      	movs	r2, #0
10004df4:	2100      	movs	r1, #0
10004df6:	2007      	movs	r0, #7
10004df8:	4b1a      	ldr	r3, [pc, #104]	@ (10004e64 <runtime_init_clocks+0xd0>)
10004dfa:	f7ff fbc5 	bl	10004588 <clock_configure_undivided>
10004dfe:	2200      	movs	r2, #0
10004e00:	2100      	movs	r1, #0
10004e02:	2008      	movs	r0, #8
10004e04:	4b17      	ldr	r3, [pc, #92]	@ (10004e64 <runtime_init_clocks+0xd0>)
10004e06:	f7ff fbbf 	bl	10004588 <clock_configure_undivided>
10004e0a:	2380      	movs	r3, #128	@ 0x80
10004e0c:	00db      	lsls	r3, r3, #3
10004e0e:	9300      	str	r3, [sp, #0]
10004e10:	2200      	movs	r2, #0
10004e12:	2100      	movs	r1, #0
10004e14:	2009      	movs	r0, #9
10004e16:	4b13      	ldr	r3, [pc, #76]	@ (10004e64 <runtime_init_clocks+0xd0>)
10004e18:	f7ff fb3c 	bl	10004494 <clock_configure_int_divider>
10004e1c:	2200      	movs	r2, #0
10004e1e:	4b10      	ldr	r3, [pc, #64]	@ (10004e60 <runtime_init_clocks+0xcc>)
10004e20:	2100      	movs	r1, #0
10004e22:	2006      	movs	r0, #6
10004e24:	f7ff fbb0 	bl	10004588 <clock_configure_undivided>
10004e28:	2004      	movs	r0, #4
10004e2a:	f7ff fc21 	bl	10004670 <clock_get_hz>
10004e2e:	490e      	ldr	r1, [pc, #56]	@ (10004e68 <runtime_init_clocks+0xd4>)
10004e30:	f000 f84c 	bl	10004ecc <__wrap___aeabi_uidiv>
10004e34:	0001      	movs	r1, r0
10004e36:	2000      	movs	r0, #0
10004e38:	f7ff fed2 	bl	10004be0 <tick_start>
10004e3c:	b002      	add	sp, #8
10004e3e:	bd10      	pop	{r4, pc}
10004e40:	40008000 	.word	0x40008000
10004e44:	4000b03c 	.word	0x4000b03c
10004e48:	4000b030 	.word	0x4000b030
10004e4c:	59682f00 	.word	0x59682f00
10004e50:	40028000 	.word	0x40028000
10004e54:	47868c00 	.word	0x47868c00
10004e58:	4002c000 	.word	0x4002c000
10004e5c:	00b71b00 	.word	0x00b71b00
10004e60:	07735940 	.word	0x07735940
10004e64:	02dc6c00 	.word	0x02dc6c00
10004e68:	000f4240 	.word	0x000f4240

10004e6c <__aeabi_bits_init>:
10004e6c:	4801      	ldr	r0, [pc, #4]	@ (10004e74 <__aeabi_bits_init+0x8>)
10004e6e:	2104      	movs	r1, #4
10004e70:	4b01      	ldr	r3, [pc, #4]	@ (10004e78 <__aeabi_bits_init+0xc>)
10004e72:	4718      	bx	r3
10004e74:	200036a0 	.word	0x200036a0
10004e78:	10004c11 	.word	0x10004c11

10004e7c <__wrap___aeabi_idiv>:
10004e7c:	4a12      	ldr	r2, [pc, #72]	@ (10004ec8 <divmod_s32s32_savestate+0x18>)
10004e7e:	6f93      	ldr	r3, [r2, #120]	@ 0x78
10004e80:	089b      	lsrs	r3, r3, #2
10004e82:	d215      	bcs.n	10004eb0 <divmod_s32s32_savestate>

10004e84 <divmod_s32s32_unsafe>:
10004e84:	6690      	str	r0, [r2, #104]	@ 0x68
10004e86:	66d1      	str	r1, [r2, #108]	@ 0x6c
10004e88:	2900      	cmp	r1, #0
10004e8a:	d005      	beq.n	10004e98 <divmod_s32s32_unsafe+0x14>
10004e8c:	e7ff      	b.n	10004e8e <divmod_s32s32_unsafe+0xa>
10004e8e:	e7ff      	b.n	10004e90 <divmod_s32s32_unsafe+0xc>
10004e90:	e7ff      	b.n	10004e92 <divmod_s32s32_unsafe+0xe>
10004e92:	6f51      	ldr	r1, [r2, #116]	@ 0x74
10004e94:	6f10      	ldr	r0, [r2, #112]	@ 0x70
10004e96:	4770      	bx	lr
10004e98:	b504      	push	{r2, lr}
10004e9a:	2180      	movs	r1, #128	@ 0x80
10004e9c:	0609      	lsls	r1, r1, #24
10004e9e:	17c2      	asrs	r2, r0, #31
10004ea0:	4051      	eors	r1, r2
10004ea2:	2800      	cmp	r0, #0
10004ea4:	d000      	beq.n	10004ea8 <divmod_s32s32_unsafe+0x24>
10004ea6:	43c8      	mvns	r0, r1
10004ea8:	f005 fe82 	bl	1000abb0 <____aeabi_idiv0_veneer>
10004eac:	2100      	movs	r1, #0
10004eae:	bd04      	pop	{r2, pc}

10004eb0 <divmod_s32s32_savestate>:
10004eb0:	b5f0      	push	{r4, r5, r6, r7, lr}
10004eb2:	6e14      	ldr	r4, [r2, #96]	@ 0x60
10004eb4:	6e55      	ldr	r5, [r2, #100]	@ 0x64
10004eb6:	6f57      	ldr	r7, [r2, #116]	@ 0x74
10004eb8:	6f16      	ldr	r6, [r2, #112]	@ 0x70
10004eba:	f7ff ffe3 	bl	10004e84 <divmod_s32s32_unsafe>
10004ebe:	6614      	str	r4, [r2, #96]	@ 0x60
10004ec0:	6655      	str	r5, [r2, #100]	@ 0x64
10004ec2:	6757      	str	r7, [r2, #116]	@ 0x74
10004ec4:	6716      	str	r6, [r2, #112]	@ 0x70
10004ec6:	bdf0      	pop	{r4, r5, r6, r7, pc}
10004ec8:	d0000000 	.word	0xd0000000

10004ecc <__wrap___aeabi_uidiv>:
10004ecc:	4a11      	ldr	r2, [pc, #68]	@ (10004f14 <divmod_u32u32_savestate+0x18>)
10004ece:	6f93      	ldr	r3, [r2, #120]	@ 0x78
10004ed0:	089b      	lsrs	r3, r3, #2
10004ed2:	d213      	bcs.n	10004efc <divmod_u32u32_savestate>

10004ed4 <divmod_u32u32_unsafe>:
10004ed4:	6610      	str	r0, [r2, #96]	@ 0x60
10004ed6:	6651      	str	r1, [r2, #100]	@ 0x64
10004ed8:	2900      	cmp	r1, #0
10004eda:	d005      	beq.n	10004ee8 <divmod_u32u32_unsafe+0x14>
10004edc:	e7ff      	b.n	10004ede <divmod_u32u32_unsafe+0xa>
10004ede:	e7ff      	b.n	10004ee0 <divmod_u32u32_unsafe+0xc>
10004ee0:	e7ff      	b.n	10004ee2 <divmod_u32u32_unsafe+0xe>
10004ee2:	6f51      	ldr	r1, [r2, #116]	@ 0x74
10004ee4:	6f10      	ldr	r0, [r2, #112]	@ 0x70
10004ee6:	4770      	bx	lr
10004ee8:	b504      	push	{r2, lr}
10004eea:	2800      	cmp	r0, #0
10004eec:	d001      	beq.n	10004ef2 <divmod_u32u32_unsafe+0x1e>
10004eee:	2000      	movs	r0, #0
10004ef0:	43c0      	mvns	r0, r0
10004ef2:	f005 fe5d 	bl	1000abb0 <____aeabi_idiv0_veneer>
10004ef6:	2100      	movs	r1, #0
10004ef8:	bd04      	pop	{r2, pc}
10004efa:	46c0      	nop			@ (mov r8, r8)

10004efc <divmod_u32u32_savestate>:
10004efc:	b5f0      	push	{r4, r5, r6, r7, lr}
10004efe:	6e14      	ldr	r4, [r2, #96]	@ 0x60
10004f00:	6e55      	ldr	r5, [r2, #100]	@ 0x64
10004f02:	6f57      	ldr	r7, [r2, #116]	@ 0x74
10004f04:	6f16      	ldr	r6, [r2, #112]	@ 0x70
10004f06:	f7ff ffe5 	bl	10004ed4 <divmod_u32u32_unsafe>
10004f0a:	6614      	str	r4, [r2, #96]	@ 0x60
10004f0c:	6655      	str	r5, [r2, #100]	@ 0x64
10004f0e:	6757      	str	r7, [r2, #116]	@ 0x74
10004f10:	6716      	str	r6, [r2, #112]	@ 0x70
10004f12:	bdf0      	pop	{r4, r5, r6, r7, pc}
10004f14:	d0000000 	.word	0xd0000000

10004f18 <__wrap___aeabi_ldivmod>:
10004f18:	4694      	mov	ip, r2
10004f1a:	4a4a      	ldr	r2, [pc, #296]	@ (10005044 <udiv0+0x1a>)
10004f1c:	6f92      	ldr	r2, [r2, #120]	@ 0x78
10004f1e:	0892      	lsrs	r2, r2, #2
10004f20:	4662      	mov	r2, ip
10004f22:	d201      	bcs.n	10004f28 <divmod_s64s64_savestate>
10004f24:	e028      	b.n	10004f78 <divmod_s64s64_unsafe>
10004f26:	46c0      	nop			@ (mov r8, r8)

10004f28 <divmod_s64s64_savestate>:
10004f28:	b5f0      	push	{r4, r5, r6, r7, lr}
10004f2a:	4e46      	ldr	r6, [pc, #280]	@ (10005044 <udiv0+0x1a>)
10004f2c:	6e34      	ldr	r4, [r6, #96]	@ 0x60
10004f2e:	6e75      	ldr	r5, [r6, #100]	@ 0x64
10004f30:	6f77      	ldr	r7, [r6, #116]	@ 0x74
10004f32:	6f36      	ldr	r6, [r6, #112]	@ 0x70
10004f34:	f000 f820 	bl	10004f78 <divmod_s64s64_unsafe>
10004f38:	4694      	mov	ip, r2
10004f3a:	4a42      	ldr	r2, [pc, #264]	@ (10005044 <udiv0+0x1a>)
10004f3c:	6614      	str	r4, [r2, #96]	@ 0x60
10004f3e:	6655      	str	r5, [r2, #100]	@ 0x64
10004f40:	6757      	str	r7, [r2, #116]	@ 0x74
10004f42:	6716      	str	r6, [r2, #112]	@ 0x70
10004f44:	4662      	mov	r2, ip
10004f46:	bdf0      	pop	{r4, r5, r6, r7, pc}

10004f48 <__wrap___aeabi_uldivmod>:
10004f48:	4694      	mov	ip, r2
10004f4a:	4a3e      	ldr	r2, [pc, #248]	@ (10005044 <udiv0+0x1a>)
10004f4c:	6f92      	ldr	r2, [r2, #120]	@ 0x78
10004f4e:	0892      	lsrs	r2, r2, #2
10004f50:	4662      	mov	r2, ip
10004f52:	d201      	bcs.n	10004f58 <divmod_u64u64_savestate>
10004f54:	e054      	b.n	10005000 <divmod_u64u64_unsafe>
10004f56:	46c0      	nop			@ (mov r8, r8)

10004f58 <divmod_u64u64_savestate>:
10004f58:	b5f0      	push	{r4, r5, r6, r7, lr}
10004f5a:	4e3a      	ldr	r6, [pc, #232]	@ (10005044 <udiv0+0x1a>)
10004f5c:	6e34      	ldr	r4, [r6, #96]	@ 0x60
10004f5e:	6e75      	ldr	r5, [r6, #100]	@ 0x64
10004f60:	6f77      	ldr	r7, [r6, #116]	@ 0x74
10004f62:	6f36      	ldr	r6, [r6, #112]	@ 0x70
10004f64:	f000 f84c 	bl	10005000 <divmod_u64u64_unsafe>
10004f68:	4694      	mov	ip, r2
10004f6a:	4a36      	ldr	r2, [pc, #216]	@ (10005044 <udiv0+0x1a>)
10004f6c:	6614      	str	r4, [r2, #96]	@ 0x60
10004f6e:	6655      	str	r5, [r2, #100]	@ 0x64
10004f70:	6757      	str	r7, [r2, #116]	@ 0x74
10004f72:	6716      	str	r6, [r2, #112]	@ 0x70
10004f74:	4662      	mov	r2, ip
10004f76:	bdf0      	pop	{r4, r5, r6, r7, pc}

10004f78 <divmod_s64s64_unsafe>:
10004f78:	2b00      	cmp	r3, #0
10004f7a:	db24      	blt.n	10004fc6 <l42_1+0x26>
10004f7c:	d011      	beq.n	10004fa2 <l42_1+0x2>
10004f7e:	2900      	cmp	r1, #0
10004f80:	da3e      	bge.n	10005000 <divmod_u64u64_unsafe>
10004f82:	b500      	push	{lr}
10004f84:	43c9      	mvns	r1, r1
10004f86:	4240      	negs	r0, r0
10004f88:	d100      	bne.n	10004f8c <l40_1>
10004f8a:	3101      	adds	r1, #1

10004f8c <l40_1>:
10004f8c:	f000 f838 	bl	10005000 <divmod_u64u64_unsafe>
10004f90:	43c9      	mvns	r1, r1
10004f92:	4240      	negs	r0, r0
10004f94:	d100      	bne.n	10004f98 <l41_1>
10004f96:	3101      	adds	r1, #1

10004f98 <l41_1>:
10004f98:	43db      	mvns	r3, r3
10004f9a:	4252      	negs	r2, r2
10004f9c:	d100      	bne.n	10004fa0 <l42_1>
10004f9e:	3301      	adds	r3, #1

10004fa0 <l42_1>:
10004fa0:	bd00      	pop	{pc}
10004fa2:	2a00      	cmp	r2, #0
10004fa4:	d1eb      	bne.n	10004f7e <divmod_s64s64_unsafe+0x6>
10004fa6:	2800      	cmp	r0, #0
10004fa8:	d101      	bne.n	10004fae <l42_1+0xe>
10004faa:	2900      	cmp	r1, #0
10004fac:	d005      	beq.n	10004fba <l42_1+0x1a>
10004fae:	2000      	movs	r0, #0
10004fb0:	0fc9      	lsrs	r1, r1, #31
10004fb2:	07c9      	lsls	r1, r1, #31
10004fb4:	d101      	bne.n	10004fba <l42_1+0x1a>
10004fb6:	43c0      	mvns	r0, r0
10004fb8:	0841      	lsrs	r1, r0, #1
10004fba:	b500      	push	{lr}
10004fbc:	f005 fdf0 	bl	1000aba0 <____aeabi_ldiv0_veneer>
10004fc0:	2200      	movs	r2, #0
10004fc2:	2300      	movs	r3, #0
10004fc4:	bd00      	pop	{pc}
10004fc6:	b500      	push	{lr}
10004fc8:	2900      	cmp	r1, #0
10004fca:	db0a      	blt.n	10004fe2 <l44_1+0x2>
10004fcc:	43db      	mvns	r3, r3
10004fce:	4252      	negs	r2, r2
10004fd0:	d100      	bne.n	10004fd4 <l43_1>
10004fd2:	3301      	adds	r3, #1

10004fd4 <l43_1>:
10004fd4:	f000 f814 	bl	10005000 <divmod_u64u64_unsafe>
10004fd8:	43c9      	mvns	r1, r1
10004fda:	4240      	negs	r0, r0
10004fdc:	d100      	bne.n	10004fe0 <l44_1>
10004fde:	3101      	adds	r1, #1

10004fe0 <l44_1>:
10004fe0:	bd00      	pop	{pc}
10004fe2:	43c9      	mvns	r1, r1
10004fe4:	4240      	negs	r0, r0
10004fe6:	d100      	bne.n	10004fea <l45_1>
10004fe8:	3101      	adds	r1, #1

10004fea <l45_1>:
10004fea:	43db      	mvns	r3, r3
10004fec:	4252      	negs	r2, r2
10004fee:	d100      	bne.n	10004ff2 <l46_1>
10004ff0:	3301      	adds	r3, #1

10004ff2 <l46_1>:
10004ff2:	f000 f805 	bl	10005000 <divmod_u64u64_unsafe>
10004ff6:	43db      	mvns	r3, r3
10004ff8:	4252      	negs	r2, r2
10004ffa:	d100      	bne.n	10004ffe <l47_1>
10004ffc:	3301      	adds	r3, #1

10004ffe <l47_1>:
10004ffe:	bd00      	pop	{pc}

10005000 <divmod_u64u64_unsafe>:
10005000:	2900      	cmp	r1, #0
10005002:	d123      	bne.n	1000504c <y64>
10005004:	2b00      	cmp	r3, #0
10005006:	d118      	bne.n	1000503a <udiv0+0x10>
10005008:	2a00      	cmp	r2, #0
1000500a:	d00c      	beq.n	10005026 <divmod_u64u64_unsafe+0x26>
1000500c:	46bc      	mov	ip, r7
1000500e:	4f0d      	ldr	r7, [pc, #52]	@ (10005044 <udiv0+0x1a>)
10005010:	6638      	str	r0, [r7, #96]	@ 0x60
10005012:	667a      	str	r2, [r7, #100]	@ 0x64
10005014:	2100      	movs	r1, #0
10005016:	2300      	movs	r3, #0
10005018:	e7ff      	b.n	1000501a <divmod_u64u64_unsafe+0x1a>
1000501a:	e7ff      	b.n	1000501c <divmod_u64u64_unsafe+0x1c>
1000501c:	e7ff      	b.n	1000501e <divmod_u64u64_unsafe+0x1e>
1000501e:	6f7a      	ldr	r2, [r7, #116]	@ 0x74
10005020:	6f38      	ldr	r0, [r7, #112]	@ 0x70
10005022:	4667      	mov	r7, ip
10005024:	4770      	bx	lr
10005026:	2800      	cmp	r0, #0
10005028:	d001      	beq.n	1000502e <udiv0+0x4>

1000502a <udiv0>:
1000502a:	4807      	ldr	r0, [pc, #28]	@ (10005048 <udiv0+0x1e>)
1000502c:	0001      	movs	r1, r0
1000502e:	b500      	push	{lr}
10005030:	f005 fdb6 	bl	1000aba0 <____aeabi_ldiv0_veneer>
10005034:	2200      	movs	r2, #0
10005036:	2300      	movs	r3, #0
10005038:	bd00      	pop	{pc}
1000503a:	0002      	movs	r2, r0
1000503c:	000b      	movs	r3, r1
1000503e:	2000      	movs	r0, #0
10005040:	2100      	movs	r1, #0
10005042:	4770      	bx	lr
10005044:	d0000000 	.word	0xd0000000
10005048:	ffffffff 	.word	0xffffffff

1000504c <y64>:
1000504c:	2b00      	cmp	r3, #0
1000504e:	d000      	beq.n	10005052 <y64+0x6>
10005050:	e0bf      	b.n	100051d2 <y64_x48>
10005052:	0c13      	lsrs	r3, r2, #16
10005054:	d128      	bne.n	100050a8 <y64_x32>
10005056:	2a00      	cmp	r2, #0
10005058:	d0e7      	beq.n	1000502a <udiv0>
1000505a:	b480      	push	{r7}
1000505c:	4f11      	ldr	r7, [pc, #68]	@ (100050a4 <y64+0x58>)
1000505e:	6639      	str	r1, [r7, #96]	@ 0x60
10005060:	667a      	str	r2, [r7, #100]	@ 0x64
10005062:	e7ff      	b.n	10005064 <y64+0x18>
10005064:	e7ff      	b.n	10005066 <y64+0x1a>
10005066:	b430      	push	{r4, r5}
10005068:	0c04      	lsrs	r4, r0, #16
1000506a:	6f7b      	ldr	r3, [r7, #116]	@ 0x74
1000506c:	6f39      	ldr	r1, [r7, #112]	@ 0x70
1000506e:	041b      	lsls	r3, r3, #16
10005070:	4323      	orrs	r3, r4
10005072:	663b      	str	r3, [r7, #96]	@ 0x60
10005074:	667a      	str	r2, [r7, #100]	@ 0x64
10005076:	e7ff      	b.n	10005078 <y64+0x2c>
10005078:	e7ff      	b.n	1000507a <y64+0x2e>
1000507a:	e7ff      	b.n	1000507c <y64+0x30>
1000507c:	46c0      	nop			@ (mov r8, r8)
1000507e:	b284      	uxth	r4, r0
10005080:	6f7b      	ldr	r3, [r7, #116]	@ 0x74
10005082:	6f3d      	ldr	r5, [r7, #112]	@ 0x70
10005084:	041b      	lsls	r3, r3, #16
10005086:	4323      	orrs	r3, r4
10005088:	663b      	str	r3, [r7, #96]	@ 0x60
1000508a:	667a      	str	r2, [r7, #100]	@ 0x64
1000508c:	e7ff      	b.n	1000508e <y64+0x42>
1000508e:	e7ff      	b.n	10005090 <y64+0x44>
10005090:	46c0      	nop			@ (mov r8, r8)
10005092:	2300      	movs	r3, #0
10005094:	042c      	lsls	r4, r5, #16
10005096:	0c2d      	lsrs	r5, r5, #16
10005098:	6f7a      	ldr	r2, [r7, #116]	@ 0x74
1000509a:	6f38      	ldr	r0, [r7, #112]	@ 0x70
1000509c:	1900      	adds	r0, r0, r4
1000509e:	4169      	adcs	r1, r5
100050a0:	bcb0      	pop	{r4, r5, r7}
100050a2:	4770      	bx	lr
100050a4:	d0000000 	.word	0xd0000000

100050a8 <y64_x32>:
100050a8:	b5f0      	push	{r4, r5, r6, r7, lr}
100050aa:	4694      	mov	ip, r2
100050ac:	2500      	movs	r5, #0
100050ae:	0e14      	lsrs	r4, r2, #24
100050b0:	d101      	bne.n	100050b6 <y64_x32+0xe>
100050b2:	0212      	lsls	r2, r2, #8
100050b4:	3508      	adds	r5, #8
100050b6:	0f14      	lsrs	r4, r2, #28
100050b8:	d101      	bne.n	100050be <y64_x32+0x16>
100050ba:	0112      	lsls	r2, r2, #4
100050bc:	3504      	adds	r5, #4
100050be:	0f94      	lsrs	r4, r2, #30
100050c0:	d101      	bne.n	100050c6 <y64_x32+0x1e>
100050c2:	0092      	lsls	r2, r2, #2
100050c4:	3502      	adds	r5, #2
100050c6:	0fd4      	lsrs	r4, r2, #31
100050c8:	d101      	bne.n	100050ce <y64_x32+0x26>
100050ca:	0052      	lsls	r2, r2, #1
100050cc:	3501      	adds	r5, #1
100050ce:	0bd4      	lsrs	r4, r2, #15
100050d0:	3401      	adds	r4, #1
100050d2:	4f25      	ldr	r7, [pc, #148]	@ (10005168 <y64_x32+0xc0>)
100050d4:	667c      	str	r4, [r7, #100]	@ 0x64
100050d6:	4c25      	ldr	r4, [pc, #148]	@ (1000516c <y64_x32+0xc4>)
100050d8:	663c      	str	r4, [r7, #96]	@ 0x60
100050da:	0c0e      	lsrs	r6, r1, #16
100050dc:	b293      	uxth	r3, r2
100050de:	e7ff      	b.n	100050e0 <y64_x32+0x38>
100050e0:	e7ff      	b.n	100050e2 <y64_x32+0x3a>
100050e2:	e7ff      	b.n	100050e4 <y64_x32+0x3c>
100050e4:	6f3c      	ldr	r4, [r7, #112]	@ 0x70
100050e6:	4366      	muls	r6, r4
100050e8:	0c36      	lsrs	r6, r6, #16
100050ea:	0377      	lsls	r7, r6, #13
100050ec:	46be      	mov	lr, r7
100050ee:	4373      	muls	r3, r6
100050f0:	0bdf      	lsrs	r7, r3, #15
100050f2:	045b      	lsls	r3, r3, #17
100050f4:	1ac0      	subs	r0, r0, r3
100050f6:	41b9      	sbcs	r1, r7
100050f8:	0c13      	lsrs	r3, r2, #16
100050fa:	4373      	muls	r3, r6
100050fc:	18db      	adds	r3, r3, r3
100050fe:	1ac9      	subs	r1, r1, r3
10005100:	08ce      	lsrs	r6, r1, #3
10005102:	4366      	muls	r6, r4
10005104:	0c36      	lsrs	r6, r6, #16
10005106:	44b6      	add	lr, r6
10005108:	b293      	uxth	r3, r2
1000510a:	4373      	muls	r3, r6
1000510c:	0f1f      	lsrs	r7, r3, #28
1000510e:	011b      	lsls	r3, r3, #4
10005110:	1ac0      	subs	r0, r0, r3
10005112:	41b9      	sbcs	r1, r7
10005114:	0c13      	lsrs	r3, r2, #16
10005116:	4373      	muls	r3, r6
10005118:	0b1f      	lsrs	r7, r3, #12
1000511a:	051b      	lsls	r3, r3, #20
1000511c:	1ac0      	subs	r0, r0, r3
1000511e:	41b9      	sbcs	r1, r7
10005120:	0d86      	lsrs	r6, r0, #22
10005122:	028f      	lsls	r7, r1, #10
10005124:	433e      	orrs	r6, r7
10005126:	4366      	muls	r6, r4
10005128:	0c36      	lsrs	r6, r6, #16
1000512a:	2d09      	cmp	r5, #9
1000512c:	db24      	blt.n	10005178 <last0>
1000512e:	0a52      	lsrs	r2, r2, #9
10005130:	4372      	muls	r2, r6
10005132:	1a80      	subs	r0, r0, r2
10005134:	0377      	lsls	r7, r6, #13
10005136:	0a46      	lsrs	r6, r0, #9
10005138:	4366      	muls	r6, r4
1000513a:	0c36      	lsrs	r6, r6, #16
1000513c:	2316      	movs	r3, #22
1000513e:	1b5b      	subs	r3, r3, r5
10005140:	40de      	lsrs	r6, r3
10005142:	40df      	lsrs	r7, r3
10005144:	19bf      	adds	r7, r7, r6
10005146:	4664      	mov	r4, ip
10005148:	4366      	muls	r6, r4
1000514a:	1b82      	subs	r2, r0, r6
1000514c:	4670      	mov	r0, lr
1000514e:	3504      	adds	r5, #4
10005150:	3306      	adds	r3, #6
10005152:	0001      	movs	r1, r0
10005154:	40d9      	lsrs	r1, r3
10005156:	40a8      	lsls	r0, r5
10005158:	19c0      	adds	r0, r0, r7
1000515a:	d300      	bcc.n	1000515e <y64_x32+0xb6>
1000515c:	3101      	adds	r1, #1
1000515e:	42a2      	cmp	r2, r4
10005160:	d206      	bcs.n	10005170 <y64_x32+0xc8>
10005162:	2300      	movs	r3, #0
10005164:	bdf0      	pop	{r4, r5, r6, r7, pc}
10005166:	0000      	.short	0x0000
10005168:	d0000000 	.word	0xd0000000
1000516c:	ffffffff 	.word	0xffffffff
10005170:	1b12      	subs	r2, r2, r4
10005172:	3001      	adds	r0, #1
10005174:	d3f3      	bcc.n	1000515e <y64_x32+0xb6>
10005176:	e7f1      	b.n	1000515c <y64_x32+0xb4>

10005178 <last0>:
10005178:	2709      	movs	r7, #9
1000517a:	1b7f      	subs	r7, r7, r5
1000517c:	40fe      	lsrs	r6, r7
1000517e:	4664      	mov	r4, ip
10005180:	b2a2      	uxth	r2, r4
10005182:	4372      	muls	r2, r6
10005184:	1a80      	subs	r0, r0, r2
10005186:	d200      	bcs.n	1000518a <last0+0x12>
10005188:	3901      	subs	r1, #1
1000518a:	0c22      	lsrs	r2, r4, #16
1000518c:	4372      	muls	r2, r6
1000518e:	0c13      	lsrs	r3, r2, #16
10005190:	0412      	lsls	r2, r2, #16
10005192:	1a82      	subs	r2, r0, r2
10005194:	4199      	sbcs	r1, r3
10005196:	000b      	movs	r3, r1
10005198:	4670      	mov	r0, lr
1000519a:	3504      	adds	r5, #4
1000519c:	3713      	adds	r7, #19
1000519e:	0001      	movs	r1, r0
100051a0:	40f9      	lsrs	r1, r7
100051a2:	40a8      	lsls	r0, r5
100051a4:	1980      	adds	r0, r0, r6
100051a6:	d300      	bcc.n	100051aa <last0+0x32>
100051a8:	3101      	adds	r1, #1
100051aa:	2b00      	cmp	r3, #0
100051ac:	d102      	bne.n	100051b4 <last0+0x3c>
100051ae:	42a2      	cmp	r2, r4
100051b0:	d20a      	bcs.n	100051c8 <last0+0x50>
100051b2:	bdf0      	pop	{r4, r5, r6, r7, pc}
100051b4:	3001      	adds	r0, #1
100051b6:	d300      	bcc.n	100051ba <last0+0x42>
100051b8:	3101      	adds	r1, #1
100051ba:	1b12      	subs	r2, r2, r4
100051bc:	d2fa      	bcs.n	100051b4 <last0+0x3c>
100051be:	3b01      	subs	r3, #1
100051c0:	d1f8      	bne.n	100051b4 <last0+0x3c>
100051c2:	42a2      	cmp	r2, r4
100051c4:	d200      	bcs.n	100051c8 <last0+0x50>
100051c6:	bdf0      	pop	{r4, r5, r6, r7, pc}
100051c8:	3001      	adds	r0, #1
100051ca:	d300      	bcc.n	100051ce <last0+0x56>
100051cc:	3101      	adds	r1, #1
100051ce:	1b12      	subs	r2, r2, r4
100051d0:	e7f7      	b.n	100051c2 <last0+0x4a>

100051d2 <y64_x48>:
100051d2:	b5f0      	push	{r4, r5, r6, r7, lr}
100051d4:	0c1c      	lsrs	r4, r3, #16
100051d6:	d000      	beq.n	100051da <y64_x48+0x8>
100051d8:	e080      	b.n	100052dc <y64_x64>
100051da:	b40c      	push	{r2, r3}
100051dc:	2500      	movs	r5, #0
100051de:	0a1c      	lsrs	r4, r3, #8
100051e0:	d104      	bne.n	100051ec <y64_x48+0x1a>
100051e2:	021b      	lsls	r3, r3, #8
100051e4:	0e16      	lsrs	r6, r2, #24
100051e6:	4333      	orrs	r3, r6
100051e8:	0212      	lsls	r2, r2, #8
100051ea:	3508      	adds	r5, #8
100051ec:	0b1c      	lsrs	r4, r3, #12
100051ee:	d104      	bne.n	100051fa <y64_x48+0x28>
100051f0:	011b      	lsls	r3, r3, #4
100051f2:	0f16      	lsrs	r6, r2, #28
100051f4:	4333      	orrs	r3, r6
100051f6:	0112      	lsls	r2, r2, #4
100051f8:	3504      	adds	r5, #4
100051fa:	0b9c      	lsrs	r4, r3, #14
100051fc:	d104      	bne.n	10005208 <y64_x48+0x36>
100051fe:	009b      	lsls	r3, r3, #2
10005200:	0f96      	lsrs	r6, r2, #30
10005202:	4333      	orrs	r3, r6
10005204:	0092      	lsls	r2, r2, #2
10005206:	3502      	adds	r5, #2
10005208:	0bdc      	lsrs	r4, r3, #15
1000520a:	d102      	bne.n	10005212 <y64_x48+0x40>
1000520c:	1892      	adds	r2, r2, r2
1000520e:	415b      	adcs	r3, r3
10005210:	3501      	adds	r5, #1
10005212:	001c      	movs	r4, r3
10005214:	1897      	adds	r7, r2, r2
10005216:	4164      	adcs	r4, r4
10005218:	3401      	adds	r4, #1
1000521a:	4f46      	ldr	r7, [pc, #280]	@ (10005334 <y64_x64+0x58>)
1000521c:	667c      	str	r4, [r7, #100]	@ 0x64
1000521e:	4c46      	ldr	r4, [pc, #280]	@ (10005338 <y64_x64+0x5c>)
10005220:	663c      	str	r4, [r7, #96]	@ 0x60
10005222:	0c0e      	lsrs	r6, r1, #16
10005224:	e7ff      	b.n	10005226 <y64_x48+0x54>
10005226:	e7ff      	b.n	10005228 <y64_x48+0x56>
10005228:	e7ff      	b.n	1000522a <y64_x48+0x58>
1000522a:	46c0      	nop			@ (mov r8, r8)
1000522c:	6f3c      	ldr	r4, [r7, #112]	@ 0x70
1000522e:	4366      	muls	r6, r4
10005230:	0c36      	lsrs	r6, r6, #16
10005232:	0377      	lsls	r7, r6, #13
10005234:	46be      	mov	lr, r7
10005236:	b297      	uxth	r7, r2
10005238:	4377      	muls	r7, r6
1000523a:	1bc0      	subs	r0, r0, r7
1000523c:	d200      	bcs.n	10005240 <y64_x48+0x6e>
1000523e:	3901      	subs	r1, #1
10005240:	1bc0      	subs	r0, r0, r7
10005242:	d200      	bcs.n	10005246 <y64_x48+0x74>
10005244:	3901      	subs	r1, #1
10005246:	b29f      	uxth	r7, r3
10005248:	4377      	muls	r7, r6
1000524a:	1bc9      	subs	r1, r1, r7
1000524c:	1bc9      	subs	r1, r1, r7
1000524e:	0c17      	lsrs	r7, r2, #16
10005250:	4377      	muls	r7, r6
10005252:	047e      	lsls	r6, r7, #17
10005254:	0bff      	lsrs	r7, r7, #15
10005256:	1b80      	subs	r0, r0, r6
10005258:	41b9      	sbcs	r1, r7
1000525a:	08ce      	lsrs	r6, r1, #3
1000525c:	4366      	muls	r6, r4
1000525e:	0c36      	lsrs	r6, r6, #16
10005260:	2d0c      	cmp	r5, #12
10005262:	db33      	blt.n	100052cc <last1>
10005264:	44b6      	add	lr, r6
10005266:	0b12      	lsrs	r2, r2, #12
10005268:	051f      	lsls	r7, r3, #20
1000526a:	433a      	orrs	r2, r7
1000526c:	0b1b      	lsrs	r3, r3, #12
1000526e:	b297      	uxth	r7, r2
10005270:	4377      	muls	r7, r6
10005272:	1bc0      	subs	r0, r0, r7
10005274:	d200      	bcs.n	10005278 <y64_x48+0xa6>
10005276:	3901      	subs	r1, #1
10005278:	b29f      	uxth	r7, r3
1000527a:	4377      	muls	r7, r6
1000527c:	1bc9      	subs	r1, r1, r7
1000527e:	0c17      	lsrs	r7, r2, #16
10005280:	4377      	muls	r7, r6
10005282:	043e      	lsls	r6, r7, #16
10005284:	0c3f      	lsrs	r7, r7, #16
10005286:	1b80      	subs	r0, r0, r6
10005288:	41b9      	sbcs	r1, r7
1000528a:	0d86      	lsrs	r6, r0, #22
1000528c:	028f      	lsls	r7, r1, #10
1000528e:	433e      	orrs	r6, r7
10005290:	4366      	muls	r6, r4
10005292:	2729      	movs	r7, #41	@ 0x29
10005294:	1b7f      	subs	r7, r7, r5
10005296:	40fe      	lsrs	r6, r7
10005298:	3d0c      	subs	r5, #12
1000529a:	4677      	mov	r7, lr
1000529c:	40af      	lsls	r7, r5
1000529e:	19bf      	adds	r7, r7, r6
100052a0:	bc30      	pop	{r4, r5}
100052a2:	b2a2      	uxth	r2, r4
100052a4:	b2ab      	uxth	r3, r5
100052a6:	4372      	muls	r2, r6
100052a8:	4373      	muls	r3, r6
100052aa:	1a80      	subs	r0, r0, r2
100052ac:	4199      	sbcs	r1, r3
100052ae:	0c22      	lsrs	r2, r4, #16
100052b0:	4372      	muls	r2, r6
100052b2:	0c13      	lsrs	r3, r2, #16
100052b4:	0412      	lsls	r2, r2, #16
100052b6:	1a80      	subs	r0, r0, r2
100052b8:	4199      	sbcs	r1, r3
100052ba:	0002      	movs	r2, r0
100052bc:	000b      	movs	r3, r1
100052be:	3701      	adds	r7, #1
100052c0:	1b00      	subs	r0, r0, r4
100052c2:	41a9      	sbcs	r1, r5
100052c4:	d2f9      	bcs.n	100052ba <y64_x48+0xe8>
100052c6:	1e78      	subs	r0, r7, #1
100052c8:	2100      	movs	r1, #0
100052ca:	bdf0      	pop	{r4, r5, r6, r7, pc}

100052cc <last1>:
100052cc:	270c      	movs	r7, #12
100052ce:	1b7f      	subs	r7, r7, r5
100052d0:	40fe      	lsrs	r6, r7
100052d2:	4677      	mov	r7, lr
100052d4:	0b7f      	lsrs	r7, r7, #13
100052d6:	40af      	lsls	r7, r5
100052d8:	19ff      	adds	r7, r7, r7
100052da:	e7e0      	b.n	1000529e <y64_x48+0xcc>

100052dc <y64_x64>:
100052dc:	2400      	movs	r4, #0
100052de:	1c5d      	adds	r5, r3, #1
100052e0:	d007      	beq.n	100052f2 <y64_x64+0x16>
100052e2:	4f14      	ldr	r7, [pc, #80]	@ (10005334 <y64_x64+0x58>)
100052e4:	667d      	str	r5, [r7, #100]	@ 0x64
100052e6:	6639      	str	r1, [r7, #96]	@ 0x60
100052e8:	e7ff      	b.n	100052ea <y64_x64+0xe>
100052ea:	e7ff      	b.n	100052ec <y64_x64+0x10>
100052ec:	e7ff      	b.n	100052ee <y64_x64+0x12>
100052ee:	e7ff      	b.n	100052f0 <y64_x64+0x14>
100052f0:	6f3c      	ldr	r4, [r7, #112]	@ 0x70
100052f2:	b295      	uxth	r5, r2
100052f4:	b29e      	uxth	r6, r3
100052f6:	4365      	muls	r5, r4
100052f8:	4366      	muls	r6, r4
100052fa:	1b40      	subs	r0, r0, r5
100052fc:	41b1      	sbcs	r1, r6
100052fe:	0c15      	lsrs	r5, r2, #16
10005300:	0c1e      	lsrs	r6, r3, #16
10005302:	4365      	muls	r5, r4
10005304:	4366      	muls	r6, r4
10005306:	0436      	lsls	r6, r6, #16
10005308:	0c2f      	lsrs	r7, r5, #16
1000530a:	433e      	orrs	r6, r7
1000530c:	042d      	lsls	r5, r5, #16
1000530e:	1b40      	subs	r0, r0, r5
10005310:	41b1      	sbcs	r1, r6
10005312:	4299      	cmp	r1, r3
10005314:	d204      	bcs.n	10005320 <y64_x64+0x44>
10005316:	0002      	movs	r2, r0
10005318:	000b      	movs	r3, r1
1000531a:	0020      	movs	r0, r4
1000531c:	2100      	movs	r1, #0
1000531e:	bdf0      	pop	{r4, r5, r6, r7, pc}
10005320:	d101      	bne.n	10005326 <y64_x64+0x4a>
10005322:	4290      	cmp	r0, r2
10005324:	d3f7      	bcc.n	10005316 <y64_x64+0x3a>
10005326:	1a80      	subs	r0, r0, r2
10005328:	4199      	sbcs	r1, r3
1000532a:	3401      	adds	r4, #1
1000532c:	4299      	cmp	r1, r3
1000532e:	d3f2      	bcc.n	10005316 <y64_x64+0x3a>
10005330:	e7f6      	b.n	10005320 <y64_x64+0x44>
10005332:	0000      	.short	0x0000
10005334:	d0000000 	.word	0xd0000000
10005338:	ffffffff 	.word	0xffffffff

1000533c <__wrap___aeabi_drsub>:
1000533c:	4048      	eors	r0, r1
1000533e:	4041      	eors	r1, r0
10005340:	4048      	eors	r0, r1

10005342 <__wrap___aeabi_dsub>:
10005342:	b418      	push	{r3, r4}
10005344:	4b13      	ldr	r3, [pc, #76]	@ (10005394 <__wrap___aeabi_dmul+0xa>)
10005346:	685b      	ldr	r3, [r3, #4]
10005348:	9301      	str	r3, [sp, #4]
1000534a:	bd08      	pop	{r3, pc}

1000534c <__wrap___aeabi_dadd>:
1000534c:	b418      	push	{r3, r4}
1000534e:	4b11      	ldr	r3, [pc, #68]	@ (10005394 <__wrap___aeabi_dmul+0xa>)
10005350:	681b      	ldr	r3, [r3, #0]
10005352:	9301      	str	r3, [sp, #4]
10005354:	bd08      	pop	{r3, pc}

10005356 <__wrap___aeabi_ddiv>:
10005356:	4694      	mov	ip, r2
10005358:	4a0f      	ldr	r2, [pc, #60]	@ (10005398 <__wrap___aeabi_dmul+0xe>)
1000535a:	6f92      	ldr	r2, [r2, #120]	@ 0x78
1000535c:	0892      	lsrs	r2, r2, #2
1000535e:	d205      	bcs.n	1000536c <ddiv_save_state>
10005360:	4662      	mov	r2, ip

10005362 <ddiv_shim_call>:
10005362:	b418      	push	{r3, r4}
10005364:	4b0b      	ldr	r3, [pc, #44]	@ (10005394 <__wrap___aeabi_dmul+0xa>)
10005366:	68db      	ldr	r3, [r3, #12]
10005368:	9301      	str	r3, [sp, #4]
1000536a:	bd08      	pop	{r3, pc}

1000536c <ddiv_save_state>:
1000536c:	4a0a      	ldr	r2, [pc, #40]	@ (10005398 <__wrap___aeabi_dmul+0xe>)
1000536e:	b5f0      	push	{r4, r5, r6, r7, lr}
10005370:	6e14      	ldr	r4, [r2, #96]	@ 0x60
10005372:	6e55      	ldr	r5, [r2, #100]	@ 0x64
10005374:	6f57      	ldr	r7, [r2, #116]	@ 0x74
10005376:	6f16      	ldr	r6, [r2, #112]	@ 0x70
10005378:	4662      	mov	r2, ip
1000537a:	f7ff fff2 	bl	10005362 <ddiv_shim_call>
1000537e:	4a06      	ldr	r2, [pc, #24]	@ (10005398 <__wrap___aeabi_dmul+0xe>)
10005380:	6614      	str	r4, [r2, #96]	@ 0x60
10005382:	6655      	str	r5, [r2, #100]	@ 0x64
10005384:	6757      	str	r7, [r2, #116]	@ 0x74
10005386:	6716      	str	r6, [r2, #112]	@ 0x70
10005388:	bdf0      	pop	{r4, r5, r6, r7, pc}

1000538a <__wrap___aeabi_dmul>:
1000538a:	b418      	push	{r3, r4}
1000538c:	4b01      	ldr	r3, [pc, #4]	@ (10005394 <__wrap___aeabi_dmul+0xa>)
1000538e:	689b      	ldr	r3, [r3, #8]
10005390:	9301      	str	r3, [sp, #4]
10005392:	bd08      	pop	{r3, pc}
10005394:	20003fd0 	.word	0x20003fd0
10005398:	d0000000 	.word	0xd0000000

1000539c <__wrap___aeabi_cdrcmple>:
1000539c:	b5ff      	push	{r0, r1, r2, r3, r4, r5, r6, r7, lr}
1000539e:	4050      	eors	r0, r2
100053a0:	4042      	eors	r2, r0
100053a2:	4050      	eors	r0, r2
100053a4:	4059      	eors	r1, r3
100053a6:	404b      	eors	r3, r1
100053a8:	4059      	eors	r1, r3
100053aa:	e000      	b.n	100053ae <__aeabi_dfcmple_guts>

100053ac <__wrap___aeabi_cdcmpeq>:
100053ac:	b5ff      	push	{r0, r1, r2, r3, r4, r5, r6, r7, lr}

100053ae <__aeabi_dfcmple_guts>:
100053ae:	4f15      	ldr	r7, [pc, #84]	@ (10005404 <__aeabi_dfcmple_guts+0x56>)
100053b0:	004c      	lsls	r4, r1, #1
100053b2:	0d64      	lsrs	r4, r4, #21
100053b4:	d003      	beq.n	100053be <__aeabi_dfcmple_guts+0x10>
100053b6:	42bc      	cmp	r4, r7
100053b8:	d104      	bne.n	100053c4 <__aeabi_dfcmple_guts+0x16>
100053ba:	030c      	lsls	r4, r1, #12
100053bc:	d814      	bhi.n	100053e8 <__aeabi_dfcmple_guts+0x3a>
100053be:	2000      	movs	r0, #0
100053c0:	0d09      	lsrs	r1, r1, #20
100053c2:	0509      	lsls	r1, r1, #20
100053c4:	005c      	lsls	r4, r3, #1
100053c6:	0d64      	lsrs	r4, r4, #21
100053c8:	d003      	beq.n	100053d2 <__aeabi_dfcmple_guts+0x24>
100053ca:	42bc      	cmp	r4, r7
100053cc:	d104      	bne.n	100053d8 <__aeabi_dfcmple_guts+0x2a>
100053ce:	031c      	lsls	r4, r3, #12
100053d0:	d80a      	bhi.n	100053e8 <__aeabi_dfcmple_guts+0x3a>
100053d2:	2200      	movs	r2, #0
100053d4:	0d1b      	lsrs	r3, r3, #20
100053d6:	051b      	lsls	r3, r3, #20
100053d8:	2601      	movs	r6, #1
100053da:	404b      	eors	r3, r1
100053dc:	d409      	bmi.n	100053f2 <__aeabi_dfcmple_guts+0x44>
100053de:	404b      	eors	r3, r1
100053e0:	d503      	bpl.n	100053ea <__aeabi_dfcmple_guts+0x3c>
100053e2:	428b      	cmp	r3, r1
100053e4:	d100      	bne.n	100053e8 <__aeabi_dfcmple_guts+0x3a>
100053e6:	4282      	cmp	r2, r0
100053e8:	bdff      	pop	{r0, r1, r2, r3, r4, r5, r6, r7, pc}
100053ea:	4299      	cmp	r1, r3
100053ec:	d1fc      	bne.n	100053e8 <__aeabi_dfcmple_guts+0x3a>
100053ee:	4290      	cmp	r0, r2
100053f0:	bdff      	pop	{r0, r1, r2, r3, r4, r5, r6, r7, pc}
100053f2:	430b      	orrs	r3, r1
100053f4:	18db      	adds	r3, r3, r3
100053f6:	4303      	orrs	r3, r0
100053f8:	4313      	orrs	r3, r2
100053fa:	d0f5      	beq.n	100053e8 <__aeabi_dfcmple_guts+0x3a>
100053fc:	43c9      	mvns	r1, r1
100053fe:	1849      	adds	r1, r1, r1
10005400:	bdff      	pop	{r0, r1, r2, r3, r4, r5, r6, r7, pc}
10005402:	0000      	.short	0x0000
10005404:	000007ff 	.word	0x000007ff

10005408 <__wrap___aeabi_dcmplt>:
10005408:	b500      	push	{lr}
1000540a:	f7ff ffcf 	bl	100053ac <__wrap___aeabi_cdcmpeq>
1000540e:	4180      	sbcs	r0, r0
10005410:	bd00      	pop	{pc}
10005412:	46c0      	nop			@ (mov r8, r8)

10005414 <__wrap___aeabi_dcmple>:
10005414:	b500      	push	{lr}
10005416:	f7ff ffc9 	bl	100053ac <__wrap___aeabi_cdcmpeq>
1000541a:	d901      	bls.n	10005420 <__wrap___aeabi_dcmple+0xc>
1000541c:	2000      	movs	r0, #0
1000541e:	bd00      	pop	{pc}
10005420:	2001      	movs	r0, #1
10005422:	bd00      	pop	{pc}

10005424 <__wrap___aeabi_dcmpge>:
10005424:	b500      	push	{lr}
10005426:	f7ff ffb9 	bl	1000539c <__wrap___aeabi_cdrcmple>
1000542a:	d901      	bls.n	10005430 <__wrap___aeabi_dcmpge+0xc>
1000542c:	2000      	movs	r0, #0
1000542e:	bd00      	pop	{pc}
10005430:	2001      	movs	r0, #1
10005432:	bd00      	pop	{pc}

10005434 <__wrap___aeabi_dcmpgt>:
10005434:	b500      	push	{lr}
10005436:	f7ff ffb1 	bl	1000539c <__wrap___aeabi_cdrcmple>
1000543a:	4180      	sbcs	r0, r0
1000543c:	bd00      	pop	{pc}

1000543e <__wrap___aeabi_dcmpun>:
1000543e:	2001      	movs	r0, #1
10005440:	0540      	lsls	r0, r0, #21
10005442:	004a      	lsls	r2, r1, #1
10005444:	1812      	adds	r2, r2, r0
10005446:	d804      	bhi.n	10005452 <__wrap___aeabi_dcmpun+0x14>
10005448:	005a      	lsls	r2, r3, #1
1000544a:	1812      	adds	r2, r2, r0
1000544c:	d801      	bhi.n	10005452 <__wrap___aeabi_dcmpun+0x14>
1000544e:	2000      	movs	r0, #0
10005450:	4770      	bx	lr
10005452:	2001      	movs	r0, #1
10005454:	4770      	bx	lr
	...

10005458 <__wrap___aeabi_ui2d>:
10005458:	2100      	movs	r1, #0
1000545a:	2800      	cmp	r0, #0
1000545c:	d105      	bne.n	1000546a <__wrap___aeabi_i2d+0xa>
1000545e:	4770      	bx	lr

10005460 <__wrap___aeabi_i2d>:
10005460:	17c1      	asrs	r1, r0, #31
10005462:	4048      	eors	r0, r1
10005464:	1a40      	subs	r0, r0, r1
10005466:	d0fa      	beq.n	1000545e <__wrap___aeabi_ui2d+0x6>
10005468:	07c9      	lsls	r1, r1, #31
1000546a:	b513      	push	{r0, r1, r4, lr}
1000546c:	4b06      	ldr	r3, [pc, #24]	@ (10005488 <__wrap___aeabi_i2d+0x28>)
1000546e:	681b      	ldr	r3, [r3, #0]
10005470:	4798      	blx	r3
10005472:	bc0c      	pop	{r2, r3}
10005474:	1c44      	adds	r4, r0, #1
10005476:	40a2      	lsls	r2, r4
10005478:	0510      	lsls	r0, r2, #20
1000547a:	0b12      	lsrs	r2, r2, #12
1000547c:	4903      	ldr	r1, [pc, #12]	@ (1000548c <__wrap___aeabi_i2d+0x2c>)
1000547e:	1b09      	subs	r1, r1, r4
10005480:	0509      	lsls	r1, r1, #20
10005482:	4319      	orrs	r1, r3
10005484:	4311      	orrs	r1, r2
10005486:	bd10      	pop	{r4, pc}
10005488:	200051c4 	.word	0x200051c4
1000548c:	0000041f 	.word	0x0000041f

10005490 <__wrap___aeabi_d2iz>:
10005490:	b510      	push	{r4, lr}
10005492:	004c      	lsls	r4, r1, #1
10005494:	0d62      	lsrs	r2, r4, #21
10005496:	2380      	movs	r3, #128	@ 0x80
10005498:	18d2      	adds	r2, r2, r3
1000549a:	00db      	lsls	r3, r3, #3
1000549c:	1ad2      	subs	r2, r2, r3
1000549e:	055b      	lsls	r3, r3, #21
100054a0:	2a7e      	cmp	r2, #126	@ 0x7e
100054a2:	dd10      	ble.n	100054c6 <__wrap___aeabi_d2iz+0x36>
100054a4:	3a9e      	subs	r2, #158	@ 0x9e
100054a6:	da13      	bge.n	100054d0 <__wrap___aeabi_d2iz+0x40>
100054a8:	17cc      	asrs	r4, r1, #31
100054aa:	0309      	lsls	r1, r1, #12
100054ac:	0849      	lsrs	r1, r1, #1
100054ae:	4319      	orrs	r1, r3
100054b0:	4252      	negs	r2, r2
100054b2:	40d1      	lsrs	r1, r2
100054b4:	0064      	lsls	r4, r4, #1
100054b6:	3401      	adds	r4, #1
100054b8:	3215      	adds	r2, #21
100054ba:	2a20      	cmp	r2, #32
100054bc:	da05      	bge.n	100054ca <__wrap___aeabi_d2iz+0x3a>
100054be:	40d0      	lsrs	r0, r2
100054c0:	4308      	orrs	r0, r1
100054c2:	4360      	muls	r0, r4
100054c4:	bd10      	pop	{r4, pc}
100054c6:	2000      	movs	r0, #0
100054c8:	bd10      	pop	{r4, pc}
100054ca:	4608      	mov	r0, r1
100054cc:	4360      	muls	r0, r4
100054ce:	bd10      	pop	{r4, pc}
100054d0:	0fc8      	lsrs	r0, r1, #31
100054d2:	18c0      	adds	r0, r0, r3
100054d4:	3801      	subs	r0, #1
100054d6:	bd10      	pop	{r4, pc}

100054d8 <__wrap___aeabi_d2uiz>:
100054d8:	b418      	push	{r3, r4}
100054da:	4b02      	ldr	r3, [pc, #8]	@ (100054e4 <__wrap___aeabi_d2uiz+0xc>)
100054dc:	6a5b      	ldr	r3, [r3, #36]	@ 0x24
100054de:	9301      	str	r3, [sp, #4]
100054e0:	bd08      	pop	{r3, pc}
100054e2:	0000      	.short	0x0000
100054e4:	20003fd0 	.word	0x20003fd0

100054e8 <__wrap___aeabi_d2f>:
100054e8:	b418      	push	{r3, r4}
100054ea:	4b02      	ldr	r3, [pc, #8]	@ (100054f4 <__wrap___aeabi_d2f+0xc>)
100054ec:	6fdb      	ldr	r3, [r3, #124]	@ 0x7c
100054ee:	9301      	str	r3, [sp, #4]
100054f0:	bd08      	pop	{r3, pc}
100054f2:	0000      	.short	0x0000
100054f4:	20003fd0 	.word	0x20003fd0

100054f8 <missing_double_func_shim>:
100054f8:	b510      	push	{r4, lr}
100054fa:	4801      	ldr	r0, [pc, #4]	@ (10005500 <missing_double_func_shim+0x8>)
100054fc:	f7fd ffb6 	bl	1000346c <panic>
10005500:	1000b618 	.word	0x1000b618

10005504 <__aeabi_double_init>:
10005504:	2313      	movs	r3, #19
10005506:	b570      	push	{r4, r5, r6, lr}
10005508:	781d      	ldrb	r5, [r3, #0]
1000550a:	2d01      	cmp	r5, #1
1000550c:	d019      	beq.n	10005542 <__aeabi_double_init+0x3e>
1000550e:	dd14      	ble.n	1000553a <__aeabi_double_init+0x36>
10005510:	481d      	ldr	r0, [pc, #116]	@ (10005588 <__aeabi_double_init+0x84>)
10005512:	f7ff fb75 	bl	10004c00 <rom_data_lookup>
10005516:	0006      	movs	r6, r0
10005518:	481c      	ldr	r0, [pc, #112]	@ (1000558c <__aeabi_double_init+0x88>)
1000551a:	f7ff fb71 	bl	10004c00 <rom_data_lookup>
1000551e:	4c1c      	ldr	r4, [pc, #112]	@ (10005590 <__aeabi_double_init+0x8c>)
10005520:	2280      	movs	r2, #128	@ 0x80
10005522:	0031      	movs	r1, r6
10005524:	0020      	movs	r0, r4
10005526:	f000 f91d 	bl	10005764 <__wrap___aeabi_memcpy>
1000552a:	2d02      	cmp	r5, #2
1000552c:	d006      	beq.n	1000553c <__aeabi_double_init+0x38>
1000552e:	4819      	ldr	r0, [pc, #100]	@ (10005594 <__aeabi_double_init+0x90>)
10005530:	f7ff fb5e 	bl	10004bf0 <rom_func_lookup>
10005534:	4b18      	ldr	r3, [pc, #96]	@ (10005598 <__aeabi_double_init+0x94>)
10005536:	6018      	str	r0, [r3, #0]
10005538:	bd70      	pop	{r4, r5, r6, pc}
1000553a:	4c15      	ldr	r4, [pc, #84]	@ (10005590 <__aeabi_double_init+0x8c>)
1000553c:	4b17      	ldr	r3, [pc, #92]	@ (1000559c <__aeabi_double_init+0x98>)
1000553e:	64a3      	str	r3, [r4, #72]	@ 0x48
10005540:	e7f5      	b.n	1000552e <__aeabi_double_init+0x2a>
10005542:	4b17      	ldr	r3, [pc, #92]	@ (100055a0 <__aeabi_double_init+0x9c>)
10005544:	4c12      	ldr	r4, [pc, #72]	@ (10005590 <__aeabi_double_init+0x8c>)
10005546:	6023      	str	r3, [r4, #0]
10005548:	6063      	str	r3, [r4, #4]
1000554a:	60a3      	str	r3, [r4, #8]
1000554c:	60e3      	str	r3, [r4, #12]
1000554e:	6123      	str	r3, [r4, #16]
10005550:	6163      	str	r3, [r4, #20]
10005552:	61a3      	str	r3, [r4, #24]
10005554:	61e3      	str	r3, [r4, #28]
10005556:	6223      	str	r3, [r4, #32]
10005558:	6263      	str	r3, [r4, #36]	@ 0x24
1000555a:	62a3      	str	r3, [r4, #40]	@ 0x28
1000555c:	62e3      	str	r3, [r4, #44]	@ 0x2c
1000555e:	6323      	str	r3, [r4, #48]	@ 0x30
10005560:	6363      	str	r3, [r4, #52]	@ 0x34
10005562:	63a3      	str	r3, [r4, #56]	@ 0x38
10005564:	63e3      	str	r3, [r4, #60]	@ 0x3c
10005566:	6423      	str	r3, [r4, #64]	@ 0x40
10005568:	6463      	str	r3, [r4, #68]	@ 0x44
1000556a:	64a3      	str	r3, [r4, #72]	@ 0x48
1000556c:	64e3      	str	r3, [r4, #76]	@ 0x4c
1000556e:	6523      	str	r3, [r4, #80]	@ 0x50
10005570:	6563      	str	r3, [r4, #84]	@ 0x54
10005572:	65a3      	str	r3, [r4, #88]	@ 0x58
10005574:	65e3      	str	r3, [r4, #92]	@ 0x5c
10005576:	6623      	str	r3, [r4, #96]	@ 0x60
10005578:	6663      	str	r3, [r4, #100]	@ 0x64
1000557a:	66a3      	str	r3, [r4, #104]	@ 0x68
1000557c:	66e3      	str	r3, [r4, #108]	@ 0x6c
1000557e:	6723      	str	r3, [r4, #112]	@ 0x70
10005580:	6763      	str	r3, [r4, #116]	@ 0x74
10005582:	67a3      	str	r3, [r4, #120]	@ 0x78
10005584:	67e3      	str	r3, [r4, #124]	@ 0x7c
10005586:	e7d9      	b.n	1000553c <__aeabi_double_init+0x38>
10005588:	00004453 	.word	0x00004453
1000558c:	00004653 	.word	0x00004653
10005590:	20003fd0 	.word	0x20003fd0
10005594:	0000334c 	.word	0x0000334c
10005598:	200051c4 	.word	0x200051c4
1000559c:	100055a5 	.word	0x100055a5
100055a0:	100054f9 	.word	0x100054f9

100055a4 <double_table_shim_on_use_helper>:
100055a4:	b507      	push	{r0, r1, r2, lr}
100055a6:	4660      	mov	r0, ip
100055a8:	8801      	ldrh	r1, [r0, #0]
100055aa:	0a0a      	lsrs	r2, r1, #8
100055ac:	3002      	adds	r0, #2
100055ae:	2adf      	cmp	r2, #223	@ 0xdf
100055b0:	d1fa      	bne.n	100055a8 <double_table_shim_on_use_helper+0x4>
100055b2:	b2c9      	uxtb	r1, r1
100055b4:	0882      	lsrs	r2, r0, #2
100055b6:	d304      	bcc.n	100055c2 <double_table_shim_on_use_helper+0x1e>
100055b8:	8802      	ldrh	r2, [r0, #0]
100055ba:	8840      	ldrh	r0, [r0, #2]
100055bc:	0400      	lsls	r0, r0, #16
100055be:	4310      	orrs	r0, r2
100055c0:	e000      	b.n	100055c4 <double_table_shim_on_use_helper+0x20>
100055c2:	6800      	ldr	r0, [r0, #0]
100055c4:	4a01      	ldr	r2, [pc, #4]	@ (100055cc <double_table_shim_on_use_helper+0x28>)
100055c6:	5050      	str	r0, [r2, r1]
100055c8:	9003      	str	r0, [sp, #12]
100055ca:	bd07      	pop	{r0, r1, r2, pc}
100055cc:	20003fd0 	.word	0x20003fd0

100055d0 <__wrap___aeabi_lmul>:
100055d0:	4351      	muls	r1, r2
100055d2:	4343      	muls	r3, r0
100055d4:	18c9      	adds	r1, r1, r3
100055d6:	468c      	mov	ip, r1
100055d8:	0c11      	lsrs	r1, r2, #16
100055da:	b283      	uxth	r3, r0
100055dc:	434b      	muls	r3, r1
100055de:	b410      	push	{r4}
100055e0:	0c04      	lsrs	r4, r0, #16
100055e2:	4361      	muls	r1, r4
100055e4:	b292      	uxth	r2, r2
100055e6:	b280      	uxth	r0, r0
100055e8:	4350      	muls	r0, r2
100055ea:	4362      	muls	r2, r4
100055ec:	041c      	lsls	r4, r3, #16
100055ee:	0c1b      	lsrs	r3, r3, #16
100055f0:	1900      	adds	r0, r0, r4
100055f2:	bc10      	pop	{r4}
100055f4:	4159      	adcs	r1, r3
100055f6:	0413      	lsls	r3, r2, #16
100055f8:	0c12      	lsrs	r2, r2, #16
100055fa:	18c0      	adds	r0, r0, r3
100055fc:	4151      	adcs	r1, r2
100055fe:	4461      	add	r1, ip
10005600:	4770      	bx	lr
	...

10005604 <__wrap___aeabi_frsub>:
10005604:	4048      	eors	r0, r1
10005606:	4041      	eors	r1, r0
10005608:	4048      	eors	r0, r1

1000560a <__wrap___aeabi_fsub>:
1000560a:	4b0e      	ldr	r3, [pc, #56]	@ (10005644 <__wrap___aeabi_fmul+0x6>)
1000560c:	685b      	ldr	r3, [r3, #4]
1000560e:	4718      	bx	r3

10005610 <__wrap___aeabi_fadd>:
10005610:	4b0c      	ldr	r3, [pc, #48]	@ (10005644 <__wrap___aeabi_fmul+0x6>)
10005612:	681b      	ldr	r3, [r3, #0]
10005614:	4718      	bx	r3

10005616 <__wrap___aeabi_fdiv>:
10005616:	4a0c      	ldr	r2, [pc, #48]	@ (10005648 <__wrap___aeabi_fmul+0xa>)
10005618:	6f93      	ldr	r3, [r2, #120]	@ 0x78
1000561a:	089b      	lsrs	r3, r3, #2
1000561c:	d202      	bcs.n	10005624 <fdiv_save_state>

1000561e <fdiv_shim_call>:
1000561e:	4b09      	ldr	r3, [pc, #36]	@ (10005644 <__wrap___aeabi_fmul+0x6>)
10005620:	68db      	ldr	r3, [r3, #12]
10005622:	4718      	bx	r3

10005624 <fdiv_save_state>:
10005624:	b5f0      	push	{r4, r5, r6, r7, lr}
10005626:	6e14      	ldr	r4, [r2, #96]	@ 0x60
10005628:	6e55      	ldr	r5, [r2, #100]	@ 0x64
1000562a:	6f57      	ldr	r7, [r2, #116]	@ 0x74
1000562c:	6f16      	ldr	r6, [r2, #112]	@ 0x70
1000562e:	f7ff fff6 	bl	1000561e <fdiv_shim_call>
10005632:	4a05      	ldr	r2, [pc, #20]	@ (10005648 <__wrap___aeabi_fmul+0xa>)
10005634:	6614      	str	r4, [r2, #96]	@ 0x60
10005636:	6655      	str	r5, [r2, #100]	@ 0x64
10005638:	6757      	str	r7, [r2, #116]	@ 0x74
1000563a:	6716      	str	r6, [r2, #112]	@ 0x70
1000563c:	bdf0      	pop	{r4, r5, r6, r7, pc}

1000563e <__wrap___aeabi_fmul>:
1000563e:	4b01      	ldr	r3, [pc, #4]	@ (10005644 <__wrap___aeabi_fmul+0x6>)
10005640:	689b      	ldr	r3, [r3, #8]
10005642:	4718      	bx	r3
10005644:	200051c8 	.word	0x200051c8
10005648:	d0000000 	.word	0xd0000000

1000564c <__wrap___aeabi_ui2f>:
1000564c:	1a49      	subs	r1, r1, r1
1000564e:	2800      	cmp	r0, #0
10005650:	d108      	bne.n	10005664 <__aeabi_i2f_main>
10005652:	4608      	mov	r0, r1
10005654:	4770      	bx	lr
	...

10005658 <__wrap___aeabi_i2f>:
10005658:	0fc1      	lsrs	r1, r0, #31
1000565a:	07c9      	lsls	r1, r1, #31
1000565c:	d500      	bpl.n	10005660 <__wrap___aeabi_i2f+0x8>
1000565e:	4240      	negs	r0, r0
10005660:	2800      	cmp	r0, #0
10005662:	d017      	beq.n	10005694 <__aeabi_i2f_main+0x30>

10005664 <__aeabi_i2f_main>:
10005664:	46f4      	mov	ip, lr
10005666:	b403      	push	{r0, r1}
10005668:	4b0b      	ldr	r3, [pc, #44]	@ (10005698 <__aeabi_i2f_main+0x34>)
1000566a:	681b      	ldr	r3, [r3, #0]
1000566c:	4798      	blx	r3
1000566e:	bc06      	pop	{r1, r2}
10005670:	4081      	lsls	r1, r0
10005672:	389e      	subs	r0, #158	@ 0x9e
10005674:	4240      	negs	r0, r0
10005676:	3180      	adds	r1, #128	@ 0x80
10005678:	d207      	bcs.n	1000568a <__aeabi_i2f_main+0x26>
1000567a:	060b      	lsls	r3, r1, #24
1000567c:	d007      	beq.n	1000568e <__aeabi_i2f_main+0x2a>
1000567e:	0049      	lsls	r1, r1, #1
10005680:	0a49      	lsrs	r1, r1, #9
10005682:	05c0      	lsls	r0, r0, #23
10005684:	4310      	orrs	r0, r2
10005686:	4308      	orrs	r0, r1
10005688:	4760      	bx	ip
1000568a:	3001      	adds	r0, #1
1000568c:	e7f8      	b.n	10005680 <__aeabi_i2f_main+0x1c>
1000568e:	0a49      	lsrs	r1, r1, #9
10005690:	0289      	lsls	r1, r1, #10
10005692:	e7f5      	b.n	10005680 <__aeabi_i2f_main+0x1c>
10005694:	4770      	bx	lr
10005696:	0000      	.short	0x0000
10005698:	200051c4 	.word	0x200051c4

1000569c <__wrap___aeabi_f2uiz>:
1000569c:	4b01      	ldr	r3, [pc, #4]	@ (100056a4 <__wrap___aeabi_f2uiz+0x8>)
1000569e:	6a5b      	ldr	r3, [r3, #36]	@ 0x24
100056a0:	4718      	bx	r3
100056a2:	0000      	.short	0x0000
100056a4:	200051c8 	.word	0x200051c8

100056a8 <__wrap___aeabi_f2d>:
100056a8:	4b01      	ldr	r3, [pc, #4]	@ (100056b0 <__wrap___aeabi_f2d+0x8>)
100056aa:	6fdb      	ldr	r3, [r3, #124]	@ 0x7c
100056ac:	4718      	bx	r3
100056ae:	0000      	.short	0x0000
100056b0:	200051c8 	.word	0x200051c8

100056b4 <missing_float_func_shim>:
100056b4:	b510      	push	{r4, lr}
100056b6:	4801      	ldr	r0, [pc, #4]	@ (100056bc <missing_float_func_shim+0x8>)
100056b8:	f7fd fed8 	bl	1000346c <panic>
100056bc:	1000b334 	.word	0x1000b334

100056c0 <__aeabi_float_init>:
100056c0:	2313      	movs	r3, #19
100056c2:	b510      	push	{r4, lr}
100056c4:	4810      	ldr	r0, [pc, #64]	@ (10005708 <__aeabi_float_init+0x48>)
100056c6:	781c      	ldrb	r4, [r3, #0]
100056c8:	f7ff fa9a 	bl	10004c00 <rom_data_lookup>
100056cc:	0001      	movs	r1, r0
100056ce:	2c01      	cmp	r4, #1
100056d0:	d00a      	beq.n	100056e8 <__aeabi_float_init+0x28>
100056d2:	dd03      	ble.n	100056dc <__aeabi_float_init+0x1c>
100056d4:	2280      	movs	r2, #128	@ 0x80
100056d6:	480d      	ldr	r0, [pc, #52]	@ (1000570c <__aeabi_float_init+0x4c>)
100056d8:	f000 f844 	bl	10005764 <__wrap___aeabi_memcpy>
100056dc:	480c      	ldr	r0, [pc, #48]	@ (10005710 <__aeabi_float_init+0x50>)
100056de:	f7ff fa87 	bl	10004bf0 <rom_func_lookup>
100056e2:	4b0c      	ldr	r3, [pc, #48]	@ (10005714 <__aeabi_float_init+0x54>)
100056e4:	6018      	str	r0, [r3, #0]
100056e6:	bd10      	pop	{r4, pc}
100056e8:	4c08      	ldr	r4, [pc, #32]	@ (1000570c <__aeabi_float_init+0x4c>)
100056ea:	2254      	movs	r2, #84	@ 0x54
100056ec:	0020      	movs	r0, r4
100056ee:	f000 f839 	bl	10005764 <__wrap___aeabi_memcpy>
100056f2:	0022      	movs	r2, r4
100056f4:	4908      	ldr	r1, [pc, #32]	@ (10005718 <__aeabi_float_init+0x58>)
100056f6:	3280      	adds	r2, #128	@ 0x80
100056f8:	6823      	ldr	r3, [r4, #0]
100056fa:	2b00      	cmp	r3, #0
100056fc:	d100      	bne.n	10005700 <__aeabi_float_init+0x40>
100056fe:	6021      	str	r1, [r4, #0]
10005700:	3404      	adds	r4, #4
10005702:	4294      	cmp	r4, r2
10005704:	d1f8      	bne.n	100056f8 <__aeabi_float_init+0x38>
10005706:	e7e9      	b.n	100056dc <__aeabi_float_init+0x1c>
10005708:	00004653 	.word	0x00004653
1000570c:	200051c8 	.word	0x200051c8
10005710:	0000334c 	.word	0x0000334c
10005714:	200051c4 	.word	0x200051c4
10005718:	100056b5 	.word	0x100056b5

1000571c <__wrap_malloc>:
1000571c:	b510      	push	{r4, lr}
1000571e:	0004      	movs	r4, r0
10005720:	f004 fd32 	bl	1000a188 <malloc>
10005724:	2800      	cmp	r0, #0
10005726:	d004      	beq.n	10005732 <__wrap_malloc+0x16>
10005728:	4b03      	ldr	r3, [pc, #12]	@ (10005738 <__wrap_malloc+0x1c>)
1000572a:	1904      	adds	r4, r0, r4
1000572c:	429c      	cmp	r4, r3
1000572e:	d800      	bhi.n	10005732 <__wrap_malloc+0x16>
10005730:	bd10      	pop	{r4, pc}
10005732:	4802      	ldr	r0, [pc, #8]	@ (1000573c <__wrap_malloc+0x20>)
10005734:	f7fd fe9a 	bl	1000346c <panic>
10005738:	20040000 	.word	0x20040000
1000573c:	1000b630 	.word	0x1000b630

10005740 <__wrap_free>:
10005740:	b510      	push	{r4, lr}
10005742:	f004 fd2b 	bl	1000a19c <free>
10005746:	bd10      	pop	{r4, pc}

10005748 <__aeabi_mem_init>:
10005748:	4801      	ldr	r0, [pc, #4]	@ (10005750 <__aeabi_mem_init+0x8>)
1000574a:	2104      	movs	r1, #4
1000574c:	4b01      	ldr	r3, [pc, #4]	@ (10005754 <__aeabi_mem_init+0xc>)
1000574e:	4718      	bx	r3
10005750:	200036b0 	.word	0x200036b0
10005754:	10004c11 	.word	0x10004c11

10005758 <__wrap_memset>:
10005758:	4b01      	ldr	r3, [pc, #4]	@ (10005760 <__wrap_memset+0x8>)
1000575a:	681b      	ldr	r3, [r3, #0]
1000575c:	4718      	bx	r3
1000575e:	0000      	.short	0x0000
10005760:	200036b0 	.word	0x200036b0

10005764 <__wrap___aeabi_memcpy>:
10005764:	4b01      	ldr	r3, [pc, #4]	@ (1000576c <__wrap___aeabi_memcpy+0x8>)
10005766:	685b      	ldr	r3, [r3, #4]
10005768:	4718      	bx	r3
1000576a:	0000      	.short	0x0000
1000576c:	200036b0 	.word	0x200036b0

10005770 <_out_buffer>:
10005770:	429a      	cmp	r2, r3
10005772:	d200      	bcs.n	10005776 <_out_buffer+0x6>
10005774:	5488      	strb	r0, [r1, r2]
10005776:	4770      	bx	lr

10005778 <_out_null>:
10005778:	4770      	bx	lr
1000577a:	46c0      	nop			@ (mov r8, r8)

1000577c <_out_rev>:
1000577c:	b5f8      	push	{r3, r4, r5, r6, r7, lr}
1000577e:	4657      	mov	r7, sl
10005780:	46de      	mov	lr, fp
10005782:	464e      	mov	r6, r9
10005784:	4645      	mov	r5, r8
10005786:	b5e0      	push	{r5, r6, r7, lr}
10005788:	4699      	mov	r9, r3
1000578a:	9b0a      	ldr	r3, [sp, #40]	@ 0x28
1000578c:	0007      	movs	r7, r0
1000578e:	469a      	mov	sl, r3
10005790:	9b0d      	ldr	r3, [sp, #52]	@ 0x34
10005792:	4688      	mov	r8, r1
10005794:	4693      	mov	fp, r2
10005796:	9c0b      	ldr	r4, [sp, #44]	@ 0x2c
10005798:	079b      	lsls	r3, r3, #30
1000579a:	d13b      	bne.n	10005814 <_out_rev+0x98>
1000579c:	9b0c      	ldr	r3, [sp, #48]	@ 0x30
1000579e:	429c      	cmp	r4, r3
100057a0:	d23d      	bcs.n	1000581e <_out_rev+0xa2>
100057a2:	1b1e      	subs	r6, r3, r4
100057a4:	940b      	str	r4, [sp, #44]	@ 0x2c
100057a6:	0015      	movs	r5, r2
100057a8:	000c      	movs	r4, r1
100057aa:	445e      	add	r6, fp
100057ac:	002a      	movs	r2, r5
100057ae:	464b      	mov	r3, r9
100057b0:	3501      	adds	r5, #1
100057b2:	0021      	movs	r1, r4
100057b4:	2020      	movs	r0, #32
100057b6:	47b8      	blx	r7
100057b8:	42b5      	cmp	r5, r6
100057ba:	d1f7      	bne.n	100057ac <_out_rev+0x30>
100057bc:	46a0      	mov	r8, r4
100057be:	9c0b      	ldr	r4, [sp, #44]	@ 0x2c
100057c0:	2c00      	cmp	r4, #0
100057c2:	d020      	beq.n	10005806 <_out_rev+0x8a>
100057c4:	4645      	mov	r5, r8
100057c6:	1936      	adds	r6, r6, r4
100057c8:	4653      	mov	r3, sl
100057ca:	1b32      	subs	r2, r6, r4
100057cc:	3c01      	subs	r4, #1
100057ce:	5d18      	ldrb	r0, [r3, r4]
100057d0:	0029      	movs	r1, r5
100057d2:	464b      	mov	r3, r9
100057d4:	47b8      	blx	r7
100057d6:	2c00      	cmp	r4, #0
100057d8:	d1f6      	bne.n	100057c8 <_out_rev+0x4c>
100057da:	002b      	movs	r3, r5
100057dc:	0035      	movs	r5, r6
100057de:	4698      	mov	r8, r3
100057e0:	9b0d      	ldr	r3, [sp, #52]	@ 0x34
100057e2:	079b      	lsls	r3, r3, #30
100057e4:	d50f      	bpl.n	10005806 <_out_rev+0x8a>
100057e6:	465b      	mov	r3, fp
100057e8:	1aec      	subs	r4, r5, r3
100057ea:	9b0c      	ldr	r3, [sp, #48]	@ 0x30
100057ec:	42a3      	cmp	r3, r4
100057ee:	d90a      	bls.n	10005806 <_out_rev+0x8a>
100057f0:	4646      	mov	r6, r8
100057f2:	4698      	mov	r8, r3
100057f4:	002a      	movs	r2, r5
100057f6:	464b      	mov	r3, r9
100057f8:	0031      	movs	r1, r6
100057fa:	2020      	movs	r0, #32
100057fc:	3401      	adds	r4, #1
100057fe:	47b8      	blx	r7
10005800:	3501      	adds	r5, #1
10005802:	4544      	cmp	r4, r8
10005804:	d3f6      	bcc.n	100057f4 <_out_rev+0x78>
10005806:	0028      	movs	r0, r5
10005808:	bcf0      	pop	{r4, r5, r6, r7}
1000580a:	46bb      	mov	fp, r7
1000580c:	46b2      	mov	sl, r6
1000580e:	46a9      	mov	r9, r5
10005810:	46a0      	mov	r8, r4
10005812:	bdf8      	pop	{r3, r4, r5, r6, r7, pc}
10005814:	0016      	movs	r6, r2
10005816:	0015      	movs	r5, r2
10005818:	2c00      	cmp	r4, #0
1000581a:	d1d3      	bne.n	100057c4 <_out_rev+0x48>
1000581c:	e7e0      	b.n	100057e0 <_out_rev+0x64>
1000581e:	0016      	movs	r6, r2
10005820:	0015      	movs	r5, r2
10005822:	2c00      	cmp	r4, #0
10005824:	d1ce      	bne.n	100057c4 <_out_rev+0x48>
10005826:	e7ee      	b.n	10005806 <_out_rev+0x8a>

10005828 <_ntoa_format>:
10005828:	b5f0      	push	{r4, r5, r6, r7, lr}
1000582a:	4645      	mov	r5, r8
1000582c:	46de      	mov	lr, fp
1000582e:	4657      	mov	r7, sl
10005830:	464e      	mov	r6, r9
10005832:	b5e0      	push	{r5, r6, r7, lr}
10005834:	b085      	sub	sp, #20
10005836:	469c      	mov	ip, r3
10005838:	ab10      	add	r3, sp, #64	@ 0x40
1000583a:	781b      	ldrb	r3, [r3, #0]
1000583c:	9f14      	ldr	r7, [sp, #80]	@ 0x50
1000583e:	4693      	mov	fp, r2
10005840:	4698      	mov	r8, r3
10005842:	9c0f      	ldr	r4, [sp, #60]	@ 0x3c
10005844:	9e12      	ldr	r6, [sp, #72]	@ 0x48
10005846:	9d13      	ldr	r5, [sp, #76]	@ 0x4c
10005848:	07bb      	lsls	r3, r7, #30
1000584a:	d44c      	bmi.n	100058e6 <_ntoa_format+0xbe>
1000584c:	2d00      	cmp	r5, #0
1000584e:	d142      	bne.n	100058d6 <_ntoa_format+0xae>
10005850:	42b4      	cmp	r4, r6
10005852:	d248      	bcs.n	100058e6 <_ntoa_format+0xbe>
10005854:	2301      	movs	r3, #1
10005856:	403b      	ands	r3, r7
10005858:	4699      	mov	r9, r3
1000585a:	9b0e      	ldr	r3, [sp, #56]	@ 0x38
1000585c:	3b01      	subs	r3, #1
1000585e:	469a      	mov	sl, r3
10005860:	2330      	movs	r3, #48	@ 0x30
10005862:	e004      	b.n	1000586e <_ntoa_format+0x46>
10005864:	4652      	mov	r2, sl
10005866:	3401      	adds	r4, #1
10005868:	5513      	strb	r3, [r2, r4]
1000586a:	42a6      	cmp	r6, r4
1000586c:	d901      	bls.n	10005872 <_ntoa_format+0x4a>
1000586e:	2c20      	cmp	r4, #32
10005870:	d1f8      	bne.n	10005864 <_ntoa_format+0x3c>
10005872:	464b      	mov	r3, r9
10005874:	2b00      	cmp	r3, #0
10005876:	d100      	bne.n	1000587a <_ntoa_format+0x52>
10005878:	e083      	b.n	10005982 <_ntoa_format+0x15a>
1000587a:	9b0e      	ldr	r3, [sp, #56]	@ 0x38
1000587c:	3b01      	subs	r3, #1
1000587e:	4699      	mov	r9, r3
10005880:	2330      	movs	r3, #48	@ 0x30
10005882:	42a5      	cmp	r5, r4
10005884:	d805      	bhi.n	10005892 <_ntoa_format+0x6a>
10005886:	e02e      	b.n	100058e6 <_ntoa_format+0xbe>
10005888:	464a      	mov	r2, r9
1000588a:	3401      	adds	r4, #1
1000588c:	5513      	strb	r3, [r2, r4]
1000588e:	42ac      	cmp	r4, r5
10005890:	d029      	beq.n	100058e6 <_ntoa_format+0xbe>
10005892:	2c20      	cmp	r4, #32
10005894:	d1f8      	bne.n	10005888 <_ntoa_format+0x60>
10005896:	06fb      	lsls	r3, r7, #27
10005898:	d50c      	bpl.n	100058b4 <_ntoa_format+0x8c>
1000589a:	057b      	lsls	r3, r7, #21
1000589c:	d454      	bmi.n	10005948 <_ntoa_format+0x120>
1000589e:	42a6      	cmp	r6, r4
100058a0:	d063      	beq.n	1000596a <_ntoa_format+0x142>
100058a2:	42a5      	cmp	r5, r4
100058a4:	d061      	beq.n	1000596a <_ntoa_format+0x142>
100058a6:	9b11      	ldr	r3, [sp, #68]	@ 0x44
100058a8:	2b10      	cmp	r3, #16
100058aa:	d050      	beq.n	1000594e <_ntoa_format+0x126>
100058ac:	2b02      	cmp	r3, #2
100058ae:	d057      	beq.n	10005960 <_ntoa_format+0x138>
100058b0:	2c20      	cmp	r4, #32
100058b2:	d132      	bne.n	1000591a <_ntoa_format+0xf2>
100058b4:	2320      	movs	r3, #32
100058b6:	9301      	str	r3, [sp, #4]
100058b8:	9b0e      	ldr	r3, [sp, #56]	@ 0x38
100058ba:	465a      	mov	r2, fp
100058bc:	9300      	str	r3, [sp, #0]
100058be:	9703      	str	r7, [sp, #12]
100058c0:	4663      	mov	r3, ip
100058c2:	9502      	str	r5, [sp, #8]
100058c4:	f7ff ff5a 	bl	1000577c <_out_rev>
100058c8:	b005      	add	sp, #20
100058ca:	bcf0      	pop	{r4, r5, r6, r7}
100058cc:	46bb      	mov	fp, r7
100058ce:	46b2      	mov	sl, r6
100058d0:	46a9      	mov	r9, r5
100058d2:	46a0      	mov	r8, r4
100058d4:	bdf0      	pop	{r4, r5, r6, r7, pc}
100058d6:	2301      	movs	r3, #1
100058d8:	403b      	ands	r3, r7
100058da:	4699      	mov	r9, r3
100058dc:	2301      	movs	r3, #1
100058de:	423b      	tst	r3, r7
100058e0:	d12a      	bne.n	10005938 <_ntoa_format+0x110>
100058e2:	42b4      	cmp	r4, r6
100058e4:	d3b9      	bcc.n	1000585a <_ntoa_format+0x32>
100058e6:	06fb      	lsls	r3, r7, #27
100058e8:	d51c      	bpl.n	10005924 <_ntoa_format+0xfc>
100058ea:	057b      	lsls	r3, r7, #21
100058ec:	d4db      	bmi.n	100058a6 <_ntoa_format+0x7e>
100058ee:	2c00      	cmp	r4, #0
100058f0:	d1d5      	bne.n	1000589e <_ntoa_format+0x76>
100058f2:	9b11      	ldr	r3, [sp, #68]	@ 0x44
100058f4:	2b10      	cmp	r3, #16
100058f6:	d05b      	beq.n	100059b0 <_ntoa_format+0x188>
100058f8:	9b11      	ldr	r3, [sp, #68]	@ 0x44
100058fa:	2b02      	cmp	r3, #2
100058fc:	d06b      	beq.n	100059d6 <_ntoa_format+0x1ae>
100058fe:	2330      	movs	r3, #48	@ 0x30
10005900:	2401      	movs	r4, #1
10005902:	9a0e      	ldr	r2, [sp, #56]	@ 0x38
10005904:	7013      	strb	r3, [r2, #0]
10005906:	4643      	mov	r3, r8
10005908:	2b00      	cmp	r3, #0
1000590a:	d110      	bne.n	1000592e <_ntoa_format+0x106>
1000590c:	077b      	lsls	r3, r7, #29
1000590e:	d53e      	bpl.n	1000598e <_ntoa_format+0x166>
10005910:	262b      	movs	r6, #43	@ 0x2b
10005912:	9a0e      	ldr	r2, [sp, #56]	@ 0x38
10005914:	1c63      	adds	r3, r4, #1
10005916:	5516      	strb	r6, [r2, r4]
10005918:	e7cd      	b.n	100058b6 <_ntoa_format+0x8e>
1000591a:	0023      	movs	r3, r4
1000591c:	3401      	adds	r4, #1
1000591e:	2630      	movs	r6, #48	@ 0x30
10005920:	9a0e      	ldr	r2, [sp, #56]	@ 0x38
10005922:	54d6      	strb	r6, [r2, r3]
10005924:	2c20      	cmp	r4, #32
10005926:	d0c5      	beq.n	100058b4 <_ntoa_format+0x8c>
10005928:	4643      	mov	r3, r8
1000592a:	2b00      	cmp	r3, #0
1000592c:	d0ee      	beq.n	1000590c <_ntoa_format+0xe4>
1000592e:	262d      	movs	r6, #45	@ 0x2d
10005930:	9a0e      	ldr	r2, [sp, #56]	@ 0x38
10005932:	1c63      	adds	r3, r4, #1
10005934:	5516      	strb	r6, [r2, r4]
10005936:	e7be      	b.n	100058b6 <_ntoa_format+0x8e>
10005938:	4643      	mov	r3, r8
1000593a:	2b00      	cmp	r3, #0
1000593c:	d02f      	beq.n	1000599e <_ntoa_format+0x176>
1000593e:	3d01      	subs	r5, #1
10005940:	42b4      	cmp	r4, r6
10005942:	d200      	bcs.n	10005946 <_ntoa_format+0x11e>
10005944:	e789      	b.n	1000585a <_ntoa_format+0x32>
10005946:	e798      	b.n	1000587a <_ntoa_format+0x52>
10005948:	9b11      	ldr	r3, [sp, #68]	@ 0x44
1000594a:	2b10      	cmp	r3, #16
1000594c:	d1b2      	bne.n	100058b4 <_ntoa_format+0x8c>
1000594e:	06bb      	lsls	r3, r7, #26
10005950:	d537      	bpl.n	100059c2 <_ntoa_format+0x19a>
10005952:	2c20      	cmp	r4, #32
10005954:	d0ae      	beq.n	100058b4 <_ntoa_format+0x8c>
10005956:	2358      	movs	r3, #88	@ 0x58
10005958:	9a0e      	ldr	r2, [sp, #56]	@ 0x38
1000595a:	5513      	strb	r3, [r2, r4]
1000595c:	3401      	adds	r4, #1
1000595e:	e7a7      	b.n	100058b0 <_ntoa_format+0x88>
10005960:	2c20      	cmp	r4, #32
10005962:	d0a7      	beq.n	100058b4 <_ntoa_format+0x8c>
10005964:	0023      	movs	r3, r4
10005966:	3401      	adds	r4, #1
10005968:	e007      	b.n	1000597a <_ntoa_format+0x152>
1000596a:	1e63      	subs	r3, r4, #1
1000596c:	2c01      	cmp	r4, #1
1000596e:	d0c0      	beq.n	100058f2 <_ntoa_format+0xca>
10005970:	9a11      	ldr	r2, [sp, #68]	@ 0x44
10005972:	2a10      	cmp	r2, #16
10005974:	d031      	beq.n	100059da <_ntoa_format+0x1b2>
10005976:	2a02      	cmp	r2, #2
10005978:	d1d1      	bne.n	1000591e <_ntoa_format+0xf6>
1000597a:	2662      	movs	r6, #98	@ 0x62
1000597c:	9a0e      	ldr	r2, [sp, #56]	@ 0x38
1000597e:	54d6      	strb	r6, [r2, r3]
10005980:	e796      	b.n	100058b0 <_ntoa_format+0x88>
10005982:	06fb      	lsls	r3, r7, #27
10005984:	d5ce      	bpl.n	10005924 <_ntoa_format+0xfc>
10005986:	057b      	lsls	r3, r7, #21
10005988:	d400      	bmi.n	1000598c <_ntoa_format+0x164>
1000598a:	e788      	b.n	1000589e <_ntoa_format+0x76>
1000598c:	e78b      	b.n	100058a6 <_ntoa_format+0x7e>
1000598e:	0023      	movs	r3, r4
10005990:	073e      	lsls	r6, r7, #28
10005992:	d590      	bpl.n	100058b6 <_ntoa_format+0x8e>
10005994:	2620      	movs	r6, #32
10005996:	9a0e      	ldr	r2, [sp, #56]	@ 0x38
10005998:	3301      	adds	r3, #1
1000599a:	5516      	strb	r6, [r2, r4]
1000599c:	e78b      	b.n	100058b6 <_ntoa_format+0x8e>
1000599e:	230c      	movs	r3, #12
100059a0:	403b      	ands	r3, r7
100059a2:	1e5a      	subs	r2, r3, #1
100059a4:	4193      	sbcs	r3, r2
100059a6:	1aed      	subs	r5, r5, r3
100059a8:	42b4      	cmp	r4, r6
100059aa:	d200      	bcs.n	100059ae <_ntoa_format+0x186>
100059ac:	e755      	b.n	1000585a <_ntoa_format+0x32>
100059ae:	e764      	b.n	1000587a <_ntoa_format+0x52>
100059b0:	06bb      	lsls	r3, r7, #26
100059b2:	d40e      	bmi.n	100059d2 <_ntoa_format+0x1aa>
100059b4:	2378      	movs	r3, #120	@ 0x78
100059b6:	9a0e      	ldr	r2, [sp, #56]	@ 0x38
100059b8:	2402      	movs	r4, #2
100059ba:	7013      	strb	r3, [r2, #0]
100059bc:	2330      	movs	r3, #48	@ 0x30
100059be:	7053      	strb	r3, [r2, #1]
100059c0:	e7a1      	b.n	10005906 <_ntoa_format+0xde>
100059c2:	2c20      	cmp	r4, #32
100059c4:	d100      	bne.n	100059c8 <_ntoa_format+0x1a0>
100059c6:	e775      	b.n	100058b4 <_ntoa_format+0x8c>
100059c8:	2378      	movs	r3, #120	@ 0x78
100059ca:	9a0e      	ldr	r2, [sp, #56]	@ 0x38
100059cc:	5513      	strb	r3, [r2, r4]
100059ce:	3401      	adds	r4, #1
100059d0:	e76e      	b.n	100058b0 <_ntoa_format+0x88>
100059d2:	2358      	movs	r3, #88	@ 0x58
100059d4:	e7ef      	b.n	100059b6 <_ntoa_format+0x18e>
100059d6:	3360      	adds	r3, #96	@ 0x60
100059d8:	e7ed      	b.n	100059b6 <_ntoa_format+0x18e>
100059da:	9a0e      	ldr	r2, [sp, #56]	@ 0x38
100059dc:	1ea6      	subs	r6, r4, #2
100059de:	4691      	mov	r9, r2
100059e0:	444e      	add	r6, r9
100059e2:	06ba      	lsls	r2, r7, #26
100059e4:	d502      	bpl.n	100059ec <_ntoa_format+0x1c4>
100059e6:	2258      	movs	r2, #88	@ 0x58
100059e8:	7032      	strb	r2, [r6, #0]
100059ea:	e798      	b.n	1000591e <_ntoa_format+0xf6>
100059ec:	2278      	movs	r2, #120	@ 0x78
100059ee:	7032      	strb	r2, [r6, #0]
100059f0:	e795      	b.n	1000591e <_ntoa_format+0xf6>
100059f2:	46c0      	nop			@ (mov r8, r8)

100059f4 <_out_char>:
100059f4:	b510      	push	{r4, lr}
100059f6:	2800      	cmp	r0, #0
100059f8:	d100      	bne.n	100059fc <_out_char+0x8>
100059fa:	bd10      	pop	{r4, pc}
100059fc:	f001 fcac 	bl	10007358 <__wrap_putchar>
10005a00:	e7fb      	b.n	100059fa <_out_char+0x6>
10005a02:	46c0      	nop			@ (mov r8, r8)

10005a04 <_out_fct>:
10005a04:	000b      	movs	r3, r1
10005a06:	b510      	push	{r4, lr}
10005a08:	2800      	cmp	r0, #0
10005a0a:	d002      	beq.n	10005a12 <_out_fct+0xe>
10005a0c:	6849      	ldr	r1, [r1, #4]
10005a0e:	681b      	ldr	r3, [r3, #0]
10005a10:	4798      	blx	r3
10005a12:	bd10      	pop	{r4, pc}

10005a14 <_ftoa>:
10005a14:	b5f0      	push	{r4, r5, r6, r7, lr}
10005a16:	4657      	mov	r7, sl
10005a18:	46de      	mov	lr, fp
10005a1a:	464e      	mov	r6, r9
10005a1c:	4645      	mov	r5, r8
10005a1e:	b5e0      	push	{r5, r6, r7, lr}
10005a20:	b095      	sub	sp, #84	@ 0x54
10005a22:	4683      	mov	fp, r0
10005a24:	000f      	movs	r7, r1
10005a26:	4692      	mov	sl, r2
10005a28:	4698      	mov	r8, r3
10005a2a:	9a1e      	ldr	r2, [sp, #120]	@ 0x78
10005a2c:	9b1f      	ldr	r3, [sp, #124]	@ 0x7c
10005a2e:	0010      	movs	r0, r2
10005a30:	0019      	movs	r1, r3
10005a32:	9e20      	ldr	r6, [sp, #128]	@ 0x80
10005a34:	f7ff fd03 	bl	1000543e <__wrap___aeabi_dcmpun>
10005a38:	2800      	cmp	r0, #0
10005a3a:	d000      	beq.n	10005a3e <_ftoa+0x2a>
10005a3c:	e1ea      	b.n	10005e14 <_ftoa+0x400>
10005a3e:	981e      	ldr	r0, [sp, #120]	@ 0x78
10005a40:	991f      	ldr	r1, [sp, #124]	@ 0x7c
10005a42:	2201      	movs	r2, #1
10005a44:	4bc5      	ldr	r3, [pc, #788]	@ (10005d5c <_ftoa+0x348>)
10005a46:	4252      	negs	r2, r2
10005a48:	f7ff fcde 	bl	10005408 <__wrap___aeabi_dcmplt>
10005a4c:	2800      	cmp	r0, #0
10005a4e:	d000      	beq.n	10005a52 <_ftoa+0x3e>
10005a50:	e114      	b.n	10005c7c <_ftoa+0x268>
10005a52:	981e      	ldr	r0, [sp, #120]	@ 0x78
10005a54:	991f      	ldr	r1, [sp, #124]	@ 0x7c
10005a56:	2201      	movs	r2, #1
10005a58:	4bc1      	ldr	r3, [pc, #772]	@ (10005d60 <_ftoa+0x34c>)
10005a5a:	4252      	negs	r2, r2
10005a5c:	f7ff fcea 	bl	10005434 <__wrap___aeabi_dcmpgt>
10005a60:	2800      	cmp	r0, #0
10005a62:	d000      	beq.n	10005a66 <_ftoa+0x52>
10005a64:	e0e9      	b.n	10005c3a <_ftoa+0x226>
10005a66:	981e      	ldr	r0, [sp, #120]	@ 0x78
10005a68:	991f      	ldr	r1, [sp, #124]	@ 0x7c
10005a6a:	2200      	movs	r2, #0
10005a6c:	4bbd      	ldr	r3, [pc, #756]	@ (10005d64 <_ftoa+0x350>)
10005a6e:	f7ff fce1 	bl	10005434 <__wrap___aeabi_dcmpgt>
10005a72:	2800      	cmp	r0, #0
10005a74:	d000      	beq.n	10005a78 <_ftoa+0x64>
10005a76:	e0c8      	b.n	10005c0a <_ftoa+0x1f6>
10005a78:	981e      	ldr	r0, [sp, #120]	@ 0x78
10005a7a:	991f      	ldr	r1, [sp, #124]	@ 0x7c
10005a7c:	2200      	movs	r2, #0
10005a7e:	4bba      	ldr	r3, [pc, #744]	@ (10005d68 <_ftoa+0x354>)
10005a80:	f7ff fcc2 	bl	10005408 <__wrap___aeabi_dcmplt>
10005a84:	2800      	cmp	r0, #0
10005a86:	d000      	beq.n	10005a8a <_ftoa+0x76>
10005a88:	e0bf      	b.n	10005c0a <_ftoa+0x1f6>
10005a8a:	981e      	ldr	r0, [sp, #120]	@ 0x78
10005a8c:	991f      	ldr	r1, [sp, #124]	@ 0x7c
10005a8e:	2200      	movs	r2, #0
10005a90:	2300      	movs	r3, #0
10005a92:	f7ff fcb9 	bl	10005408 <__wrap___aeabi_dcmplt>
10005a96:	2800      	cmp	r0, #0
10005a98:	d000      	beq.n	10005a9c <_ftoa+0x88>
10005a9a:	e0e4      	b.n	10005c66 <_ftoa+0x252>
10005a9c:	2300      	movs	r3, #0
10005a9e:	930b      	str	r3, [sp, #44]	@ 0x2c
10005aa0:	9b22      	ldr	r3, [sp, #136]	@ 0x88
10005aa2:	055b      	lsls	r3, r3, #21
10005aa4:	d400      	bmi.n	10005aa8 <_ftoa+0x94>
10005aa6:	2606      	movs	r6, #6
10005aa8:	2400      	movs	r4, #0
10005aaa:	2330      	movs	r3, #48	@ 0x30
10005aac:	e007      	b.n	10005abe <_ftoa+0xaa>
10005aae:	2117      	movs	r1, #23
10005ab0:	aa06      	add	r2, sp, #24
10005ab2:	3401      	adds	r4, #1
10005ab4:	1852      	adds	r2, r2, r1
10005ab6:	5513      	strb	r3, [r2, r4]
10005ab8:	3e01      	subs	r6, #1
10005aba:	2c20      	cmp	r4, #32
10005abc:	d001      	beq.n	10005ac2 <_ftoa+0xae>
10005abe:	2e09      	cmp	r6, #9
10005ac0:	d8f5      	bhi.n	10005aae <_ftoa+0x9a>
10005ac2:	981e      	ldr	r0, [sp, #120]	@ 0x78
10005ac4:	991f      	ldr	r1, [sp, #124]	@ 0x7c
10005ac6:	f7ff fce3 	bl	10005490 <__wrap___aeabi_d2iz>
10005aca:	4ba8      	ldr	r3, [pc, #672]	@ (10005d6c <_ftoa+0x358>)
10005acc:	00f2      	lsls	r2, r6, #3
10005ace:	189b      	adds	r3, r3, r2
10005ad0:	681a      	ldr	r2, [r3, #0]
10005ad2:	685b      	ldr	r3, [r3, #4]
10005ad4:	0005      	movs	r5, r0
10005ad6:	9208      	str	r2, [sp, #32]
10005ad8:	9309      	str	r3, [sp, #36]	@ 0x24
10005ada:	f7ff fcc1 	bl	10005460 <__wrap___aeabi_i2d>
10005ade:	0002      	movs	r2, r0
10005ae0:	000b      	movs	r3, r1
10005ae2:	981e      	ldr	r0, [sp, #120]	@ 0x78
10005ae4:	991f      	ldr	r1, [sp, #124]	@ 0x7c
10005ae6:	f7ff fc2c 	bl	10005342 <__wrap___aeabi_dsub>
10005aea:	9a08      	ldr	r2, [sp, #32]
10005aec:	9b09      	ldr	r3, [sp, #36]	@ 0x24
10005aee:	f7ff fc4c 	bl	1000538a <__wrap___aeabi_dmul>
10005af2:	9006      	str	r0, [sp, #24]
10005af4:	9107      	str	r1, [sp, #28]
10005af6:	f7ff fcef 	bl	100054d8 <__wrap___aeabi_d2uiz>
10005afa:	4681      	mov	r9, r0
10005afc:	f7ff fcac 	bl	10005458 <__wrap___aeabi_ui2d>
10005b00:	0002      	movs	r2, r0
10005b02:	000b      	movs	r3, r1
10005b04:	9806      	ldr	r0, [sp, #24]
10005b06:	9907      	ldr	r1, [sp, #28]
10005b08:	f7ff fc1b 	bl	10005342 <__wrap___aeabi_dsub>
10005b0c:	2200      	movs	r2, #0
10005b0e:	4b98      	ldr	r3, [pc, #608]	@ (10005d70 <_ftoa+0x35c>)
10005b10:	9006      	str	r0, [sp, #24]
10005b12:	9107      	str	r1, [sp, #28]
10005b14:	f7ff fc8e 	bl	10005434 <__wrap___aeabi_dcmpgt>
10005b18:	2800      	cmp	r0, #0
10005b1a:	d100      	bne.n	10005b1e <_ftoa+0x10a>
10005b1c:	e10d      	b.n	10005d3a <_ftoa+0x326>
10005b1e:	2301      	movs	r3, #1
10005b20:	469c      	mov	ip, r3
10005b22:	44e1      	add	r9, ip
10005b24:	4648      	mov	r0, r9
10005b26:	f7ff fc97 	bl	10005458 <__wrap___aeabi_ui2d>
10005b2a:	0002      	movs	r2, r0
10005b2c:	000b      	movs	r3, r1
10005b2e:	9808      	ldr	r0, [sp, #32]
10005b30:	9909      	ldr	r1, [sp, #36]	@ 0x24
10005b32:	f7ff fc6f 	bl	10005414 <__wrap___aeabi_dcmple>
10005b36:	2800      	cmp	r0, #0
10005b38:	d002      	beq.n	10005b40 <_ftoa+0x12c>
10005b3a:	2300      	movs	r3, #0
10005b3c:	4699      	mov	r9, r3
10005b3e:	3501      	adds	r5, #1
10005b40:	2e00      	cmp	r6, #0
10005b42:	d100      	bne.n	10005b46 <_ftoa+0x132>
10005b44:	e0d9      	b.n	10005cfa <_ftoa+0x2e6>
10005b46:	9506      	str	r5, [sp, #24]
10005b48:	464d      	mov	r5, r9
10005b4a:	46b9      	mov	r9, r7
10005b4c:	e014      	b.n	10005b78 <_ftoa+0x164>
10005b4e:	aa06      	add	r2, sp, #24
10005b50:	4694      	mov	ip, r2
10005b52:	2317      	movs	r3, #23
10005b54:	210a      	movs	r1, #10
10005b56:	4463      	add	r3, ip
10005b58:	0028      	movs	r0, r5
10005b5a:	3401      	adds	r4, #1
10005b5c:	191f      	adds	r7, r3, r4
10005b5e:	f7ff f9b5 	bl	10004ecc <__wrap___aeabi_uidiv>
10005b62:	3130      	adds	r1, #48	@ 0x30
10005b64:	7039      	strb	r1, [r7, #0]
10005b66:	0028      	movs	r0, r5
10005b68:	210a      	movs	r1, #10
10005b6a:	3e01      	subs	r6, #1
10005b6c:	f7ff f9ae 	bl	10004ecc <__wrap___aeabi_uidiv>
10005b70:	2d09      	cmp	r5, #9
10005b72:	d800      	bhi.n	10005b76 <_ftoa+0x162>
10005b74:	e117      	b.n	10005da6 <_ftoa+0x392>
10005b76:	0005      	movs	r5, r0
10005b78:	2c20      	cmp	r4, #32
10005b7a:	d1e8      	bne.n	10005b4e <_ftoa+0x13a>
10005b7c:	464f      	mov	r7, r9
10005b7e:	9d06      	ldr	r5, [sp, #24]
10005b80:	2420      	movs	r4, #32
10005b82:	ae0c      	add	r6, sp, #48	@ 0x30
10005b84:	aa06      	add	r2, sp, #24
10005b86:	2317      	movs	r3, #23
10005b88:	4694      	mov	ip, r2
10005b8a:	4463      	add	r3, ip
10005b8c:	4699      	mov	r9, r3
10005b8e:	465b      	mov	r3, fp
10005b90:	46b3      	mov	fp, r6
10005b92:	9306      	str	r3, [sp, #24]
10005b94:	e00f      	b.n	10005bb6 <_ftoa+0x1a2>
10005b96:	464b      	mov	r3, r9
10005b98:	0028      	movs	r0, r5
10005b9a:	210a      	movs	r1, #10
10005b9c:	3401      	adds	r4, #1
10005b9e:	18e6      	adds	r6, r4, r3
10005ba0:	f7ff f96c 	bl	10004e7c <__wrap___aeabi_idiv>
10005ba4:	3130      	adds	r1, #48	@ 0x30
10005ba6:	0028      	movs	r0, r5
10005ba8:	7031      	strb	r1, [r6, #0]
10005baa:	210a      	movs	r1, #10
10005bac:	f7ff f966 	bl	10004e7c <__wrap___aeabi_idiv>
10005bb0:	1e05      	subs	r5, r0, #0
10005bb2:	d100      	bne.n	10005bb6 <_ftoa+0x1a2>
10005bb4:	e0e4      	b.n	10005d80 <_ftoa+0x36c>
10005bb6:	2c20      	cmp	r4, #32
10005bb8:	d1ed      	bne.n	10005b96 <_ftoa+0x182>
10005bba:	9b06      	ldr	r3, [sp, #24]
10005bbc:	465e      	mov	r6, fp
10005bbe:	469b      	mov	fp, r3
10005bc0:	2303      	movs	r3, #3
10005bc2:	9a22      	ldr	r2, [sp, #136]	@ 0x88
10005bc4:	4013      	ands	r3, r2
10005bc6:	2b01      	cmp	r3, #1
10005bc8:	d118      	bne.n	10005bfc <_ftoa+0x1e8>
10005bca:	9b21      	ldr	r3, [sp, #132]	@ 0x84
10005bcc:	2b00      	cmp	r3, #0
10005bce:	d015      	beq.n	10005bfc <_ftoa+0x1e8>
10005bd0:	9b0b      	ldr	r3, [sp, #44]	@ 0x2c
10005bd2:	2b00      	cmp	r3, #0
10005bd4:	d100      	bne.n	10005bd8 <_ftoa+0x1c4>
10005bd6:	e0fd      	b.n	10005dd4 <_ftoa+0x3c0>
10005bd8:	9b21      	ldr	r3, [sp, #132]	@ 0x84
10005bda:	3b01      	subs	r3, #1
10005bdc:	9321      	str	r3, [sp, #132]	@ 0x84
10005bde:	2b20      	cmp	r3, #32
10005be0:	d90c      	bls.n	10005bfc <_ftoa+0x1e8>
10005be2:	2330      	movs	r3, #48	@ 0x30
10005be4:	9a21      	ldr	r2, [sp, #132]	@ 0x84
10005be6:	e007      	b.n	10005bf8 <_ftoa+0x1e4>
10005be8:	2017      	movs	r0, #23
10005bea:	a906      	add	r1, sp, #24
10005bec:	3401      	adds	r4, #1
10005bee:	1809      	adds	r1, r1, r0
10005bf0:	550b      	strb	r3, [r1, r4]
10005bf2:	4294      	cmp	r4, r2
10005bf4:	d300      	bcc.n	10005bf8 <_ftoa+0x1e4>
10005bf6:	e0cc      	b.n	10005d92 <_ftoa+0x37e>
10005bf8:	2c20      	cmp	r4, #32
10005bfa:	d1f5      	bne.n	10005be8 <_ftoa+0x1d4>
10005bfc:	9b22      	ldr	r3, [sp, #136]	@ 0x88
10005bfe:	9401      	str	r4, [sp, #4]
10005c00:	9303      	str	r3, [sp, #12]
10005c02:	9b21      	ldr	r3, [sp, #132]	@ 0x84
10005c04:	9600      	str	r6, [sp, #0]
10005c06:	9302      	str	r3, [sp, #8]
10005c08:	e022      	b.n	10005c50 <_ftoa+0x23c>
10005c0a:	9b22      	ldr	r3, [sp, #136]	@ 0x88
10005c0c:	4652      	mov	r2, sl
10005c0e:	9304      	str	r3, [sp, #16]
10005c10:	9b21      	ldr	r3, [sp, #132]	@ 0x84
10005c12:	0039      	movs	r1, r7
10005c14:	9303      	str	r3, [sp, #12]
10005c16:	4658      	mov	r0, fp
10005c18:	9b1e      	ldr	r3, [sp, #120]	@ 0x78
10005c1a:	9c1f      	ldr	r4, [sp, #124]	@ 0x7c
10005c1c:	9602      	str	r6, [sp, #8]
10005c1e:	9300      	str	r3, [sp, #0]
10005c20:	9401      	str	r4, [sp, #4]
10005c22:	4643      	mov	r3, r8
10005c24:	f000 f94a 	bl	10005ebc <_etoa>
10005c28:	0004      	movs	r4, r0
10005c2a:	0020      	movs	r0, r4
10005c2c:	b015      	add	sp, #84	@ 0x54
10005c2e:	bcf0      	pop	{r4, r5, r6, r7}
10005c30:	46bb      	mov	fp, r7
10005c32:	46b2      	mov	sl, r6
10005c34:	46a9      	mov	r9, r5
10005c36:	46a0      	mov	r8, r4
10005c38:	bdf0      	pop	{r4, r5, r6, r7, pc}
10005c3a:	9b22      	ldr	r3, [sp, #136]	@ 0x88
10005c3c:	075b      	lsls	r3, r3, #29
10005c3e:	d40f      	bmi.n	10005c60 <_ftoa+0x24c>
10005c40:	2203      	movs	r2, #3
10005c42:	4b4c      	ldr	r3, [pc, #304]	@ (10005d74 <_ftoa+0x360>)
10005c44:	9922      	ldr	r1, [sp, #136]	@ 0x88
10005c46:	9201      	str	r2, [sp, #4]
10005c48:	9103      	str	r1, [sp, #12]
10005c4a:	9921      	ldr	r1, [sp, #132]	@ 0x84
10005c4c:	9300      	str	r3, [sp, #0]
10005c4e:	9102      	str	r1, [sp, #8]
10005c50:	4643      	mov	r3, r8
10005c52:	4652      	mov	r2, sl
10005c54:	0039      	movs	r1, r7
10005c56:	4658      	mov	r0, fp
10005c58:	f7ff fd90 	bl	1000577c <_out_rev>
10005c5c:	0004      	movs	r4, r0
10005c5e:	e7e4      	b.n	10005c2a <_ftoa+0x216>
10005c60:	2204      	movs	r2, #4
10005c62:	4b45      	ldr	r3, [pc, #276]	@ (10005d78 <_ftoa+0x364>)
10005c64:	e7ee      	b.n	10005c44 <_ftoa+0x230>
10005c66:	9a1e      	ldr	r2, [sp, #120]	@ 0x78
10005c68:	9b1f      	ldr	r3, [sp, #124]	@ 0x7c
10005c6a:	2000      	movs	r0, #0
10005c6c:	2100      	movs	r1, #0
10005c6e:	f7ff fb68 	bl	10005342 <__wrap___aeabi_dsub>
10005c72:	2301      	movs	r3, #1
10005c74:	901e      	str	r0, [sp, #120]	@ 0x78
10005c76:	911f      	str	r1, [sp, #124]	@ 0x7c
10005c78:	930b      	str	r3, [sp, #44]	@ 0x2c
10005c7a:	e711      	b.n	10005aa0 <_ftoa+0x8c>
10005c7c:	9b22      	ldr	r3, [sp, #136]	@ 0x88
10005c7e:	4654      	mov	r4, sl
10005c80:	079b      	lsls	r3, r3, #30
10005c82:	d111      	bne.n	10005ca8 <_ftoa+0x294>
10005c84:	9b21      	ldr	r3, [sp, #132]	@ 0x84
10005c86:	2b04      	cmp	r3, #4
10005c88:	d90e      	bls.n	10005ca8 <_ftoa+0x294>
10005c8a:	9b21      	ldr	r3, [sp, #132]	@ 0x84
10005c8c:	4655      	mov	r5, sl
10005c8e:	469c      	mov	ip, r3
10005c90:	465e      	mov	r6, fp
10005c92:	3c04      	subs	r4, #4
10005c94:	4464      	add	r4, ip
10005c96:	002a      	movs	r2, r5
10005c98:	4643      	mov	r3, r8
10005c9a:	3501      	adds	r5, #1
10005c9c:	0039      	movs	r1, r7
10005c9e:	2020      	movs	r0, #32
10005ca0:	47b0      	blx	r6
10005ca2:	42a5      	cmp	r5, r4
10005ca4:	d1f7      	bne.n	10005c96 <_ftoa+0x282>
10005ca6:	46b3      	mov	fp, r6
10005ca8:	4d34      	ldr	r5, [pc, #208]	@ (10005d7c <_ftoa+0x368>)
10005caa:	0026      	movs	r6, r4
10005cac:	1f2b      	subs	r3, r5, #4
10005cae:	4699      	mov	r9, r3
10005cb0:	465b      	mov	r3, fp
10005cb2:	46a3      	mov	fp, r4
10005cb4:	001c      	movs	r4, r3
10005cb6:	0032      	movs	r2, r6
10005cb8:	78e8      	ldrb	r0, [r5, #3]
10005cba:	4643      	mov	r3, r8
10005cbc:	0039      	movs	r1, r7
10005cbe:	3d01      	subs	r5, #1
10005cc0:	47a0      	blx	r4
10005cc2:	3601      	adds	r6, #1
10005cc4:	454d      	cmp	r5, r9
10005cc6:	d1f6      	bne.n	10005cb6 <_ftoa+0x2a2>
10005cc8:	0023      	movs	r3, r4
10005cca:	465c      	mov	r4, fp
10005ccc:	469b      	mov	fp, r3
10005cce:	9b22      	ldr	r3, [sp, #136]	@ 0x88
10005cd0:	3404      	adds	r4, #4
10005cd2:	079b      	lsls	r3, r3, #30
10005cd4:	d5a9      	bpl.n	10005c2a <_ftoa+0x216>
10005cd6:	4653      	mov	r3, sl
10005cd8:	9a21      	ldr	r2, [sp, #132]	@ 0x84
10005cda:	1ae3      	subs	r3, r4, r3
10005cdc:	429a      	cmp	r2, r3
10005cde:	d9a4      	bls.n	10005c2a <_ftoa+0x216>
10005ce0:	465e      	mov	r6, fp
10005ce2:	0015      	movs	r5, r2
10005ce4:	0022      	movs	r2, r4
10005ce6:	4643      	mov	r3, r8
10005ce8:	0039      	movs	r1, r7
10005cea:	2020      	movs	r0, #32
10005cec:	47b0      	blx	r6
10005cee:	4653      	mov	r3, sl
10005cf0:	3401      	adds	r4, #1
10005cf2:	1ae3      	subs	r3, r4, r3
10005cf4:	429d      	cmp	r5, r3
10005cf6:	d8f5      	bhi.n	10005ce4 <_ftoa+0x2d0>
10005cf8:	e797      	b.n	10005c2a <_ftoa+0x216>
10005cfa:	0028      	movs	r0, r5
10005cfc:	f7ff fbb0 	bl	10005460 <__wrap___aeabi_i2d>
10005d00:	0002      	movs	r2, r0
10005d02:	000b      	movs	r3, r1
10005d04:	981e      	ldr	r0, [sp, #120]	@ 0x78
10005d06:	991f      	ldr	r1, [sp, #124]	@ 0x7c
10005d08:	f7ff fb1b 	bl	10005342 <__wrap___aeabi_dsub>
10005d0c:	2200      	movs	r2, #0
10005d0e:	4b18      	ldr	r3, [pc, #96]	@ (10005d70 <_ftoa+0x35c>)
10005d10:	9006      	str	r0, [sp, #24]
10005d12:	9107      	str	r1, [sp, #28]
10005d14:	f7ff fb78 	bl	10005408 <__wrap___aeabi_dcmplt>
10005d18:	ae0c      	add	r6, sp, #48	@ 0x30
10005d1a:	2800      	cmp	r0, #0
10005d1c:	d000      	beq.n	10005d20 <_ftoa+0x30c>
10005d1e:	e731      	b.n	10005b84 <_ftoa+0x170>
10005d20:	9806      	ldr	r0, [sp, #24]
10005d22:	9907      	ldr	r1, [sp, #28]
10005d24:	2200      	movs	r2, #0
10005d26:	4b12      	ldr	r3, [pc, #72]	@ (10005d70 <_ftoa+0x35c>)
10005d28:	f7ff fb84 	bl	10005434 <__wrap___aeabi_dcmpgt>
10005d2c:	2800      	cmp	r0, #0
10005d2e:	d000      	beq.n	10005d32 <_ftoa+0x31e>
10005d30:	e728      	b.n	10005b84 <_ftoa+0x170>
10005d32:	2301      	movs	r3, #1
10005d34:	3501      	adds	r5, #1
10005d36:	439d      	bics	r5, r3
10005d38:	e724      	b.n	10005b84 <_ftoa+0x170>
10005d3a:	2200      	movs	r2, #0
10005d3c:	9806      	ldr	r0, [sp, #24]
10005d3e:	9907      	ldr	r1, [sp, #28]
10005d40:	4b0b      	ldr	r3, [pc, #44]	@ (10005d70 <_ftoa+0x35c>)
10005d42:	f7ff fb61 	bl	10005408 <__wrap___aeabi_dcmplt>
10005d46:	2800      	cmp	r0, #0
10005d48:	d000      	beq.n	10005d4c <_ftoa+0x338>
10005d4a:	e6f9      	b.n	10005b40 <_ftoa+0x12c>
10005d4c:	464b      	mov	r3, r9
10005d4e:	2b00      	cmp	r3, #0
10005d50:	d15c      	bne.n	10005e0c <_ftoa+0x3f8>
10005d52:	2301      	movs	r3, #1
10005d54:	469c      	mov	ip, r3
10005d56:	44e1      	add	r9, ip
10005d58:	e6f2      	b.n	10005b40 <_ftoa+0x12c>
10005d5a:	46c0      	nop			@ (mov r8, r8)
10005d5c:	ffefffff 	.word	0xffefffff
10005d60:	7fefffff 	.word	0x7fefffff
10005d64:	41cdcd65 	.word	0x41cdcd65
10005d68:	c1cdcd65 	.word	0xc1cdcd65
10005d6c:	1000c228 	.word	0x1000c228
10005d70:	3fe00000 	.word	0x3fe00000
10005d74:	1000b688 	.word	0x1000b688
10005d78:	1000b680 	.word	0x1000b680
10005d7c:	1000b690 	.word	0x1000b690
10005d80:	9b06      	ldr	r3, [sp, #24]
10005d82:	465e      	mov	r6, fp
10005d84:	469b      	mov	fp, r3
10005d86:	2303      	movs	r3, #3
10005d88:	9a22      	ldr	r2, [sp, #136]	@ 0x88
10005d8a:	4013      	ands	r3, r2
10005d8c:	2b01      	cmp	r3, #1
10005d8e:	d100      	bne.n	10005d92 <_ftoa+0x37e>
10005d90:	e081      	b.n	10005e96 <_ftoa+0x482>
10005d92:	2c20      	cmp	r4, #32
10005d94:	d100      	bne.n	10005d98 <_ftoa+0x384>
10005d96:	e731      	b.n	10005bfc <_ftoa+0x1e8>
10005d98:	9b0b      	ldr	r3, [sp, #44]	@ 0x2c
10005d9a:	2b00      	cmp	r3, #0
10005d9c:	d027      	beq.n	10005dee <_ftoa+0x3da>
10005d9e:	232d      	movs	r3, #45	@ 0x2d
10005da0:	5533      	strb	r3, [r6, r4]
10005da2:	3401      	adds	r4, #1
10005da4:	e72a      	b.n	10005bfc <_ftoa+0x1e8>
10005da6:	464f      	mov	r7, r9
10005da8:	9d06      	ldr	r5, [sp, #24]
10005daa:	2c20      	cmp	r4, #32
10005dac:	d100      	bne.n	10005db0 <_ftoa+0x39c>
10005dae:	e6e7      	b.n	10005b80 <_ftoa+0x16c>
10005db0:	2230      	movs	r2, #48	@ 0x30
10005db2:	1933      	adds	r3, r6, r4
10005db4:	e007      	b.n	10005dc6 <_ftoa+0x3b2>
10005db6:	2017      	movs	r0, #23
10005db8:	a906      	add	r1, sp, #24
10005dba:	3401      	adds	r4, #1
10005dbc:	1809      	adds	r1, r1, r0
10005dbe:	550a      	strb	r2, [r1, r4]
10005dc0:	2c20      	cmp	r4, #32
10005dc2:	d100      	bne.n	10005dc6 <_ftoa+0x3b2>
10005dc4:	e6dc      	b.n	10005b80 <_ftoa+0x16c>
10005dc6:	42a3      	cmp	r3, r4
10005dc8:	d1f5      	bne.n	10005db6 <_ftoa+0x3a2>
10005dca:	222e      	movs	r2, #46	@ 0x2e
10005dcc:	ae0c      	add	r6, sp, #48	@ 0x30
10005dce:	3401      	adds	r4, #1
10005dd0:	54f2      	strb	r2, [r6, r3]
10005dd2:	e6d7      	b.n	10005b84 <_ftoa+0x170>
10005dd4:	230c      	movs	r3, #12
10005dd6:	9a22      	ldr	r2, [sp, #136]	@ 0x88
10005dd8:	4213      	tst	r3, r2
10005dda:	d057      	beq.n	10005e8c <_ftoa+0x478>
10005ddc:	9b21      	ldr	r3, [sp, #132]	@ 0x84
10005dde:	3b01      	subs	r3, #1
10005de0:	9321      	str	r3, [sp, #132]	@ 0x84
10005de2:	42a3      	cmp	r3, r4
10005de4:	d900      	bls.n	10005de8 <_ftoa+0x3d4>
10005de6:	e6fc      	b.n	10005be2 <_ftoa+0x1ce>
10005de8:	2c20      	cmp	r4, #32
10005dea:	d100      	bne.n	10005dee <_ftoa+0x3da>
10005dec:	e706      	b.n	10005bfc <_ftoa+0x1e8>
10005dee:	9b22      	ldr	r3, [sp, #136]	@ 0x88
10005df0:	075b      	lsls	r3, r3, #29
10005df2:	d503      	bpl.n	10005dfc <_ftoa+0x3e8>
10005df4:	232b      	movs	r3, #43	@ 0x2b
10005df6:	5533      	strb	r3, [r6, r4]
10005df8:	3401      	adds	r4, #1
10005dfa:	e6ff      	b.n	10005bfc <_ftoa+0x1e8>
10005dfc:	9b22      	ldr	r3, [sp, #136]	@ 0x88
10005dfe:	071b      	lsls	r3, r3, #28
10005e00:	d400      	bmi.n	10005e04 <_ftoa+0x3f0>
10005e02:	e6fb      	b.n	10005bfc <_ftoa+0x1e8>
10005e04:	2320      	movs	r3, #32
10005e06:	5533      	strb	r3, [r6, r4]
10005e08:	3401      	adds	r4, #1
10005e0a:	e6f7      	b.n	10005bfc <_ftoa+0x1e8>
10005e0c:	07db      	lsls	r3, r3, #31
10005e0e:	d400      	bmi.n	10005e12 <_ftoa+0x3fe>
10005e10:	e696      	b.n	10005b40 <_ftoa+0x12c>
10005e12:	e79e      	b.n	10005d52 <_ftoa+0x33e>
10005e14:	9b22      	ldr	r3, [sp, #136]	@ 0x88
10005e16:	4655      	mov	r5, sl
10005e18:	079b      	lsls	r3, r3, #30
10005e1a:	d111      	bne.n	10005e40 <_ftoa+0x42c>
10005e1c:	9b21      	ldr	r3, [sp, #132]	@ 0x84
10005e1e:	2b03      	cmp	r3, #3
10005e20:	d90e      	bls.n	10005e40 <_ftoa+0x42c>
10005e22:	9b21      	ldr	r3, [sp, #132]	@ 0x84
10005e24:	4654      	mov	r4, sl
10005e26:	469c      	mov	ip, r3
10005e28:	465e      	mov	r6, fp
10005e2a:	3d03      	subs	r5, #3
10005e2c:	4465      	add	r5, ip
10005e2e:	0022      	movs	r2, r4
10005e30:	4643      	mov	r3, r8
10005e32:	3401      	adds	r4, #1
10005e34:	0039      	movs	r1, r7
10005e36:	2020      	movs	r0, #32
10005e38:	47b0      	blx	r6
10005e3a:	42ac      	cmp	r4, r5
10005e3c:	d1f7      	bne.n	10005e2e <_ftoa+0x41a>
10005e3e:	46b3      	mov	fp, r6
10005e40:	46b9      	mov	r9, r7
10005e42:	465f      	mov	r7, fp
10005e44:	4e1c      	ldr	r6, [pc, #112]	@ (10005eb8 <_ftoa+0x4a4>)
10005e46:	1cec      	adds	r4, r5, #3
10005e48:	002a      	movs	r2, r5
10005e4a:	78b0      	ldrb	r0, [r6, #2]
10005e4c:	4643      	mov	r3, r8
10005e4e:	4649      	mov	r1, r9
10005e50:	3501      	adds	r5, #1
10005e52:	47b8      	blx	r7
10005e54:	3e01      	subs	r6, #1
10005e56:	42ac      	cmp	r4, r5
10005e58:	d1f6      	bne.n	10005e48 <_ftoa+0x434>
10005e5a:	9b22      	ldr	r3, [sp, #136]	@ 0x88
10005e5c:	46bb      	mov	fp, r7
10005e5e:	464f      	mov	r7, r9
10005e60:	079b      	lsls	r3, r3, #30
10005e62:	d400      	bmi.n	10005e66 <_ftoa+0x452>
10005e64:	e6e1      	b.n	10005c2a <_ftoa+0x216>
10005e66:	4653      	mov	r3, sl
10005e68:	9a21      	ldr	r2, [sp, #132]	@ 0x84
10005e6a:	1ae3      	subs	r3, r4, r3
10005e6c:	429a      	cmp	r2, r3
10005e6e:	d800      	bhi.n	10005e72 <_ftoa+0x45e>
10005e70:	e6db      	b.n	10005c2a <_ftoa+0x216>
10005e72:	465e      	mov	r6, fp
10005e74:	0015      	movs	r5, r2
10005e76:	0022      	movs	r2, r4
10005e78:	4643      	mov	r3, r8
10005e7a:	0039      	movs	r1, r7
10005e7c:	2020      	movs	r0, #32
10005e7e:	47b0      	blx	r6
10005e80:	4653      	mov	r3, sl
10005e82:	3401      	adds	r4, #1
10005e84:	1ae3      	subs	r3, r4, r3
10005e86:	42ab      	cmp	r3, r5
10005e88:	d3f5      	bcc.n	10005e76 <_ftoa+0x462>
10005e8a:	e6ce      	b.n	10005c2a <_ftoa+0x216>
10005e8c:	9b21      	ldr	r3, [sp, #132]	@ 0x84
10005e8e:	42a3      	cmp	r3, r4
10005e90:	d900      	bls.n	10005e94 <_ftoa+0x480>
10005e92:	e6a6      	b.n	10005be2 <_ftoa+0x1ce>
10005e94:	e6b2      	b.n	10005bfc <_ftoa+0x1e8>
10005e96:	9b21      	ldr	r3, [sp, #132]	@ 0x84
10005e98:	2b00      	cmp	r3, #0
10005e9a:	d100      	bne.n	10005e9e <_ftoa+0x48a>
10005e9c:	e779      	b.n	10005d92 <_ftoa+0x37e>
10005e9e:	9b0b      	ldr	r3, [sp, #44]	@ 0x2c
10005ea0:	2b00      	cmp	r3, #0
10005ea2:	d097      	beq.n	10005dd4 <_ftoa+0x3c0>
10005ea4:	9b21      	ldr	r3, [sp, #132]	@ 0x84
10005ea6:	3b01      	subs	r3, #1
10005ea8:	9321      	str	r3, [sp, #132]	@ 0x84
10005eaa:	429c      	cmp	r4, r3
10005eac:	d200      	bcs.n	10005eb0 <_ftoa+0x49c>
10005eae:	e698      	b.n	10005be2 <_ftoa+0x1ce>
10005eb0:	2c20      	cmp	r4, #32
10005eb2:	d000      	beq.n	10005eb6 <_ftoa+0x4a2>
10005eb4:	e773      	b.n	10005d9e <_ftoa+0x38a>
10005eb6:	e6a1      	b.n	10005bfc <_ftoa+0x1e8>
10005eb8:	1000b68c 	.word	0x1000b68c

10005ebc <_etoa>:
10005ebc:	b5f0      	push	{r4, r5, r6, r7, lr}
10005ebe:	46de      	mov	lr, fp
10005ec0:	4657      	mov	r7, sl
10005ec2:	464e      	mov	r6, r9
10005ec4:	4645      	mov	r5, r8
10005ec6:	b5e0      	push	{r5, r6, r7, lr}
10005ec8:	b099      	sub	sp, #100	@ 0x64
10005eca:	4681      	mov	r9, r0
10005ecc:	468b      	mov	fp, r1
10005ece:	4692      	mov	sl, r2
10005ed0:	4698      	mov	r8, r3
10005ed2:	9a22      	ldr	r2, [sp, #136]	@ 0x88
10005ed4:	9b23      	ldr	r3, [sp, #140]	@ 0x8c
10005ed6:	0010      	movs	r0, r2
10005ed8:	0019      	movs	r1, r3
10005eda:	f7ff fab0 	bl	1000543e <__wrap___aeabi_dcmpun>
10005ede:	2800      	cmp	r0, #0
10005ee0:	d000      	beq.n	10005ee4 <_etoa+0x28>
10005ee2:	e0ca      	b.n	1000607a <_etoa+0x1be>
10005ee4:	9822      	ldr	r0, [sp, #136]	@ 0x88
10005ee6:	9923      	ldr	r1, [sp, #140]	@ 0x8c
10005ee8:	2201      	movs	r2, #1
10005eea:	4b82      	ldr	r3, [pc, #520]	@ (100060f4 <_etoa+0x238>)
10005eec:	4252      	negs	r2, r2
10005eee:	f7ff faa1 	bl	10005434 <__wrap___aeabi_dcmpgt>
10005ef2:	2800      	cmp	r0, #0
10005ef4:	d000      	beq.n	10005ef8 <_etoa+0x3c>
10005ef6:	e0c0      	b.n	1000607a <_etoa+0x1be>
10005ef8:	9822      	ldr	r0, [sp, #136]	@ 0x88
10005efa:	9923      	ldr	r1, [sp, #140]	@ 0x8c
10005efc:	2201      	movs	r2, #1
10005efe:	4b7e      	ldr	r3, [pc, #504]	@ (100060f8 <_etoa+0x23c>)
10005f00:	4252      	negs	r2, r2
10005f02:	f7ff fa81 	bl	10005408 <__wrap___aeabi_dcmplt>
10005f06:	2800      	cmp	r0, #0
10005f08:	d000      	beq.n	10005f0c <_etoa+0x50>
10005f0a:	e0b6      	b.n	1000607a <_etoa+0x1be>
10005f0c:	9822      	ldr	r0, [sp, #136]	@ 0x88
10005f0e:	9923      	ldr	r1, [sp, #140]	@ 0x8c
10005f10:	2200      	movs	r2, #0
10005f12:	2300      	movs	r3, #0
10005f14:	f7ff fa78 	bl	10005408 <__wrap___aeabi_dcmplt>
10005f18:	2800      	cmp	r0, #0
10005f1a:	d000      	beq.n	10005f1e <_etoa+0x62>
10005f1c:	e1c9      	b.n	100062b2 <_etoa+0x3f6>
10005f1e:	9b22      	ldr	r3, [sp, #136]	@ 0x88
10005f20:	9c23      	ldr	r4, [sp, #140]	@ 0x8c
10005f22:	9308      	str	r3, [sp, #32]
10005f24:	9409      	str	r4, [sp, #36]	@ 0x24
10005f26:	9808      	ldr	r0, [sp, #32]
10005f28:	9909      	ldr	r1, [sp, #36]	@ 0x24
10005f2a:	2380      	movs	r3, #128	@ 0x80
10005f2c:	9a26      	ldr	r2, [sp, #152]	@ 0x98
10005f2e:	00db      	lsls	r3, r3, #3
10005f30:	401a      	ands	r2, r3
10005f32:	920d      	str	r2, [sp, #52]	@ 0x34
10005f34:	2280      	movs	r2, #128	@ 0x80
10005f36:	9c26      	ldr	r4, [sp, #152]	@ 0x98
10005f38:	0112      	lsls	r2, r2, #4
10005f3a:	4014      	ands	r4, r2
10005f3c:	0022      	movs	r2, r4
10005f3e:	940b      	str	r4, [sp, #44]	@ 0x2c
10005f40:	9c26      	ldr	r4, [sp, #152]	@ 0x98
10005f42:	0007      	movs	r7, r0
10005f44:	000e      	movs	r6, r1
10005f46:	421c      	tst	r4, r3
10005f48:	d000      	beq.n	10005f4c <_etoa+0x90>
10005f4a:	e0ad      	b.n	100060a8 <_etoa+0x1ec>
10005f4c:	000b      	movs	r3, r1
10005f4e:	4303      	orrs	r3, r0
10005f50:	d000      	beq.n	10005f54 <_etoa+0x98>
10005f52:	e0d5      	b.n	10006100 <_etoa+0x244>
10005f54:	2a00      	cmp	r2, #0
10005f56:	d000      	beq.n	10005f5a <_etoa+0x9e>
10005f58:	e20a      	b.n	10006370 <_etoa+0x4b4>
10005f5a:	0022      	movs	r2, r4
10005f5c:	3306      	adds	r3, #6
10005f5e:	9324      	str	r3, [sp, #144]	@ 0x90
10005f60:	2302      	movs	r3, #2
10005f62:	4013      	ands	r3, r2
10005f64:	930c      	str	r3, [sp, #48]	@ 0x30
10005f66:	2302      	movs	r3, #2
10005f68:	4213      	tst	r3, r2
10005f6a:	d000      	beq.n	10005f6e <_etoa+0xb2>
10005f6c:	e202      	b.n	10006374 <_etoa+0x4b8>
10005f6e:	9b25      	ldr	r3, [sp, #148]	@ 0x94
10005f70:	2b04      	cmp	r3, #4
10005f72:	d200      	bcs.n	10005f76 <_etoa+0xba>
10005f74:	e20f      	b.n	10006396 <_etoa+0x4da>
10005f76:	3b04      	subs	r3, #4
10005f78:	930b      	str	r3, [sp, #44]	@ 0x2c
10005f7a:	2300      	movs	r3, #0
10005f7c:	2504      	movs	r5, #4
10005f7e:	930a      	str	r3, [sp, #40]	@ 0x28
10005f80:	2200      	movs	r2, #0
10005f82:	9822      	ldr	r0, [sp, #136]	@ 0x88
10005f84:	9923      	ldr	r1, [sp, #140]	@ 0x8c
10005f86:	2300      	movs	r3, #0
10005f88:	f7ff fa3e 	bl	10005408 <__wrap___aeabi_dcmplt>
10005f8c:	2800      	cmp	r0, #0
10005f8e:	d000      	beq.n	10005f92 <_etoa+0xd6>
10005f90:	e203      	b.n	1000639a <_etoa+0x4de>
10005f92:	4b5a      	ldr	r3, [pc, #360]	@ (100060fc <_etoa+0x240>)
10005f94:	9a26      	ldr	r2, [sp, #152]	@ 0x98
10005f96:	4013      	ands	r3, r2
10005f98:	9304      	str	r3, [sp, #16]
10005f9a:	9b0b      	ldr	r3, [sp, #44]	@ 0x2c
10005f9c:	9303      	str	r3, [sp, #12]
10005f9e:	9b24      	ldr	r3, [sp, #144]	@ 0x90
10005fa0:	9302      	str	r3, [sp, #8]
10005fa2:	9b08      	ldr	r3, [sp, #32]
10005fa4:	9c09      	ldr	r4, [sp, #36]	@ 0x24
10005fa6:	9300      	str	r3, [sp, #0]
10005fa8:	9401      	str	r4, [sp, #4]
10005faa:	4659      	mov	r1, fp
10005fac:	4643      	mov	r3, r8
10005fae:	4652      	mov	r2, sl
10005fb0:	4648      	mov	r0, r9
10005fb2:	f7ff fd2f 	bl	10005a14 <_ftoa>
10005fb6:	0002      	movs	r2, r0
10005fb8:	2020      	movs	r0, #32
10005fba:	9b26      	ldr	r3, [sp, #152]	@ 0x98
10005fbc:	271f      	movs	r7, #31
10005fbe:	4003      	ands	r3, r0
10005fc0:	4259      	negs	r1, r3
10005fc2:	414b      	adcs	r3, r1
10005fc4:	425b      	negs	r3, r3
10005fc6:	4018      	ands	r0, r3
10005fc8:	1c53      	adds	r3, r2, #1
10005fca:	9308      	str	r3, [sp, #32]
10005fcc:	4659      	mov	r1, fp
10005fce:	4643      	mov	r3, r8
10005fd0:	3045      	adds	r0, #69	@ 0x45
10005fd2:	47c8      	blx	r9
10005fd4:	9a0a      	ldr	r2, [sp, #40]	@ 0x28
10005fd6:	17d3      	asrs	r3, r2, #31
10005fd8:	18d4      	adds	r4, r2, r3
10005fda:	405c      	eors	r4, r3
10005fdc:	0fd3      	lsrs	r3, r2, #31
10005fde:	930a      	str	r3, [sp, #40]	@ 0x28
10005fe0:	1e6b      	subs	r3, r5, #1
10005fe2:	930b      	str	r3, [sp, #44]	@ 0x2c
10005fe4:	ab08      	add	r3, sp, #32
10005fe6:	469c      	mov	ip, r3
10005fe8:	2500      	movs	r5, #0
10005fea:	4467      	add	r7, ip
10005fec:	e001      	b.n	10005ff2 <_etoa+0x136>
10005fee:	2d20      	cmp	r5, #32
10005ff0:	d00f      	beq.n	10006012 <_etoa+0x156>
10005ff2:	0020      	movs	r0, r4
10005ff4:	210a      	movs	r1, #10
10005ff6:	f7fe ff69 	bl	10004ecc <__wrap___aeabi_uidiv>
10005ffa:	3501      	adds	r5, #1
10005ffc:	197e      	adds	r6, r7, r5
10005ffe:	3130      	adds	r1, #48	@ 0x30
10006000:	7031      	strb	r1, [r6, #0]
10006002:	0020      	movs	r0, r4
10006004:	210a      	movs	r1, #10
10006006:	f7fe ff61 	bl	10004ecc <__wrap___aeabi_uidiv>
1000600a:	0026      	movs	r6, r4
1000600c:	0004      	movs	r4, r0
1000600e:	2e09      	cmp	r6, #9
10006010:	d8ed      	bhi.n	10005fee <_etoa+0x132>
10006012:	2305      	movs	r3, #5
10006014:	9306      	str	r3, [sp, #24]
10006016:	9b0b      	ldr	r3, [sp, #44]	@ 0x2c
10006018:	4659      	mov	r1, fp
1000601a:	9305      	str	r3, [sp, #20]
1000601c:	2300      	movs	r3, #0
1000601e:	9304      	str	r3, [sp, #16]
10006020:	330a      	adds	r3, #10
10006022:	9303      	str	r3, [sp, #12]
10006024:	9b0a      	ldr	r3, [sp, #40]	@ 0x28
10006026:	4648      	mov	r0, r9
10006028:	9302      	str	r3, [sp, #8]
1000602a:	ab10      	add	r3, sp, #64	@ 0x40
1000602c:	9300      	str	r3, [sp, #0]
1000602e:	9a08      	ldr	r2, [sp, #32]
10006030:	4643      	mov	r3, r8
10006032:	9501      	str	r5, [sp, #4]
10006034:	f7ff fbf8 	bl	10005828 <_ntoa_format>
10006038:	9b0c      	ldr	r3, [sp, #48]	@ 0x30
1000603a:	2b00      	cmp	r3, #0
1000603c:	d02d      	beq.n	1000609a <_etoa+0x1de>
1000603e:	4653      	mov	r3, sl
10006040:	1ac4      	subs	r4, r0, r3
10006042:	9b25      	ldr	r3, [sp, #148]	@ 0x94
10006044:	42a3      	cmp	r3, r4
10006046:	d928      	bls.n	1000609a <_etoa+0x1de>
10006048:	464d      	mov	r5, r9
1000604a:	465f      	mov	r7, fp
1000604c:	4681      	mov	r9, r0
1000604e:	001e      	movs	r6, r3
10006050:	4653      	mov	r3, sl
10006052:	0039      	movs	r1, r7
10006054:	191a      	adds	r2, r3, r4
10006056:	2020      	movs	r0, #32
10006058:	4643      	mov	r3, r8
1000605a:	3401      	adds	r4, #1
1000605c:	47a8      	blx	r5
1000605e:	42a6      	cmp	r6, r4
10006060:	d8f6      	bhi.n	10006050 <_etoa+0x194>
10006062:	4653      	mov	r3, sl
10006064:	4648      	mov	r0, r9
10006066:	9925      	ldr	r1, [sp, #148]	@ 0x94
10006068:	1ac2      	subs	r2, r0, r3
1000606a:	3201      	adds	r2, #1
1000606c:	2300      	movs	r3, #0
1000606e:	4291      	cmp	r1, r2
10006070:	d300      	bcc.n	10006074 <_etoa+0x1b8>
10006072:	e186      	b.n	10006382 <_etoa+0x4c6>
10006074:	3001      	adds	r0, #1
10006076:	1818      	adds	r0, r3, r0
10006078:	e00f      	b.n	1000609a <_etoa+0x1de>
1000607a:	9b26      	ldr	r3, [sp, #152]	@ 0x98
1000607c:	9304      	str	r3, [sp, #16]
1000607e:	9b25      	ldr	r3, [sp, #148]	@ 0x94
10006080:	9303      	str	r3, [sp, #12]
10006082:	9b24      	ldr	r3, [sp, #144]	@ 0x90
10006084:	9302      	str	r3, [sp, #8]
10006086:	9b22      	ldr	r3, [sp, #136]	@ 0x88
10006088:	9c23      	ldr	r4, [sp, #140]	@ 0x8c
1000608a:	9300      	str	r3, [sp, #0]
1000608c:	9401      	str	r4, [sp, #4]
1000608e:	4643      	mov	r3, r8
10006090:	4652      	mov	r2, sl
10006092:	4659      	mov	r1, fp
10006094:	4648      	mov	r0, r9
10006096:	f7ff fcbd 	bl	10005a14 <_ftoa>
1000609a:	b019      	add	sp, #100	@ 0x64
1000609c:	bcf0      	pop	{r4, r5, r6, r7}
1000609e:	46bb      	mov	fp, r7
100060a0:	46b2      	mov	sl, r6
100060a2:	46a9      	mov	r9, r5
100060a4:	46a0      	mov	r8, r4
100060a6:	bdf0      	pop	{r4, r5, r6, r7, pc}
100060a8:	4301      	orrs	r1, r0
100060aa:	d12b      	bne.n	10006104 <_etoa+0x248>
100060ac:	9b0b      	ldr	r3, [sp, #44]	@ 0x2c
100060ae:	0022      	movs	r2, r4
100060b0:	2b00      	cmp	r3, #0
100060b2:	d100      	bne.n	100060b6 <_etoa+0x1fa>
100060b4:	e754      	b.n	10005f60 <_etoa+0xa4>
100060b6:	2300      	movs	r3, #0
100060b8:	930a      	str	r3, [sp, #40]	@ 0x28
100060ba:	9b24      	ldr	r3, [sp, #144]	@ 0x90
100060bc:	9a0a      	ldr	r2, [sp, #40]	@ 0x28
100060be:	2400      	movs	r4, #0
100060c0:	4293      	cmp	r3, r2
100060c2:	dd00      	ble.n	100060c6 <_etoa+0x20a>
100060c4:	e185      	b.n	100063d2 <_etoa+0x516>
100060c6:	9822      	ldr	r0, [sp, #136]	@ 0x88
100060c8:	9923      	ldr	r1, [sp, #140]	@ 0x8c
100060ca:	2200      	movs	r2, #0
100060cc:	2300      	movs	r3, #0
100060ce:	f7ff f99b 	bl	10005408 <__wrap___aeabi_dcmplt>
100060d2:	2800      	cmp	r0, #0
100060d4:	d000      	beq.n	100060d8 <_etoa+0x21c>
100060d6:	e135      	b.n	10006344 <_etoa+0x488>
100060d8:	9b26      	ldr	r3, [sp, #152]	@ 0x98
100060da:	4a08      	ldr	r2, [pc, #32]	@ (100060fc <_etoa+0x240>)
100060dc:	9402      	str	r4, [sp, #8]
100060de:	401a      	ands	r2, r3
100060e0:	2380      	movs	r3, #128	@ 0x80
100060e2:	00db      	lsls	r3, r3, #3
100060e4:	4313      	orrs	r3, r2
100060e6:	9304      	str	r3, [sp, #16]
100060e8:	9b25      	ldr	r3, [sp, #148]	@ 0x94
100060ea:	9303      	str	r3, [sp, #12]
100060ec:	9b08      	ldr	r3, [sp, #32]
100060ee:	9c09      	ldr	r4, [sp, #36]	@ 0x24
100060f0:	e7cb      	b.n	1000608a <_etoa+0x1ce>
100060f2:	46c0      	nop			@ (mov r8, r8)
100060f4:	7fefffff 	.word	0x7fefffff
100060f8:	ffefffff 	.word	0xffefffff
100060fc:	fffff7ff 	.word	0xfffff7ff
10006100:	2306      	movs	r3, #6
10006102:	9324      	str	r3, [sp, #144]	@ 0x90
10006104:	4bb4      	ldr	r3, [pc, #720]	@ (100063d8 <_etoa+0x51c>)
10006106:	0070      	lsls	r0, r6, #1
10006108:	469c      	mov	ip, r3
1000610a:	0d40      	lsrs	r0, r0, #21
1000610c:	4460      	add	r0, ip
1000610e:	f7ff f9a7 	bl	10005460 <__wrap___aeabi_i2d>
10006112:	4ab2      	ldr	r2, [pc, #712]	@ (100063dc <_etoa+0x520>)
10006114:	4bb2      	ldr	r3, [pc, #712]	@ (100063e0 <_etoa+0x524>)
10006116:	f7ff f938 	bl	1000538a <__wrap___aeabi_dmul>
1000611a:	4ab2      	ldr	r2, [pc, #712]	@ (100063e4 <_etoa+0x528>)
1000611c:	4bb2      	ldr	r3, [pc, #712]	@ (100063e8 <_etoa+0x52c>)
1000611e:	f7ff f915 	bl	1000534c <__wrap___aeabi_dadd>
10006122:	0336      	lsls	r6, r6, #12
10006124:	4bb1      	ldr	r3, [pc, #708]	@ (100063ec <_etoa+0x530>)
10006126:	0b36      	lsrs	r6, r6, #12
10006128:	4333      	orrs	r3, r6
1000612a:	0004      	movs	r4, r0
1000612c:	000d      	movs	r5, r1
1000612e:	0038      	movs	r0, r7
10006130:	0019      	movs	r1, r3
10006132:	2200      	movs	r2, #0
10006134:	4bae      	ldr	r3, [pc, #696]	@ (100063f0 <_etoa+0x534>)
10006136:	f7ff f904 	bl	10005342 <__wrap___aeabi_dsub>
1000613a:	4aae      	ldr	r2, [pc, #696]	@ (100063f4 <_etoa+0x538>)
1000613c:	4bae      	ldr	r3, [pc, #696]	@ (100063f8 <_etoa+0x53c>)
1000613e:	f7ff f924 	bl	1000538a <__wrap___aeabi_dmul>
10006142:	0002      	movs	r2, r0
10006144:	000b      	movs	r3, r1
10006146:	0020      	movs	r0, r4
10006148:	0029      	movs	r1, r5
1000614a:	f7ff f8ff 	bl	1000534c <__wrap___aeabi_dadd>
1000614e:	f7ff f99f 	bl	10005490 <__wrap___aeabi_d2iz>
10006152:	900a      	str	r0, [sp, #40]	@ 0x28
10006154:	f7ff f984 	bl	10005460 <__wrap___aeabi_i2d>
10006158:	4aa8      	ldr	r2, [pc, #672]	@ (100063fc <_etoa+0x540>)
1000615a:	4ba9      	ldr	r3, [pc, #676]	@ (10006400 <_etoa+0x544>)
1000615c:	0004      	movs	r4, r0
1000615e:	000d      	movs	r5, r1
10006160:	f7ff f913 	bl	1000538a <__wrap___aeabi_dmul>
10006164:	2200      	movs	r2, #0
10006166:	4ba7      	ldr	r3, [pc, #668]	@ (10006404 <_etoa+0x548>)
10006168:	f7ff f8f0 	bl	1000534c <__wrap___aeabi_dadd>
1000616c:	f7ff f990 	bl	10005490 <__wrap___aeabi_d2iz>
10006170:	4aa5      	ldr	r2, [pc, #660]	@ (10006408 <_etoa+0x54c>)
10006172:	0006      	movs	r6, r0
10006174:	4ba5      	ldr	r3, [pc, #660]	@ (1000640c <_etoa+0x550>)
10006176:	0020      	movs	r0, r4
10006178:	0029      	movs	r1, r5
1000617a:	f7ff f906 	bl	1000538a <__wrap___aeabi_dmul>
1000617e:	0004      	movs	r4, r0
10006180:	0030      	movs	r0, r6
10006182:	000d      	movs	r5, r1
10006184:	960c      	str	r6, [sp, #48]	@ 0x30
10006186:	f7ff f96b 	bl	10005460 <__wrap___aeabi_i2d>
1000618a:	4aa1      	ldr	r2, [pc, #644]	@ (10006410 <_etoa+0x554>)
1000618c:	4ba1      	ldr	r3, [pc, #644]	@ (10006414 <_etoa+0x558>)
1000618e:	f7ff f8fc 	bl	1000538a <__wrap___aeabi_dmul>
10006192:	0002      	movs	r2, r0
10006194:	000b      	movs	r3, r1
10006196:	0020      	movs	r0, r4
10006198:	0029      	movs	r1, r5
1000619a:	f7ff f8d2 	bl	10005342 <__wrap___aeabi_dsub>
1000619e:	0002      	movs	r2, r0
100061a0:	000b      	movs	r3, r1
100061a2:	0006      	movs	r6, r0
100061a4:	000f      	movs	r7, r1
100061a6:	f7ff f8f0 	bl	1000538a <__wrap___aeabi_dmul>
100061aa:	0032      	movs	r2, r6
100061ac:	0004      	movs	r4, r0
100061ae:	000d      	movs	r5, r1
100061b0:	003b      	movs	r3, r7
100061b2:	0030      	movs	r0, r6
100061b4:	0039      	movs	r1, r7
100061b6:	f7ff f8c9 	bl	1000534c <__wrap___aeabi_dadd>
100061ba:	2200      	movs	r2, #0
100061bc:	900e      	str	r0, [sp, #56]	@ 0x38
100061be:	910f      	str	r1, [sp, #60]	@ 0x3c
100061c0:	4b95      	ldr	r3, [pc, #596]	@ (10006418 <_etoa+0x55c>)
100061c2:	0020      	movs	r0, r4
100061c4:	0029      	movs	r1, r5
100061c6:	f7ff f8c6 	bl	10005356 <__wrap___aeabi_ddiv>
100061ca:	2200      	movs	r2, #0
100061cc:	4b93      	ldr	r3, [pc, #588]	@ (1000641c <_etoa+0x560>)
100061ce:	f7ff f8bd 	bl	1000534c <__wrap___aeabi_dadd>
100061d2:	0002      	movs	r2, r0
100061d4:	000b      	movs	r3, r1
100061d6:	0020      	movs	r0, r4
100061d8:	0029      	movs	r1, r5
100061da:	f7ff f8bc 	bl	10005356 <__wrap___aeabi_ddiv>
100061de:	2200      	movs	r2, #0
100061e0:	4b8f      	ldr	r3, [pc, #572]	@ (10006420 <_etoa+0x564>)
100061e2:	f7ff f8b3 	bl	1000534c <__wrap___aeabi_dadd>
100061e6:	0002      	movs	r2, r0
100061e8:	000b      	movs	r3, r1
100061ea:	0020      	movs	r0, r4
100061ec:	0029      	movs	r1, r5
100061ee:	f7ff f8b2 	bl	10005356 <__wrap___aeabi_ddiv>
100061f2:	000d      	movs	r5, r1
100061f4:	2180      	movs	r1, #128	@ 0x80
100061f6:	0004      	movs	r4, r0
100061f8:	0032      	movs	r2, r6
100061fa:	003b      	movs	r3, r7
100061fc:	2000      	movs	r0, #0
100061fe:	05c9      	lsls	r1, r1, #23
10006200:	f7ff f89f 	bl	10005342 <__wrap___aeabi_dsub>
10006204:	0002      	movs	r2, r0
10006206:	000b      	movs	r3, r1
10006208:	0020      	movs	r0, r4
1000620a:	0029      	movs	r1, r5
1000620c:	f7ff f89e 	bl	1000534c <__wrap___aeabi_dadd>
10006210:	0002      	movs	r2, r0
10006212:	000b      	movs	r3, r1
10006214:	980e      	ldr	r0, [sp, #56]	@ 0x38
10006216:	990f      	ldr	r1, [sp, #60]	@ 0x3c
10006218:	f7ff f89d 	bl	10005356 <__wrap___aeabi_ddiv>
1000621c:	2200      	movs	r2, #0
1000621e:	4b73      	ldr	r3, [pc, #460]	@ (100063ec <_etoa+0x530>)
10006220:	f7ff f894 	bl	1000534c <__wrap___aeabi_dadd>
10006224:	4b7f      	ldr	r3, [pc, #508]	@ (10006424 <_etoa+0x568>)
10006226:	9c0c      	ldr	r4, [sp, #48]	@ 0x30
10006228:	469c      	mov	ip, r3
1000622a:	4464      	add	r4, ip
1000622c:	2200      	movs	r2, #0
1000622e:	0523      	lsls	r3, r4, #20
10006230:	f7ff f8ab 	bl	1000538a <__wrap___aeabi_dmul>
10006234:	0006      	movs	r6, r0
10006236:	000f      	movs	r7, r1
10006238:	0002      	movs	r2, r0
1000623a:	000b      	movs	r3, r1
1000623c:	9808      	ldr	r0, [sp, #32]
1000623e:	9909      	ldr	r1, [sp, #36]	@ 0x24
10006240:	f7ff f8e2 	bl	10005408 <__wrap___aeabi_dcmplt>
10006244:	2800      	cmp	r0, #0
10006246:	d00a      	beq.n	1000625e <_etoa+0x3a2>
10006248:	9b0a      	ldr	r3, [sp, #40]	@ 0x28
1000624a:	0030      	movs	r0, r6
1000624c:	3b01      	subs	r3, #1
1000624e:	0039      	movs	r1, r7
10006250:	930a      	str	r3, [sp, #40]	@ 0x28
10006252:	2200      	movs	r2, #0
10006254:	4b71      	ldr	r3, [pc, #452]	@ (1000641c <_etoa+0x560>)
10006256:	f7ff f87e 	bl	10005356 <__wrap___aeabi_ddiv>
1000625a:	0006      	movs	r6, r0
1000625c:	000f      	movs	r7, r1
1000625e:	9a0a      	ldr	r2, [sp, #40]	@ 0x28
10006260:	0033      	movs	r3, r6
10006262:	3263      	adds	r2, #99	@ 0x63
10006264:	0039      	movs	r1, r7
10006266:	2ac6      	cmp	r2, #198	@ 0xc6
10006268:	d812      	bhi.n	10006290 <_etoa+0x3d4>
1000626a:	2202      	movs	r2, #2
1000626c:	9826      	ldr	r0, [sp, #152]	@ 0x98
1000626e:	2504      	movs	r5, #4
10006270:	4010      	ands	r0, r2
10006272:	9a0b      	ldr	r2, [sp, #44]	@ 0x2c
10006274:	900c      	str	r0, [sp, #48]	@ 0x30
10006276:	2a00      	cmp	r2, #0
10006278:	d125      	bne.n	100062c6 <_etoa+0x40a>
1000627a:	9b25      	ldr	r3, [sp, #148]	@ 0x94
1000627c:	2b04      	cmp	r3, #4
1000627e:	d905      	bls.n	1000628c <_etoa+0x3d0>
10006280:	2800      	cmp	r0, #0
10006282:	d000      	beq.n	10006286 <_etoa+0x3ca>
10006284:	e0a1      	b.n	100063ca <_etoa+0x50e>
10006286:	9b25      	ldr	r3, [sp, #148]	@ 0x94
10006288:	3b04      	subs	r3, #4
1000628a:	930b      	str	r3, [sp, #44]	@ 0x2c
1000628c:	2504      	movs	r5, #4
1000628e:	e041      	b.n	10006314 <_etoa+0x458>
10006290:	2202      	movs	r2, #2
10006292:	9826      	ldr	r0, [sp, #152]	@ 0x98
10006294:	4010      	ands	r0, r2
10006296:	9a0b      	ldr	r2, [sp, #44]	@ 0x2c
10006298:	900c      	str	r0, [sp, #48]	@ 0x30
1000629a:	2a00      	cmp	r2, #0
1000629c:	d112      	bne.n	100062c4 <_etoa+0x408>
1000629e:	9b25      	ldr	r3, [sp, #148]	@ 0x94
100062a0:	2b05      	cmp	r3, #5
100062a2:	d976      	bls.n	10006392 <_etoa+0x4d6>
100062a4:	2800      	cmp	r0, #0
100062a6:	d172      	bne.n	1000638e <_etoa+0x4d2>
100062a8:	9b25      	ldr	r3, [sp, #148]	@ 0x94
100062aa:	2505      	movs	r5, #5
100062ac:	3b05      	subs	r3, #5
100062ae:	930b      	str	r3, [sp, #44]	@ 0x2c
100062b0:	e034      	b.n	1000631c <_etoa+0x460>
100062b2:	2280      	movs	r2, #128	@ 0x80
100062b4:	0612      	lsls	r2, r2, #24
100062b6:	4694      	mov	ip, r2
100062b8:	9b22      	ldr	r3, [sp, #136]	@ 0x88
100062ba:	9308      	str	r3, [sp, #32]
100062bc:	9b23      	ldr	r3, [sp, #140]	@ 0x8c
100062be:	4463      	add	r3, ip
100062c0:	9309      	str	r3, [sp, #36]	@ 0x24
100062c2:	e630      	b.n	10005f26 <_etoa+0x6a>
100062c4:	2505      	movs	r5, #5
100062c6:	430b      	orrs	r3, r1
100062c8:	d100      	bne.n	100062cc <_etoa+0x410>
100062ca:	e6f6      	b.n	100060ba <_etoa+0x1fe>
100062cc:	9808      	ldr	r0, [sp, #32]
100062ce:	9909      	ldr	r1, [sp, #36]	@ 0x24
100062d0:	4a55      	ldr	r2, [pc, #340]	@ (10006428 <_etoa+0x56c>)
100062d2:	4b56      	ldr	r3, [pc, #344]	@ (1000642c <_etoa+0x570>)
100062d4:	f7ff f8a6 	bl	10005424 <__wrap___aeabi_dcmpge>
100062d8:	2800      	cmp	r0, #0
100062da:	d008      	beq.n	100062ee <_etoa+0x432>
100062dc:	9808      	ldr	r0, [sp, #32]
100062de:	9909      	ldr	r1, [sp, #36]	@ 0x24
100062e0:	2200      	movs	r2, #0
100062e2:	4b53      	ldr	r3, [pc, #332]	@ (10006430 <_etoa+0x574>)
100062e4:	f7ff f890 	bl	10005408 <__wrap___aeabi_dcmplt>
100062e8:	2800      	cmp	r0, #0
100062ea:	d000      	beq.n	100062ee <_etoa+0x432>
100062ec:	e6e5      	b.n	100060ba <_etoa+0x1fe>
100062ee:	9b24      	ldr	r3, [sp, #144]	@ 0x90
100062f0:	2b00      	cmp	r3, #0
100062f2:	d01c      	beq.n	1000632e <_etoa+0x472>
100062f4:	9b0d      	ldr	r3, [sp, #52]	@ 0x34
100062f6:	2b00      	cmp	r3, #0
100062f8:	d019      	beq.n	1000632e <_etoa+0x472>
100062fa:	9b24      	ldr	r3, [sp, #144]	@ 0x90
100062fc:	3b01      	subs	r3, #1
100062fe:	9324      	str	r3, [sp, #144]	@ 0x90
10006300:	9b25      	ldr	r3, [sp, #148]	@ 0x94
10006302:	42ab      	cmp	r3, r5
10006304:	d904      	bls.n	10006310 <_etoa+0x454>
10006306:	9b0c      	ldr	r3, [sp, #48]	@ 0x30
10006308:	2b00      	cmp	r3, #0
1000630a:	d05a      	beq.n	100063c2 <_etoa+0x506>
1000630c:	2302      	movs	r3, #2
1000630e:	930c      	str	r3, [sp, #48]	@ 0x30
10006310:	2300      	movs	r3, #0
10006312:	930b      	str	r3, [sp, #44]	@ 0x2c
10006314:	9b0a      	ldr	r3, [sp, #40]	@ 0x28
10006316:	2b00      	cmp	r3, #0
10006318:	d100      	bne.n	1000631c <_etoa+0x460>
1000631a:	e631      	b.n	10005f80 <_etoa+0xc4>
1000631c:	9808      	ldr	r0, [sp, #32]
1000631e:	9909      	ldr	r1, [sp, #36]	@ 0x24
10006320:	0032      	movs	r2, r6
10006322:	003b      	movs	r3, r7
10006324:	f7ff f817 	bl	10005356 <__wrap___aeabi_ddiv>
10006328:	9008      	str	r0, [sp, #32]
1000632a:	9109      	str	r1, [sp, #36]	@ 0x24
1000632c:	e628      	b.n	10005f80 <_etoa+0xc4>
1000632e:	9b25      	ldr	r3, [sp, #148]	@ 0x94
10006330:	42ab      	cmp	r3, r5
10006332:	d9ed      	bls.n	10006310 <_etoa+0x454>
10006334:	9b0c      	ldr	r3, [sp, #48]	@ 0x30
10006336:	2b00      	cmp	r3, #0
10006338:	d043      	beq.n	100063c2 <_etoa+0x506>
1000633a:	2300      	movs	r3, #0
1000633c:	930b      	str	r3, [sp, #44]	@ 0x2c
1000633e:	3302      	adds	r3, #2
10006340:	930c      	str	r3, [sp, #48]	@ 0x30
10006342:	e7e7      	b.n	10006314 <_etoa+0x458>
10006344:	2080      	movs	r0, #128	@ 0x80
10006346:	9b26      	ldr	r3, [sp, #152]	@ 0x98
10006348:	4a3a      	ldr	r2, [pc, #232]	@ (10006434 <_etoa+0x578>)
1000634a:	0600      	lsls	r0, r0, #24
1000634c:	401a      	ands	r2, r3
1000634e:	2380      	movs	r3, #128	@ 0x80
10006350:	4684      	mov	ip, r0
10006352:	9402      	str	r4, [sp, #8]
10006354:	9c08      	ldr	r4, [sp, #32]
10006356:	9d09      	ldr	r5, [sp, #36]	@ 0x24
10006358:	0029      	movs	r1, r5
1000635a:	00db      	lsls	r3, r3, #3
1000635c:	4313      	orrs	r3, r2
1000635e:	9304      	str	r3, [sp, #16]
10006360:	9b25      	ldr	r3, [sp, #148]	@ 0x94
10006362:	4461      	add	r1, ip
10006364:	0022      	movs	r2, r4
10006366:	9303      	str	r3, [sp, #12]
10006368:	000b      	movs	r3, r1
1000636a:	9200      	str	r2, [sp, #0]
1000636c:	9301      	str	r3, [sp, #4]
1000636e:	e68e      	b.n	1000608e <_etoa+0x1d2>
10006370:	2405      	movs	r4, #5
10006372:	e6a8      	b.n	100060c6 <_etoa+0x20a>
10006374:	2300      	movs	r3, #0
10006376:	930b      	str	r3, [sp, #44]	@ 0x2c
10006378:	930a      	str	r3, [sp, #40]	@ 0x28
1000637a:	3302      	adds	r3, #2
1000637c:	2504      	movs	r5, #4
1000637e:	930c      	str	r3, [sp, #48]	@ 0x30
10006380:	e5fe      	b.n	10005f80 <_etoa+0xc4>
10006382:	4653      	mov	r3, sl
10006384:	468c      	mov	ip, r1
10006386:	3b01      	subs	r3, #1
10006388:	4463      	add	r3, ip
1000638a:	1a1b      	subs	r3, r3, r0
1000638c:	e672      	b.n	10006074 <_etoa+0x1b8>
1000638e:	2302      	movs	r3, #2
10006390:	930c      	str	r3, [sp, #48]	@ 0x30
10006392:	2505      	movs	r5, #5
10006394:	e7c2      	b.n	1000631c <_etoa+0x460>
10006396:	2304      	movs	r3, #4
10006398:	e5ed      	b.n	10005f76 <_etoa+0xba>
1000639a:	2080      	movs	r0, #128	@ 0x80
1000639c:	9e08      	ldr	r6, [sp, #32]
1000639e:	9f09      	ldr	r7, [sp, #36]	@ 0x24
100063a0:	0600      	lsls	r0, r0, #24
100063a2:	0039      	movs	r1, r7
100063a4:	4684      	mov	ip, r0
100063a6:	9a26      	ldr	r2, [sp, #152]	@ 0x98
100063a8:	4b22      	ldr	r3, [pc, #136]	@ (10006434 <_etoa+0x578>)
100063aa:	4461      	add	r1, ip
100063ac:	4013      	ands	r3, r2
100063ae:	9304      	str	r3, [sp, #16]
100063b0:	9b0b      	ldr	r3, [sp, #44]	@ 0x2c
100063b2:	0032      	movs	r2, r6
100063b4:	9303      	str	r3, [sp, #12]
100063b6:	9b24      	ldr	r3, [sp, #144]	@ 0x90
100063b8:	9302      	str	r3, [sp, #8]
100063ba:	000b      	movs	r3, r1
100063bc:	9200      	str	r2, [sp, #0]
100063be:	9301      	str	r3, [sp, #4]
100063c0:	e5f3      	b.n	10005faa <_etoa+0xee>
100063c2:	9b25      	ldr	r3, [sp, #148]	@ 0x94
100063c4:	1b5b      	subs	r3, r3, r5
100063c6:	930b      	str	r3, [sp, #44]	@ 0x2c
100063c8:	e7a4      	b.n	10006314 <_etoa+0x458>
100063ca:	2302      	movs	r3, #2
100063cc:	2504      	movs	r5, #4
100063ce:	930c      	str	r3, [sp, #48]	@ 0x30
100063d0:	e7a0      	b.n	10006314 <_etoa+0x458>
100063d2:	1a9c      	subs	r4, r3, r2
100063d4:	3c01      	subs	r4, #1
100063d6:	e676      	b.n	100060c6 <_etoa+0x20a>
100063d8:	fffffc01 	.word	0xfffffc01
100063dc:	509f79fb 	.word	0x509f79fb
100063e0:	3fd34413 	.word	0x3fd34413
100063e4:	8b60c8b3 	.word	0x8b60c8b3
100063e8:	3fc68a28 	.word	0x3fc68a28
100063ec:	3ff00000 	.word	0x3ff00000
100063f0:	3ff80000 	.word	0x3ff80000
100063f4:	636f4361 	.word	0x636f4361
100063f8:	3fd287a7 	.word	0x3fd287a7
100063fc:	0979a371 	.word	0x0979a371
10006400:	400a934f 	.word	0x400a934f
10006404:	3fe00000 	.word	0x3fe00000
10006408:	bbb55516 	.word	0xbbb55516
1000640c:	40026bb1 	.word	0x40026bb1
10006410:	fefa39ef 	.word	0xfefa39ef
10006414:	3fe62e42 	.word	0x3fe62e42
10006418:	402c0000 	.word	0x402c0000
1000641c:	40240000 	.word	0x40240000
10006420:	40180000 	.word	0x40180000
10006424:	000003ff 	.word	0x000003ff
10006428:	eb1c432d 	.word	0xeb1c432d
1000642c:	3f1a36e2 	.word	0x3f1a36e2
10006430:	412e8480 	.word	0x412e8480
10006434:	fffff7ff 	.word	0xfffff7ff

10006438 <_vsnprintf>:
10006438:	b5f0      	push	{r4, r5, r6, r7, lr}
1000643a:	46de      	mov	lr, fp
1000643c:	4657      	mov	r7, sl
1000643e:	464e      	mov	r6, r9
10006440:	4645      	mov	r5, r8
10006442:	b5e0      	push	{r5, r6, r7, lr}
10006444:	b0a5      	sub	sp, #148	@ 0x94
10006446:	001e      	movs	r6, r3
10006448:	9b2e      	ldr	r3, [sp, #184]	@ 0xb8
1000644a:	4692      	mov	sl, r2
1000644c:	930c      	str	r3, [sp, #48]	@ 0x30
1000644e:	4acd      	ldr	r2, [pc, #820]	@ (10006784 <_vsnprintf+0x34c>)
10006450:	4bcd      	ldr	r3, [pc, #820]	@ (10006788 <_vsnprintf+0x350>)
10006452:	4680      	mov	r8, r0
10006454:	468b      	mov	fp, r1
10006456:	601a      	str	r2, [r3, #0]
10006458:	2900      	cmp	r1, #0
1000645a:	d100      	bne.n	1000645e <_vsnprintf+0x26>
1000645c:	e1ea      	b.n	10006834 <_vsnprintf+0x3fc>
1000645e:	2300      	movs	r3, #0
10006460:	7830      	ldrb	r0, [r6, #0]
10006462:	4699      	mov	r9, r3
10006464:	2800      	cmp	r0, #0
10006466:	d100      	bne.n	1000646a <_vsnprintf+0x32>
10006468:	e1ec      	b.n	10006844 <_vsnprintf+0x40c>
1000646a:	4bc8      	ldr	r3, [pc, #800]	@ (1000678c <_vsnprintf+0x354>)
1000646c:	464c      	mov	r4, r9
1000646e:	930b      	str	r3, [sp, #44]	@ 0x2c
10006470:	4bc7      	ldr	r3, [pc, #796]	@ (10006790 <_vsnprintf+0x358>)
10006472:	4645      	mov	r5, r8
10006474:	4657      	mov	r7, sl
10006476:	930e      	str	r3, [sp, #56]	@ 0x38
10006478:	e00a      	b.n	10006490 <_vsnprintf+0x58>
1000647a:	1c63      	adds	r3, r4, #1
1000647c:	4698      	mov	r8, r3
1000647e:	0022      	movs	r2, r4
10006480:	003b      	movs	r3, r7
10006482:	4659      	mov	r1, fp
10006484:	47a8      	blx	r5
10006486:	4644      	mov	r4, r8
10006488:	7830      	ldrb	r0, [r6, #0]
1000648a:	2800      	cmp	r0, #0
1000648c:	d100      	bne.n	10006490 <_vsnprintf+0x58>
1000648e:	e087      	b.n	100065a0 <_vsnprintf+0x168>
10006490:	3601      	adds	r6, #1
10006492:	2825      	cmp	r0, #37	@ 0x25
10006494:	d1f1      	bne.n	1000647a <_vsnprintf+0x42>
10006496:	2308      	movs	r3, #8
10006498:	469a      	mov	sl, r3
1000649a:	3b04      	subs	r3, #4
1000649c:	4699      	mov	r9, r3
1000649e:	3b02      	subs	r3, #2
100064a0:	4698      	mov	r8, r3
100064a2:	3b01      	subs	r3, #1
100064a4:	2200      	movs	r2, #0
100064a6:	469c      	mov	ip, r3
100064a8:	940d      	str	r4, [sp, #52]	@ 0x34
100064aa:	7830      	ldrb	r0, [r6, #0]
100064ac:	1c71      	adds	r1, r6, #1
100064ae:	0003      	movs	r3, r0
100064b0:	3b20      	subs	r3, #32
100064b2:	b2db      	uxtb	r3, r3
100064b4:	2b10      	cmp	r3, #16
100064b6:	d803      	bhi.n	100064c0 <_vsnprintf+0x88>
100064b8:	9c0b      	ldr	r4, [sp, #44]	@ 0x2c
100064ba:	009b      	lsls	r3, r3, #2
100064bc:	58e3      	ldr	r3, [r4, r3]
100064be:	469f      	mov	pc, r3
100064c0:	0003      	movs	r3, r0
100064c2:	3b30      	subs	r3, #48	@ 0x30
100064c4:	4689      	mov	r9, r1
100064c6:	9c0d      	ldr	r4, [sp, #52]	@ 0x34
100064c8:	2b09      	cmp	r3, #9
100064ca:	d93a      	bls.n	10006542 <_vsnprintf+0x10a>
100064cc:	2300      	movs	r3, #0
100064ce:	4698      	mov	r8, r3
100064d0:	282a      	cmp	r0, #42	@ 0x2a
100064d2:	d100      	bne.n	100064d6 <_vsnprintf+0x9e>
100064d4:	e0c1      	b.n	1000665a <_vsnprintf+0x222>
100064d6:	2300      	movs	r3, #0
100064d8:	469a      	mov	sl, r3
100064da:	282e      	cmp	r0, #46	@ 0x2e
100064dc:	d04b      	beq.n	10006576 <_vsnprintf+0x13e>
100064de:	0003      	movs	r3, r0
100064e0:	3b68      	subs	r3, #104	@ 0x68
100064e2:	b2db      	uxtb	r3, r3
100064e4:	2b12      	cmp	r3, #18
100064e6:	d81e      	bhi.n	10006526 <_vsnprintf+0xee>
100064e8:	990e      	ldr	r1, [sp, #56]	@ 0x38
100064ea:	009b      	lsls	r3, r3, #2
100064ec:	58cb      	ldr	r3, [r1, r3]
100064ee:	469f      	mov	pc, r3
100064f0:	4663      	mov	r3, ip
100064f2:	000e      	movs	r6, r1
100064f4:	431a      	orrs	r2, r3
100064f6:	e7d8      	b.n	100064aa <_vsnprintf+0x72>
100064f8:	4643      	mov	r3, r8
100064fa:	000e      	movs	r6, r1
100064fc:	431a      	orrs	r2, r3
100064fe:	e7d4      	b.n	100064aa <_vsnprintf+0x72>
10006500:	464b      	mov	r3, r9
10006502:	000e      	movs	r6, r1
10006504:	431a      	orrs	r2, r3
10006506:	e7d0      	b.n	100064aa <_vsnprintf+0x72>
10006508:	2310      	movs	r3, #16
1000650a:	000e      	movs	r6, r1
1000650c:	431a      	orrs	r2, r3
1000650e:	e7cc      	b.n	100064aa <_vsnprintf+0x72>
10006510:	4653      	mov	r3, sl
10006512:	000e      	movs	r6, r1
10006514:	431a      	orrs	r2, r3
10006516:	e7c8      	b.n	100064aa <_vsnprintf+0x72>
10006518:	2380      	movs	r3, #128	@ 0x80
1000651a:	005b      	lsls	r3, r3, #1
1000651c:	431a      	orrs	r2, r3
1000651e:	3bff      	subs	r3, #255	@ 0xff
10006520:	469c      	mov	ip, r3
10006522:	7870      	ldrb	r0, [r6, #1]
10006524:	44e1      	add	r9, ip
10006526:	464e      	mov	r6, r9
10006528:	2867      	cmp	r0, #103	@ 0x67
1000652a:	d84f      	bhi.n	100065cc <_vsnprintf+0x194>
1000652c:	2824      	cmp	r0, #36	@ 0x24
1000652e:	d9a4      	bls.n	1000647a <_vsnprintf+0x42>
10006530:	0003      	movs	r3, r0
10006532:	3b25      	subs	r3, #37	@ 0x25
10006534:	b2db      	uxtb	r3, r3
10006536:	2b42      	cmp	r3, #66	@ 0x42
10006538:	d89f      	bhi.n	1000647a <_vsnprintf+0x42>
1000653a:	4996      	ldr	r1, [pc, #600]	@ (10006794 <_vsnprintf+0x35c>)
1000653c:	009b      	lsls	r3, r3, #2
1000653e:	58cb      	ldr	r3, [r1, r3]
10006540:	469f      	mov	pc, r3
10006542:	2300      	movs	r3, #0
10006544:	4694      	mov	ip, r2
10006546:	001e      	movs	r6, r3
10006548:	e000      	b.n	1000654c <_vsnprintf+0x114>
1000654a:	3101      	adds	r1, #1
1000654c:	00b3      	lsls	r3, r6, #2
1000654e:	199b      	adds	r3, r3, r6
10006550:	005b      	lsls	r3, r3, #1
10006552:	181e      	adds	r6, r3, r0
10006554:	7808      	ldrb	r0, [r1, #0]
10006556:	3e30      	subs	r6, #48	@ 0x30
10006558:	0003      	movs	r3, r0
1000655a:	3b30      	subs	r3, #48	@ 0x30
1000655c:	2b09      	cmp	r3, #9
1000655e:	d9f4      	bls.n	1000654a <_vsnprintf+0x112>
10006560:	2301      	movs	r3, #1
10006562:	4662      	mov	r2, ip
10006564:	4689      	mov	r9, r1
10006566:	469c      	mov	ip, r3
10006568:	2300      	movs	r3, #0
1000656a:	46b0      	mov	r8, r6
1000656c:	469a      	mov	sl, r3
1000656e:	000e      	movs	r6, r1
10006570:	44e1      	add	r9, ip
10006572:	282e      	cmp	r0, #46	@ 0x2e
10006574:	d1b3      	bne.n	100064de <_vsnprintf+0xa6>
10006576:	2130      	movs	r1, #48	@ 0x30
10006578:	2080      	movs	r0, #128	@ 0x80
1000657a:	4249      	negs	r1, r1
1000657c:	468c      	mov	ip, r1
1000657e:	00c0      	lsls	r0, r0, #3
10006580:	4302      	orrs	r2, r0
10006582:	7870      	ldrb	r0, [r6, #1]
10006584:	464b      	mov	r3, r9
10006586:	4484      	add	ip, r0
10006588:	4661      	mov	r1, ip
1000658a:	2909      	cmp	r1, #9
1000658c:	d800      	bhi.n	10006590 <_vsnprintf+0x158>
1000658e:	e16c      	b.n	1000686a <_vsnprintf+0x432>
10006590:	282a      	cmp	r0, #42	@ 0x2a
10006592:	d100      	bne.n	10006596 <_vsnprintf+0x15e>
10006594:	e17a      	b.n	1000688c <_vsnprintf+0x454>
10006596:	2301      	movs	r3, #1
10006598:	469c      	mov	ip, r3
1000659a:	464e      	mov	r6, r9
1000659c:	44e1      	add	r9, ip
1000659e:	e79e      	b.n	100064de <_vsnprintf+0xa6>
100065a0:	46a1      	mov	r9, r4
100065a2:	46a8      	mov	r8, r5
100065a4:	46ba      	mov	sl, r7
100065a6:	45ca      	cmp	sl, r9
100065a8:	d803      	bhi.n	100065b2 <_vsnprintf+0x17a>
100065aa:	2301      	movs	r3, #1
100065ac:	425b      	negs	r3, r3
100065ae:	4453      	add	r3, sl
100065b0:	4699      	mov	r9, r3
100065b2:	4653      	mov	r3, sl
100065b4:	464a      	mov	r2, r9
100065b6:	4659      	mov	r1, fp
100065b8:	2000      	movs	r0, #0
100065ba:	47c0      	blx	r8
100065bc:	0020      	movs	r0, r4
100065be:	b025      	add	sp, #148	@ 0x94
100065c0:	bcf0      	pop	{r4, r5, r6, r7}
100065c2:	46bb      	mov	fp, r7
100065c4:	46b2      	mov	sl, r6
100065c6:	46a9      	mov	r9, r5
100065c8:	46a0      	mov	r8, r4
100065ca:	bdf0      	pop	{r4, r5, r6, r7, pc}
100065cc:	0003      	movs	r3, r0
100065ce:	3b69      	subs	r3, #105	@ 0x69
100065d0:	b2db      	uxtb	r3, r3
100065d2:	930d      	str	r3, [sp, #52]	@ 0x34
100065d4:	2b0f      	cmp	r3, #15
100065d6:	d900      	bls.n	100065da <_vsnprintf+0x1a2>
100065d8:	e74f      	b.n	1000647a <_vsnprintf+0x42>
100065da:	2101      	movs	r1, #1
100065dc:	4099      	lsls	r1, r3
100065de:	468c      	mov	ip, r1
100065e0:	496d      	ldr	r1, [pc, #436]	@ (10006798 <_vsnprintf+0x360>)
100065e2:	4689      	mov	r9, r1
100065e4:	4661      	mov	r1, ip
100065e6:	464b      	mov	r3, r9
100065e8:	4019      	ands	r1, r3
100065ea:	910f      	str	r1, [sp, #60]	@ 0x3c
100065ec:	4663      	mov	r3, ip
100065ee:	4649      	mov	r1, r9
100065f0:	420b      	tst	r3, r1
100065f2:	d000      	beq.n	100065f6 <_vsnprintf+0x1be>
100065f4:	e128      	b.n	10006848 <_vsnprintf+0x410>
100065f6:	9b0d      	ldr	r3, [sp, #52]	@ 0x34
100065f8:	2b0a      	cmp	r3, #10
100065fa:	d03a      	beq.n	10006672 <_vsnprintf+0x23a>
100065fc:	2b07      	cmp	r3, #7
100065fe:	d000      	beq.n	10006602 <_vsnprintf+0x1ca>
10006600:	e73b      	b.n	1000647a <_vsnprintf+0x42>
10006602:	9b0c      	ldr	r3, [sp, #48]	@ 0x30
10006604:	0019      	movs	r1, r3
10006606:	c908      	ldmia	r1!, {r3}
10006608:	4688      	mov	r8, r1
1000660a:	2b00      	cmp	r3, #0
1000660c:	d100      	bne.n	10006610 <_vsnprintf+0x1d8>
1000660e:	e14b      	b.n	100068a8 <_vsnprintf+0x470>
10006610:	2021      	movs	r0, #33	@ 0x21
10006612:	4302      	orrs	r2, r0
10006614:	4691      	mov	r9, r2
10006616:	a914      	add	r1, sp, #80	@ 0x50
10006618:	468c      	mov	ip, r1
1000661a:	221f      	movs	r2, #31
1000661c:	210f      	movs	r1, #15
1000661e:	4462      	add	r2, ip
10006620:	468c      	mov	ip, r1
10006622:	4651      	mov	r1, sl
10006624:	950d      	str	r5, [sp, #52]	@ 0x34
10006626:	910c      	str	r1, [sp, #48]	@ 0x30
10006628:	46a2      	mov	sl, r4
1000662a:	0015      	movs	r5, r2
1000662c:	990f      	ldr	r1, [sp, #60]	@ 0x3c
1000662e:	e002      	b.n	10006636 <_vsnprintf+0x1fe>
10006630:	2920      	cmp	r1, #32
10006632:	d00c      	beq.n	1000664e <_vsnprintf+0x216>
10006634:	0013      	movs	r3, r2
10006636:	4664      	mov	r4, ip
10006638:	401c      	ands	r4, r3
1000663a:	0020      	movs	r0, r4
1000663c:	3037      	adds	r0, #55	@ 0x37
1000663e:	2c09      	cmp	r4, #9
10006640:	d800      	bhi.n	10006644 <_vsnprintf+0x20c>
10006642:	3807      	subs	r0, #7
10006644:	3101      	adds	r1, #1
10006646:	5468      	strb	r0, [r5, r1]
10006648:	091a      	lsrs	r2, r3, #4
1000664a:	2b0f      	cmp	r3, #15
1000664c:	d8f0      	bhi.n	10006630 <_vsnprintf+0x1f8>
1000664e:	9b0c      	ldr	r3, [sp, #48]	@ 0x30
10006650:	4654      	mov	r4, sl
10006652:	9d0d      	ldr	r5, [sp, #52]	@ 0x34
10006654:	469a      	mov	sl, r3
10006656:	910f      	str	r1, [sp, #60]	@ 0x3c
10006658:	e133      	b.n	100068c2 <_vsnprintf+0x48a>
1000665a:	9b0c      	ldr	r3, [sp, #48]	@ 0x30
1000665c:	cb02      	ldmia	r3!, {r1}
1000665e:	4688      	mov	r8, r1
10006660:	2900      	cmp	r1, #0
10006662:	db47      	blt.n	100066f4 <_vsnprintf+0x2bc>
10006664:	930c      	str	r3, [sp, #48]	@ 0x30
10006666:	2301      	movs	r3, #1
10006668:	469c      	mov	ip, r3
1000666a:	7870      	ldrb	r0, [r6, #1]
1000666c:	464e      	mov	r6, r9
1000666e:	44e1      	add	r9, ip
10006670:	e731      	b.n	100064d6 <_vsnprintf+0x9e>
10006672:	9b0c      	ldr	r3, [sp, #48]	@ 0x30
10006674:	cb02      	ldmia	r3!, {r1}
10006676:	9314      	str	r3, [sp, #80]	@ 0x50
10006678:	4653      	mov	r3, sl
1000667a:	2b00      	cmp	r3, #0
1000667c:	d100      	bne.n	10006680 <_vsnprintf+0x248>
1000667e:	e138      	b.n	100068f2 <_vsnprintf+0x4ba>
10006680:	469c      	mov	ip, r3
10006682:	7808      	ldrb	r0, [r1, #0]
10006684:	000b      	movs	r3, r1
10006686:	900c      	str	r0, [sp, #48]	@ 0x30
10006688:	448c      	add	ip, r1
1000668a:	2800      	cmp	r0, #0
1000668c:	d101      	bne.n	10006692 <_vsnprintf+0x25a>
1000668e:	f000 fc98 	bl	10006fc2 <_vsnprintf+0xb8a>
10006692:	4689      	mov	r9, r1
10006694:	4661      	mov	r1, ip
10006696:	4694      	mov	ip, r2
10006698:	e003      	b.n	100066a2 <_vsnprintf+0x26a>
1000669a:	785a      	ldrb	r2, [r3, #1]
1000669c:	3301      	adds	r3, #1
1000669e:	2a00      	cmp	r2, #0
100066a0:	d001      	beq.n	100066a6 <_vsnprintf+0x26e>
100066a2:	428b      	cmp	r3, r1
100066a4:	d1f9      	bne.n	1000669a <_vsnprintf+0x262>
100066a6:	4649      	mov	r1, r9
100066a8:	4662      	mov	r2, ip
100066aa:	1a5b      	subs	r3, r3, r1
100066ac:	900c      	str	r0, [sp, #48]	@ 0x30
100066ae:	930f      	str	r3, [sp, #60]	@ 0x3c
100066b0:	0553      	lsls	r3, r2, #21
100066b2:	d500      	bpl.n	100066b6 <_vsnprintf+0x27e>
100066b4:	e120      	b.n	100068f8 <_vsnprintf+0x4c0>
100066b6:	2302      	movs	r3, #2
100066b8:	0018      	movs	r0, r3
100066ba:	4010      	ands	r0, r2
100066bc:	900d      	str	r0, [sp, #52]	@ 0x34
100066be:	4213      	tst	r3, r2
100066c0:	d100      	bne.n	100066c4 <_vsnprintf+0x28c>
100066c2:	e3cb      	b.n	10006e5c <_vsnprintf+0xa24>
100066c4:	930d      	str	r3, [sp, #52]	@ 0x34
100066c6:	1b0b      	subs	r3, r1, r4
100066c8:	46b1      	mov	r9, r6
100066ca:	469a      	mov	sl, r3
100066cc:	465e      	mov	r6, fp
100066ce:	980c      	ldr	r0, [sp, #48]	@ 0x30
100066d0:	0022      	movs	r2, r4
100066d2:	003b      	movs	r3, r7
100066d4:	0031      	movs	r1, r6
100066d6:	47a8      	blx	r5
100066d8:	4653      	mov	r3, sl
100066da:	3401      	adds	r4, #1
100066dc:	5d18      	ldrb	r0, [r3, r4]
100066de:	2800      	cmp	r0, #0
100066e0:	d1f6      	bne.n	100066d0 <_vsnprintf+0x298>
100066e2:	46b3      	mov	fp, r6
100066e4:	464e      	mov	r6, r9
100066e6:	9b0d      	ldr	r3, [sp, #52]	@ 0x34
100066e8:	2b00      	cmp	r3, #0
100066ea:	d000      	beq.n	100066ee <_vsnprintf+0x2b6>
100066ec:	e1c7      	b.n	10006a7e <_vsnprintf+0x646>
100066ee:	9b14      	ldr	r3, [sp, #80]	@ 0x50
100066f0:	930c      	str	r3, [sp, #48]	@ 0x30
100066f2:	e6c9      	b.n	10006488 <_vsnprintf+0x50>
100066f4:	930c      	str	r3, [sp, #48]	@ 0x30
100066f6:	2301      	movs	r3, #1
100066f8:	469c      	mov	ip, r3
100066fa:	3828      	subs	r0, #40	@ 0x28
100066fc:	4249      	negs	r1, r1
100066fe:	4302      	orrs	r2, r0
10006700:	4688      	mov	r8, r1
10006702:	7870      	ldrb	r0, [r6, #1]
10006704:	464e      	mov	r6, r9
10006706:	44e1      	add	r9, ip
10006708:	e6e5      	b.n	100064d6 <_vsnprintf+0x9e>
1000670a:	7870      	ldrb	r0, [r6, #1]
1000670c:	286c      	cmp	r0, #108	@ 0x6c
1000670e:	d100      	bne.n	10006712 <_vsnprintf+0x2da>
10006710:	e17f      	b.n	10006a12 <_vsnprintf+0x5da>
10006712:	2380      	movs	r3, #128	@ 0x80
10006714:	005b      	lsls	r3, r3, #1
10006716:	431a      	orrs	r2, r3
10006718:	3bff      	subs	r3, #255	@ 0xff
1000671a:	469c      	mov	ip, r3
1000671c:	44e1      	add	r9, ip
1000671e:	e702      	b.n	10006526 <_vsnprintf+0xee>
10006720:	2380      	movs	r3, #128	@ 0x80
10006722:	009b      	lsls	r3, r3, #2
10006724:	431a      	orrs	r2, r3
10006726:	2301      	movs	r3, #1
10006728:	469c      	mov	ip, r3
1000672a:	7870      	ldrb	r0, [r6, #1]
1000672c:	44e1      	add	r9, ip
1000672e:	e6fa      	b.n	10006526 <_vsnprintf+0xee>
10006730:	7870      	ldrb	r0, [r6, #1]
10006732:	2868      	cmp	r0, #104	@ 0x68
10006734:	d100      	bne.n	10006738 <_vsnprintf+0x300>
10006736:	e173      	b.n	10006a20 <_vsnprintf+0x5e8>
10006738:	2380      	movs	r3, #128	@ 0x80
1000673a:	431a      	orrs	r2, r3
1000673c:	3b7f      	subs	r3, #127	@ 0x7f
1000673e:	469c      	mov	ip, r3
10006740:	44e1      	add	r9, ip
10006742:	e6f0      	b.n	10006526 <_vsnprintf+0xee>
10006744:	2867      	cmp	r0, #103	@ 0x67
10006746:	d100      	bne.n	1000674a <_vsnprintf+0x312>
10006748:	e103      	b.n	10006952 <_vsnprintf+0x51a>
1000674a:	2847      	cmp	r0, #71	@ 0x47
1000674c:	d100      	bne.n	10006750 <_vsnprintf+0x318>
1000674e:	e15a      	b.n	10006a06 <_vsnprintf+0x5ce>
10006750:	2845      	cmp	r0, #69	@ 0x45
10006752:	d100      	bne.n	10006756 <_vsnprintf+0x31e>
10006754:	e15a      	b.n	10006a0c <_vsnprintf+0x5d4>
10006756:	9204      	str	r2, [sp, #16]
10006758:	2107      	movs	r1, #7
1000675a:	4642      	mov	r2, r8
1000675c:	9b0c      	ldr	r3, [sp, #48]	@ 0x30
1000675e:	9203      	str	r2, [sp, #12]
10006760:	3307      	adds	r3, #7
10006762:	4652      	mov	r2, sl
10006764:	438b      	bics	r3, r1
10006766:	0019      	movs	r1, r3
10006768:	9202      	str	r2, [sp, #8]
1000676a:	c90c      	ldmia	r1!, {r2, r3}
1000676c:	0028      	movs	r0, r5
1000676e:	9200      	str	r2, [sp, #0]
10006770:	9301      	str	r3, [sp, #4]
10006772:	910c      	str	r1, [sp, #48]	@ 0x30
10006774:	0022      	movs	r2, r4
10006776:	003b      	movs	r3, r7
10006778:	4659      	mov	r1, fp
1000677a:	f7ff fb9f 	bl	10005ebc <_etoa>
1000677e:	0004      	movs	r4, r0
10006780:	e682      	b.n	10006488 <_vsnprintf+0x50>
10006782:	46c0      	nop			@ (mov r8, r8)
10006784:	10006439 	.word	0x10006439
10006788:	2000516c 	.word	0x2000516c
1000678c:	1000c088 	.word	0x1000c088
10006790:	1000c0cc 	.word	0x1000c0cc
10006794:	1000c118 	.word	0x1000c118
10006798:	00009041 	.word	0x00009041
1000679c:	2846      	cmp	r0, #70	@ 0x46
1000679e:	d100      	bne.n	100067a2 <_vsnprintf+0x36a>
100067a0:	e0db      	b.n	1000695a <_vsnprintf+0x522>
100067a2:	9204      	str	r2, [sp, #16]
100067a4:	2107      	movs	r1, #7
100067a6:	4642      	mov	r2, r8
100067a8:	9b0c      	ldr	r3, [sp, #48]	@ 0x30
100067aa:	9203      	str	r2, [sp, #12]
100067ac:	3307      	adds	r3, #7
100067ae:	4652      	mov	r2, sl
100067b0:	438b      	bics	r3, r1
100067b2:	0019      	movs	r1, r3
100067b4:	9202      	str	r2, [sp, #8]
100067b6:	c90c      	ldmia	r1!, {r2, r3}
100067b8:	0028      	movs	r0, r5
100067ba:	9200      	str	r2, [sp, #0]
100067bc:	9301      	str	r3, [sp, #4]
100067be:	910c      	str	r1, [sp, #48]	@ 0x30
100067c0:	0022      	movs	r2, r4
100067c2:	003b      	movs	r3, r7
100067c4:	4659      	mov	r1, fp
100067c6:	f7ff f925 	bl	10005a14 <_ftoa>
100067ca:	0004      	movs	r4, r0
100067cc:	e65c      	b.n	10006488 <_vsnprintf+0x50>
100067ce:	1c63      	adds	r3, r4, #1
100067d0:	4698      	mov	r8, r3
100067d2:	0022      	movs	r2, r4
100067d4:	003b      	movs	r3, r7
100067d6:	4659      	mov	r1, fp
100067d8:	2025      	movs	r0, #37	@ 0x25
100067da:	47a8      	blx	r5
100067dc:	4644      	mov	r4, r8
100067de:	e653      	b.n	10006488 <_vsnprintf+0x50>
100067e0:	9b0c      	ldr	r3, [sp, #48]	@ 0x30
100067e2:	3304      	adds	r3, #4
100067e4:	930d      	str	r3, [sp, #52]	@ 0x34
100067e6:	1c63      	adds	r3, r4, #1
100067e8:	4699      	mov	r9, r3
100067ea:	0792      	lsls	r2, r2, #30
100067ec:	d400      	bmi.n	100067f0 <_vsnprintf+0x3b8>
100067ee:	e122      	b.n	10006a36 <_vsnprintf+0x5fe>
100067f0:	9b0c      	ldr	r3, [sp, #48]	@ 0x30
100067f2:	0022      	movs	r2, r4
100067f4:	7818      	ldrb	r0, [r3, #0]
100067f6:	4659      	mov	r1, fp
100067f8:	003b      	movs	r3, r7
100067fa:	47a8      	blx	r5
100067fc:	4643      	mov	r3, r8
100067fe:	4444      	add	r4, r8
10006800:	2b01      	cmp	r3, #1
10006802:	d800      	bhi.n	10006806 <_vsnprintf+0x3ce>
10006804:	e285      	b.n	10006d12 <_vsnprintf+0x8da>
10006806:	0033      	movs	r3, r6
10006808:	46b8      	mov	r8, r7
1000680a:	002e      	movs	r6, r5
1000680c:	465f      	mov	r7, fp
1000680e:	0025      	movs	r5, r4
10006810:	464c      	mov	r4, r9
10006812:	4699      	mov	r9, r3
10006814:	0022      	movs	r2, r4
10006816:	4643      	mov	r3, r8
10006818:	3401      	adds	r4, #1
1000681a:	0039      	movs	r1, r7
1000681c:	2020      	movs	r0, #32
1000681e:	47b0      	blx	r6
10006820:	42ac      	cmp	r4, r5
10006822:	d1f7      	bne.n	10006814 <_vsnprintf+0x3dc>
10006824:	002c      	movs	r4, r5
10006826:	46bb      	mov	fp, r7
10006828:	0035      	movs	r5, r6
1000682a:	4647      	mov	r7, r8
1000682c:	464e      	mov	r6, r9
1000682e:	9b0d      	ldr	r3, [sp, #52]	@ 0x34
10006830:	930c      	str	r3, [sp, #48]	@ 0x30
10006832:	e629      	b.n	10006488 <_vsnprintf+0x50>
10006834:	4bdb      	ldr	r3, [pc, #876]	@ (10006ba4 <_vsnprintf+0x76c>)
10006836:	7830      	ldrb	r0, [r6, #0]
10006838:	4698      	mov	r8, r3
1000683a:	2300      	movs	r3, #0
1000683c:	4699      	mov	r9, r3
1000683e:	2800      	cmp	r0, #0
10006840:	d000      	beq.n	10006844 <_vsnprintf+0x40c>
10006842:	e612      	b.n	1000646a <_vsnprintf+0x32>
10006844:	2400      	movs	r4, #0
10006846:	e6ae      	b.n	100065a6 <_vsnprintf+0x16e>
10006848:	286f      	cmp	r0, #111	@ 0x6f
1000684a:	d100      	bne.n	1000684e <_vsnprintf+0x416>
1000684c:	e088      	b.n	10006960 <_vsnprintf+0x528>
1000684e:	d800      	bhi.n	10006852 <_vsnprintf+0x41a>
10006850:	e30b      	b.n	10006e6a <_vsnprintf+0xa32>
10006852:	2310      	movs	r3, #16
10006854:	2878      	cmp	r0, #120	@ 0x78
10006856:	d100      	bne.n	1000685a <_vsnprintf+0x422>
10006858:	e0cf      	b.n	100069fa <_vsnprintf+0x5c2>
1000685a:	439a      	bics	r2, r3
1000685c:	230a      	movs	r3, #10
1000685e:	469c      	mov	ip, r3
10006860:	2300      	movs	r3, #0
10006862:	930f      	str	r3, [sp, #60]	@ 0x3c
10006864:	330a      	adds	r3, #10
10006866:	930d      	str	r3, [sp, #52]	@ 0x34
10006868:	e080      	b.n	1000696c <_vsnprintf+0x534>
1000686a:	4656      	mov	r6, sl
1000686c:	00b1      	lsls	r1, r6, #2
1000686e:	1989      	adds	r1, r1, r6
10006870:	0049      	lsls	r1, r1, #1
10006872:	3301      	adds	r3, #1
10006874:	180e      	adds	r6, r1, r0
10006876:	7818      	ldrb	r0, [r3, #0]
10006878:	3e30      	subs	r6, #48	@ 0x30
1000687a:	0001      	movs	r1, r0
1000687c:	3930      	subs	r1, #48	@ 0x30
1000687e:	2909      	cmp	r1, #9
10006880:	d9f4      	bls.n	1000686c <_vsnprintf+0x434>
10006882:	46b2      	mov	sl, r6
10006884:	001e      	movs	r6, r3
10006886:	3301      	adds	r3, #1
10006888:	4699      	mov	r9, r3
1000688a:	e628      	b.n	100064de <_vsnprintf+0xa6>
1000688c:	9b0c      	ldr	r3, [sp, #48]	@ 0x30
1000688e:	3602      	adds	r6, #2
10006890:	cb02      	ldmia	r3!, {r1}
10006892:	468a      	mov	sl, r1
10006894:	43c9      	mvns	r1, r1
10006896:	4650      	mov	r0, sl
10006898:	17c9      	asrs	r1, r1, #31
1000689a:	4008      	ands	r0, r1
1000689c:	4682      	mov	sl, r0
1000689e:	930c      	str	r3, [sp, #48]	@ 0x30
100068a0:	7830      	ldrb	r0, [r6, #0]
100068a2:	1c73      	adds	r3, r6, #1
100068a4:	4699      	mov	r9, r3
100068a6:	e61a      	b.n	100064de <_vsnprintf+0xa6>
100068a8:	2310      	movs	r3, #16
100068aa:	0010      	movs	r0, r2
100068ac:	4398      	bics	r0, r3
100068ae:	3311      	adds	r3, #17
100068b0:	4318      	orrs	r0, r3
100068b2:	4681      	mov	r9, r0
100068b4:	2080      	movs	r0, #128	@ 0x80
100068b6:	0013      	movs	r3, r2
100068b8:	00c0      	lsls	r0, r0, #3
100068ba:	4003      	ands	r3, r0
100068bc:	4202      	tst	r2, r0
100068be:	d100      	bne.n	100068c2 <_vsnprintf+0x48a>
100068c0:	e6a9      	b.n	10006616 <_vsnprintf+0x1de>
100068c2:	464b      	mov	r3, r9
100068c4:	9306      	str	r3, [sp, #24]
100068c6:	2308      	movs	r3, #8
100068c8:	9305      	str	r3, [sp, #20]
100068ca:	4653      	mov	r3, sl
100068cc:	9304      	str	r3, [sp, #16]
100068ce:	2310      	movs	r3, #16
100068d0:	9303      	str	r3, [sp, #12]
100068d2:	2300      	movs	r3, #0
100068d4:	9302      	str	r3, [sp, #8]
100068d6:	9b0f      	ldr	r3, [sp, #60]	@ 0x3c
100068d8:	0022      	movs	r2, r4
100068da:	9301      	str	r3, [sp, #4]
100068dc:	ab1c      	add	r3, sp, #112	@ 0x70
100068de:	9300      	str	r3, [sp, #0]
100068e0:	4659      	mov	r1, fp
100068e2:	003b      	movs	r3, r7
100068e4:	0028      	movs	r0, r5
100068e6:	f7fe ff9f 	bl	10005828 <_ntoa_format>
100068ea:	4643      	mov	r3, r8
100068ec:	0004      	movs	r4, r0
100068ee:	930c      	str	r3, [sp, #48]	@ 0x30
100068f0:	e5ca      	b.n	10006488 <_vsnprintf+0x50>
100068f2:	2301      	movs	r3, #1
100068f4:	425b      	negs	r3, r3
100068f6:	e6c3      	b.n	10006680 <_vsnprintf+0x248>
100068f8:	9b0f      	ldr	r3, [sp, #60]	@ 0x3c
100068fa:	4553      	cmp	r3, sl
100068fc:	d901      	bls.n	10006902 <_vsnprintf+0x4ca>
100068fe:	4653      	mov	r3, sl
10006900:	930f      	str	r3, [sp, #60]	@ 0x3c
10006902:	2302      	movs	r3, #2
10006904:	0018      	movs	r0, r3
10006906:	4010      	ands	r0, r2
10006908:	900d      	str	r0, [sp, #52]	@ 0x34
1000690a:	4213      	tst	r3, r2
1000690c:	d100      	bne.n	10006910 <_vsnprintf+0x4d8>
1000690e:	e1b7      	b.n	10006c80 <_vsnprintf+0x848>
10006910:	930d      	str	r3, [sp, #52]	@ 0x34
10006912:	46d1      	mov	r9, sl
10006914:	1b0b      	subs	r3, r1, r4
10006916:	469a      	mov	sl, r3
10006918:	0033      	movs	r3, r6
1000691a:	44a1      	add	r9, r4
1000691c:	002e      	movs	r6, r5
1000691e:	0022      	movs	r2, r4
10006920:	464d      	mov	r5, r9
10006922:	980c      	ldr	r0, [sp, #48]	@ 0x30
10006924:	46b9      	mov	r9, r7
10006926:	465f      	mov	r7, fp
10006928:	469b      	mov	fp, r3
1000692a:	e008      	b.n	1000693e <_vsnprintf+0x506>
1000692c:	464b      	mov	r3, r9
1000692e:	0039      	movs	r1, r7
10006930:	1c54      	adds	r4, r2, #1
10006932:	47b0      	blx	r6
10006934:	4653      	mov	r3, sl
10006936:	5d18      	ldrb	r0, [r3, r4]
10006938:	2800      	cmp	r0, #0
1000693a:	d077      	beq.n	10006a2c <_vsnprintf+0x5f4>
1000693c:	0022      	movs	r2, r4
1000693e:	4295      	cmp	r5, r2
10006940:	d1f4      	bne.n	1000692c <_vsnprintf+0x4f4>
10006942:	465b      	mov	r3, fp
10006944:	46bb      	mov	fp, r7
10006946:	464f      	mov	r7, r9
10006948:	46a9      	mov	r9, r5
1000694a:	0035      	movs	r5, r6
1000694c:	464c      	mov	r4, r9
1000694e:	001e      	movs	r6, r3
10006950:	e6c9      	b.n	100066e6 <_vsnprintf+0x2ae>
10006952:	2380      	movs	r3, #128	@ 0x80
10006954:	011b      	lsls	r3, r3, #4
10006956:	431a      	orrs	r2, r3
10006958:	e6fd      	b.n	10006756 <_vsnprintf+0x31e>
1000695a:	2320      	movs	r3, #32
1000695c:	431a      	orrs	r2, r3
1000695e:	e720      	b.n	100067a2 <_vsnprintf+0x36a>
10006960:	2308      	movs	r3, #8
10006962:	469c      	mov	ip, r3
10006964:	2300      	movs	r3, #0
10006966:	930f      	str	r3, [sp, #60]	@ 0x3c
10006968:	3308      	adds	r3, #8
1000696a:	930d      	str	r3, [sp, #52]	@ 0x34
1000696c:	2380      	movs	r3, #128	@ 0x80
1000696e:	0011      	movs	r1, r2
10006970:	00db      	lsls	r3, r3, #3
10006972:	4019      	ands	r1, r3
10006974:	421a      	tst	r2, r3
10006976:	d100      	bne.n	1000697a <_vsnprintf+0x542>
10006978:	e116      	b.n	10006ba8 <_vsnprintf+0x770>
1000697a:	230d      	movs	r3, #13
1000697c:	439a      	bics	r2, r3
1000697e:	0010      	movs	r0, r2
10006980:	2380      	movs	r3, #128	@ 0x80
10006982:	0002      	movs	r2, r0
10006984:	009b      	lsls	r3, r3, #2
10006986:	401a      	ands	r2, r3
10006988:	9214      	str	r2, [sp, #80]	@ 0x50
1000698a:	4218      	tst	r0, r3
1000698c:	d000      	beq.n	10006990 <_vsnprintf+0x558>
1000698e:	e1c2      	b.n	10006d16 <_vsnprintf+0x8de>
10006990:	2380      	movs	r3, #128	@ 0x80
10006992:	0002      	movs	r2, r0
10006994:	005b      	lsls	r3, r3, #1
10006996:	401a      	ands	r2, r3
10006998:	4691      	mov	r9, r2
1000699a:	9a0c      	ldr	r2, [sp, #48]	@ 0x30
1000699c:	3204      	adds	r2, #4
1000699e:	920f      	str	r2, [sp, #60]	@ 0x3c
100069a0:	4218      	tst	r0, r3
100069a2:	d000      	beq.n	100069a6 <_vsnprintf+0x56e>
100069a4:	e2b7      	b.n	10006f16 <_vsnprintf+0xade>
100069a6:	0643      	lsls	r3, r0, #25
100069a8:	d500      	bpl.n	100069ac <_vsnprintf+0x574>
100069aa:	e19f      	b.n	10006cec <_vsnprintf+0x8b4>
100069ac:	0603      	lsls	r3, r0, #24
100069ae:	d400      	bmi.n	100069b2 <_vsnprintf+0x57a>
100069b0:	e319      	b.n	10006fe6 <_vsnprintf+0xbae>
100069b2:	9b0c      	ldr	r3, [sp, #48]	@ 0x30
100069b4:	881b      	ldrh	r3, [r3, #0]
100069b6:	9309      	str	r3, [sp, #36]	@ 0x24
100069b8:	2b00      	cmp	r3, #0
100069ba:	d000      	beq.n	100069be <_vsnprintf+0x586>
100069bc:	e1fc      	b.n	10006db8 <_vsnprintf+0x980>
100069be:	3310      	adds	r3, #16
100069c0:	4398      	bics	r0, r3
100069c2:	2900      	cmp	r1, #0
100069c4:	d100      	bne.n	100069c8 <_vsnprintf+0x590>
100069c6:	e1f7      	b.n	10006db8 <_vsnprintf+0x980>
100069c8:	2300      	movs	r3, #0
100069ca:	4699      	mov	r9, r3
100069cc:	4643      	mov	r3, r8
100069ce:	9305      	str	r3, [sp, #20]
100069d0:	4653      	mov	r3, sl
100069d2:	9304      	str	r3, [sp, #16]
100069d4:	9b0d      	ldr	r3, [sp, #52]	@ 0x34
100069d6:	9006      	str	r0, [sp, #24]
100069d8:	9303      	str	r3, [sp, #12]
100069da:	2300      	movs	r3, #0
100069dc:	e0d2      	b.n	10006b84 <_vsnprintf+0x74c>
100069de:	2858      	cmp	r0, #88	@ 0x58
100069e0:	d008      	beq.n	100069f4 <_vsnprintf+0x5bc>
100069e2:	2862      	cmp	r0, #98	@ 0x62
100069e4:	d167      	bne.n	10006ab6 <_vsnprintf+0x67e>
100069e6:	2302      	movs	r3, #2
100069e8:	469c      	mov	ip, r3
100069ea:	2300      	movs	r3, #0
100069ec:	930f      	str	r3, [sp, #60]	@ 0x3c
100069ee:	3302      	adds	r3, #2
100069f0:	930d      	str	r3, [sp, #52]	@ 0x34
100069f2:	e7bb      	b.n	1000696c <_vsnprintf+0x534>
100069f4:	2320      	movs	r3, #32
100069f6:	431a      	orrs	r2, r3
100069f8:	3b10      	subs	r3, #16
100069fa:	469c      	mov	ip, r3
100069fc:	2300      	movs	r3, #0
100069fe:	930f      	str	r3, [sp, #60]	@ 0x3c
10006a00:	3310      	adds	r3, #16
10006a02:	930d      	str	r3, [sp, #52]	@ 0x34
10006a04:	e7b2      	b.n	1000696c <_vsnprintf+0x534>
10006a06:	2380      	movs	r3, #128	@ 0x80
10006a08:	011b      	lsls	r3, r3, #4
10006a0a:	431a      	orrs	r2, r3
10006a0c:	2320      	movs	r3, #32
10006a0e:	431a      	orrs	r2, r3
10006a10:	e6a1      	b.n	10006756 <_vsnprintf+0x31e>
10006a12:	23c0      	movs	r3, #192	@ 0xc0
10006a14:	009b      	lsls	r3, r3, #2
10006a16:	431a      	orrs	r2, r3
10006a18:	1cf3      	adds	r3, r6, #3
10006a1a:	4699      	mov	r9, r3
10006a1c:	78b0      	ldrb	r0, [r6, #2]
10006a1e:	e582      	b.n	10006526 <_vsnprintf+0xee>
10006a20:	23c0      	movs	r3, #192	@ 0xc0
10006a22:	431a      	orrs	r2, r3
10006a24:	1cf3      	adds	r3, r6, #3
10006a26:	4699      	mov	r9, r3
10006a28:	78b0      	ldrb	r0, [r6, #2]
10006a2a:	e57c      	b.n	10006526 <_vsnprintf+0xee>
10006a2c:	0035      	movs	r5, r6
10006a2e:	465e      	mov	r6, fp
10006a30:	46bb      	mov	fp, r7
10006a32:	464f      	mov	r7, r9
10006a34:	e657      	b.n	100066e6 <_vsnprintf+0x2ae>
10006a36:	4643      	mov	r3, r8
10006a38:	2b01      	cmp	r3, #1
10006a3a:	d800      	bhi.n	10006a3e <_vsnprintf+0x606>
10006a3c:	e163      	b.n	10006d06 <_vsnprintf+0x8ce>
10006a3e:	1e63      	subs	r3, r4, #1
10006a40:	4443      	add	r3, r8
10006a42:	469a      	mov	sl, r3
10006a44:	0033      	movs	r3, r6
10006a46:	46b9      	mov	r9, r7
10006a48:	002e      	movs	r6, r5
10006a4a:	465f      	mov	r7, fp
10006a4c:	4655      	mov	r5, sl
10006a4e:	469b      	mov	fp, r3
10006a50:	46a2      	mov	sl, r4
10006a52:	0022      	movs	r2, r4
10006a54:	464b      	mov	r3, r9
10006a56:	3401      	adds	r4, #1
10006a58:	0039      	movs	r1, r7
10006a5a:	2020      	movs	r0, #32
10006a5c:	47b0      	blx	r6
10006a5e:	42ac      	cmp	r4, r5
10006a60:	d1f7      	bne.n	10006a52 <_vsnprintf+0x61a>
10006a62:	0035      	movs	r5, r6
10006a64:	465e      	mov	r6, fp
10006a66:	46bb      	mov	fp, r7
10006a68:	464f      	mov	r7, r9
10006a6a:	46a1      	mov	r9, r4
10006a6c:	4654      	mov	r4, sl
10006a6e:	9b0c      	ldr	r3, [sp, #48]	@ 0x30
10006a70:	464a      	mov	r2, r9
10006a72:	7818      	ldrb	r0, [r3, #0]
10006a74:	4659      	mov	r1, fp
10006a76:	003b      	movs	r3, r7
10006a78:	4444      	add	r4, r8
10006a7a:	47a8      	blx	r5
10006a7c:	e6d7      	b.n	1000682e <_vsnprintf+0x3f6>
10006a7e:	46a1      	mov	r9, r4
10006a80:	9b0f      	ldr	r3, [sp, #60]	@ 0x3c
10006a82:	4598      	cmp	r8, r3
10006a84:	d800      	bhi.n	10006a88 <_vsnprintf+0x650>
10006a86:	e632      	b.n	100066ee <_vsnprintf+0x2b6>
10006a88:	4444      	add	r4, r8
10006a8a:	1ae4      	subs	r4, r4, r3
10006a8c:	0033      	movs	r3, r6
10006a8e:	46b8      	mov	r8, r7
10006a90:	002e      	movs	r6, r5
10006a92:	465f      	mov	r7, fp
10006a94:	0025      	movs	r5, r4
10006a96:	464c      	mov	r4, r9
10006a98:	4699      	mov	r9, r3
10006a9a:	0022      	movs	r2, r4
10006a9c:	4643      	mov	r3, r8
10006a9e:	3401      	adds	r4, #1
10006aa0:	0039      	movs	r1, r7
10006aa2:	2020      	movs	r0, #32
10006aa4:	47b0      	blx	r6
10006aa6:	42ac      	cmp	r4, r5
10006aa8:	d1f7      	bne.n	10006a9a <_vsnprintf+0x662>
10006aaa:	002c      	movs	r4, r5
10006aac:	46bb      	mov	fp, r7
10006aae:	0035      	movs	r5, r6
10006ab0:	4647      	mov	r7, r8
10006ab2:	464e      	mov	r6, r9
10006ab4:	e61b      	b.n	100066ee <_vsnprintf+0x2b6>
10006ab6:	2380      	movs	r3, #128	@ 0x80
10006ab8:	0010      	movs	r0, r2
10006aba:	00db      	lsls	r3, r3, #3
10006abc:	4018      	ands	r0, r3
10006abe:	421a      	tst	r2, r3
10006ac0:	d100      	bne.n	10006ac4 <_vsnprintf+0x68c>
10006ac2:	e10f      	b.n	10006ce4 <_vsnprintf+0x8ac>
10006ac4:	2111      	movs	r1, #17
10006ac6:	0018      	movs	r0, r3
10006ac8:	438a      	bics	r2, r1
10006aca:	920d      	str	r2, [sp, #52]	@ 0x34
10006acc:	9a0d      	ldr	r2, [sp, #52]	@ 0x34
10006ace:	2380      	movs	r3, #128	@ 0x80
10006ad0:	0011      	movs	r1, r2
10006ad2:	009b      	lsls	r3, r3, #2
10006ad4:	4019      	ands	r1, r3
10006ad6:	468c      	mov	ip, r1
10006ad8:	421a      	tst	r2, r3
10006ada:	d169      	bne.n	10006bb0 <_vsnprintf+0x778>
10006adc:	2380      	movs	r3, #128	@ 0x80
10006ade:	0011      	movs	r1, r2
10006ae0:	005b      	lsls	r3, r3, #1
10006ae2:	4019      	ands	r1, r3
10006ae4:	4689      	mov	r9, r1
10006ae6:	990c      	ldr	r1, [sp, #48]	@ 0x30
10006ae8:	3104      	adds	r1, #4
10006aea:	910f      	str	r1, [sp, #60]	@ 0x3c
10006aec:	421a      	tst	r2, r3
10006aee:	d000      	beq.n	10006af2 <_vsnprintf+0x6ba>
10006af0:	e1ca      	b.n	10006e88 <_vsnprintf+0xa50>
10006af2:	0013      	movs	r3, r2
10006af4:	065b      	lsls	r3, r3, #25
10006af6:	d500      	bpl.n	10006afa <_vsnprintf+0x6c2>
10006af8:	e0f0      	b.n	10006cdc <_vsnprintf+0x8a4>
10006afa:	0013      	movs	r3, r2
10006afc:	061b      	lsls	r3, r3, #24
10006afe:	d400      	bmi.n	10006b02 <_vsnprintf+0x6ca>
10006b00:	e259      	b.n	10006fb6 <_vsnprintf+0xb7e>
10006b02:	9b0c      	ldr	r3, [sp, #48]	@ 0x30
10006b04:	2200      	movs	r2, #0
10006b06:	5e9b      	ldrsh	r3, [r3, r2]
10006b08:	17d9      	asrs	r1, r3, #31
10006b0a:	185a      	adds	r2, r3, r1
10006b0c:	404a      	eors	r2, r1
10006b0e:	b292      	uxth	r2, r2
10006b10:	0fd9      	lsrs	r1, r3, #31
10006b12:	910c      	str	r1, [sp, #48]	@ 0x30
10006b14:	2b00      	cmp	r3, #0
10006b16:	d100      	bne.n	10006b1a <_vsnprintf+0x6e2>
10006b18:	e1f9      	b.n	10006f0e <_vsnprintf+0xad6>
10006b1a:	0010      	movs	r0, r2
10006b1c:	aa14      	add	r2, sp, #80	@ 0x50
10006b1e:	4694      	mov	ip, r2
10006b20:	4642      	mov	r2, r8
10006b22:	231f      	movs	r3, #31
10006b24:	9214      	str	r2, [sp, #80]	@ 0x50
10006b26:	4652      	mov	r2, sl
10006b28:	4463      	add	r3, ip
10006b2a:	46a8      	mov	r8, r5
10006b2c:	9416      	str	r4, [sp, #88]	@ 0x58
10006b2e:	464d      	mov	r5, r9
10006b30:	0004      	movs	r4, r0
10006b32:	46b9      	mov	r9, r7
10006b34:	46b2      	mov	sl, r6
10006b36:	001f      	movs	r7, r3
10006b38:	9215      	str	r2, [sp, #84]	@ 0x54
10006b3a:	e001      	b.n	10006b40 <_vsnprintf+0x708>
10006b3c:	2d20      	cmp	r5, #32
10006b3e:	d00f      	beq.n	10006b60 <_vsnprintf+0x728>
10006b40:	0020      	movs	r0, r4
10006b42:	210a      	movs	r1, #10
10006b44:	f7fe f9c2 	bl	10004ecc <__wrap___aeabi_uidiv>
10006b48:	3501      	adds	r5, #1
10006b4a:	197e      	adds	r6, r7, r5
10006b4c:	3130      	adds	r1, #48	@ 0x30
10006b4e:	7031      	strb	r1, [r6, #0]
10006b50:	0020      	movs	r0, r4
10006b52:	210a      	movs	r1, #10
10006b54:	f7fe f9ba 	bl	10004ecc <__wrap___aeabi_uidiv>
10006b58:	0026      	movs	r6, r4
10006b5a:	0004      	movs	r4, r0
10006b5c:	2e09      	cmp	r6, #9
10006b5e:	d8ed      	bhi.n	10006b3c <_vsnprintf+0x704>
10006b60:	9b14      	ldr	r3, [sp, #80]	@ 0x50
10006b62:	464f      	mov	r7, r9
10006b64:	46a9      	mov	r9, r5
10006b66:	4645      	mov	r5, r8
10006b68:	4698      	mov	r8, r3
10006b6a:	9b15      	ldr	r3, [sp, #84]	@ 0x54
10006b6c:	4656      	mov	r6, sl
10006b6e:	469a      	mov	sl, r3
10006b70:	9c16      	ldr	r4, [sp, #88]	@ 0x58
10006b72:	9b0d      	ldr	r3, [sp, #52]	@ 0x34
10006b74:	9306      	str	r3, [sp, #24]
10006b76:	4643      	mov	r3, r8
10006b78:	9305      	str	r3, [sp, #20]
10006b7a:	4653      	mov	r3, sl
10006b7c:	9304      	str	r3, [sp, #16]
10006b7e:	230a      	movs	r3, #10
10006b80:	9303      	str	r3, [sp, #12]
10006b82:	9b0c      	ldr	r3, [sp, #48]	@ 0x30
10006b84:	9302      	str	r3, [sp, #8]
10006b86:	464b      	mov	r3, r9
10006b88:	9301      	str	r3, [sp, #4]
10006b8a:	ab1c      	add	r3, sp, #112	@ 0x70
10006b8c:	0022      	movs	r2, r4
10006b8e:	9300      	str	r3, [sp, #0]
10006b90:	4659      	mov	r1, fp
10006b92:	003b      	movs	r3, r7
10006b94:	0028      	movs	r0, r5
10006b96:	f7fe fe47 	bl	10005828 <_ntoa_format>
10006b9a:	9b0f      	ldr	r3, [sp, #60]	@ 0x3c
10006b9c:	0004      	movs	r4, r0
10006b9e:	930c      	str	r3, [sp, #48]	@ 0x30
10006ba0:	e472      	b.n	10006488 <_vsnprintf+0x50>
10006ba2:	46c0      	nop			@ (mov r8, r8)
10006ba4:	10005779 	.word	0x10005779
10006ba8:	230c      	movs	r3, #12
10006baa:	439a      	bics	r2, r3
10006bac:	0010      	movs	r0, r2
10006bae:	e6e7      	b.n	10006980 <_vsnprintf+0x548>
10006bb0:	2207      	movs	r2, #7
10006bb2:	9b0c      	ldr	r3, [sp, #48]	@ 0x30
10006bb4:	3307      	adds	r3, #7
10006bb6:	4393      	bics	r3, r2
10006bb8:	3201      	adds	r2, #1
10006bba:	4694      	mov	ip, r2
10006bbc:	449c      	add	ip, r3
10006bbe:	4662      	mov	r2, ip
10006bc0:	920c      	str	r2, [sp, #48]	@ 0x30
10006bc2:	cb0c      	ldmia	r3, {r2, r3}
10006bc4:	0fd9      	lsrs	r1, r3, #31
10006bc6:	910f      	str	r1, [sp, #60]	@ 0x3c
10006bc8:	0011      	movs	r1, r2
10006bca:	4319      	orrs	r1, r3
10006bcc:	d100      	bne.n	10006bd0 <_vsnprintf+0x798>
10006bce:	e091      	b.n	10006cf4 <_vsnprintf+0x8bc>
10006bd0:	17d9      	asrs	r1, r3, #31
10006bd2:	9113      	str	r1, [sp, #76]	@ 0x4c
10006bd4:	9112      	str	r1, [sp, #72]	@ 0x48
10006bd6:	4051      	eors	r1, r2
10006bd8:	9110      	str	r1, [sp, #64]	@ 0x40
10006bda:	9913      	ldr	r1, [sp, #76]	@ 0x4c
10006bdc:	4059      	eors	r1, r3
10006bde:	9111      	str	r1, [sp, #68]	@ 0x44
10006be0:	9810      	ldr	r0, [sp, #64]	@ 0x40
10006be2:	9911      	ldr	r1, [sp, #68]	@ 0x44
10006be4:	9a12      	ldr	r2, [sp, #72]	@ 0x48
10006be6:	9b13      	ldr	r3, [sp, #76]	@ 0x4c
10006be8:	1a80      	subs	r0, r0, r2
10006bea:	4199      	sbcs	r1, r3
10006bec:	9010      	str	r0, [sp, #64]	@ 0x40
10006bee:	9111      	str	r1, [sp, #68]	@ 0x44
10006bf0:	aa14      	add	r2, sp, #80	@ 0x50
10006bf2:	2300      	movs	r3, #0
10006bf4:	4694      	mov	ip, r2
10006bf6:	4642      	mov	r2, r8
10006bf8:	4699      	mov	r9, r3
10006bfa:	9214      	str	r2, [sp, #80]	@ 0x50
10006bfc:	4652      	mov	r2, sl
10006bfe:	331f      	adds	r3, #31
10006c00:	4463      	add	r3, ip
10006c02:	46a8      	mov	r8, r5
10006c04:	46b2      	mov	sl, r6
10006c06:	9416      	str	r4, [sp, #88]	@ 0x58
10006c08:	464e      	mov	r6, r9
10006c0a:	9c10      	ldr	r4, [sp, #64]	@ 0x40
10006c0c:	9d11      	ldr	r5, [sp, #68]	@ 0x44
10006c0e:	46b9      	mov	r9, r7
10006c10:	9215      	str	r2, [sp, #84]	@ 0x54
10006c12:	001f      	movs	r7, r3
10006c14:	e001      	b.n	10006c1a <_vsnprintf+0x7e2>
10006c16:	2e20      	cmp	r6, #32
10006c18:	d010      	beq.n	10006c3c <_vsnprintf+0x804>
10006c1a:	0020      	movs	r0, r4
10006c1c:	0029      	movs	r1, r5
10006c1e:	220a      	movs	r2, #10
10006c20:	2300      	movs	r3, #0
10006c22:	f7fe f991 	bl	10004f48 <__wrap___aeabi_uldivmod>
10006c26:	3601      	adds	r6, #1
10006c28:	3230      	adds	r2, #48	@ 0x30
10006c2a:	002b      	movs	r3, r5
10006c2c:	55ba      	strb	r2, [r7, r6]
10006c2e:	000d      	movs	r5, r1
10006c30:	0022      	movs	r2, r4
10006c32:	0004      	movs	r4, r0
10006c34:	2b00      	cmp	r3, #0
10006c36:	d1ee      	bne.n	10006c16 <_vsnprintf+0x7de>
10006c38:	2a09      	cmp	r2, #9
10006c3a:	d8ec      	bhi.n	10006c16 <_vsnprintf+0x7de>
10006c3c:	9b14      	ldr	r3, [sp, #80]	@ 0x50
10006c3e:	9410      	str	r4, [sp, #64]	@ 0x40
10006c40:	9511      	str	r5, [sp, #68]	@ 0x44
10006c42:	4645      	mov	r5, r8
10006c44:	4698      	mov	r8, r3
10006c46:	9b15      	ldr	r3, [sp, #84]	@ 0x54
10006c48:	464f      	mov	r7, r9
10006c4a:	46b1      	mov	r9, r6
10006c4c:	4656      	mov	r6, sl
10006c4e:	469a      	mov	sl, r3
10006c50:	9c16      	ldr	r4, [sp, #88]	@ 0x58
10006c52:	9b0d      	ldr	r3, [sp, #52]	@ 0x34
10006c54:	9306      	str	r3, [sp, #24]
10006c56:	4643      	mov	r3, r8
10006c58:	9305      	str	r3, [sp, #20]
10006c5a:	4653      	mov	r3, sl
10006c5c:	9304      	str	r3, [sp, #16]
10006c5e:	230a      	movs	r3, #10
10006c60:	9303      	str	r3, [sp, #12]
10006c62:	9b0f      	ldr	r3, [sp, #60]	@ 0x3c
10006c64:	9302      	str	r3, [sp, #8]
10006c66:	464b      	mov	r3, r9
10006c68:	9301      	str	r3, [sp, #4]
10006c6a:	ab1c      	add	r3, sp, #112	@ 0x70
10006c6c:	0022      	movs	r2, r4
10006c6e:	9300      	str	r3, [sp, #0]
10006c70:	4659      	mov	r1, fp
10006c72:	003b      	movs	r3, r7
10006c74:	0028      	movs	r0, r5
10006c76:	f7fe fdd7 	bl	10005828 <_ntoa_format>
10006c7a:	0004      	movs	r4, r0
10006c7c:	f7ff fc04 	bl	10006488 <_vsnprintf+0x50>
10006c80:	9b0f      	ldr	r3, [sp, #60]	@ 0x3c
10006c82:	4598      	cmp	r8, r3
10006c84:	d800      	bhi.n	10006c88 <_vsnprintf+0x850>
10006c86:	e1c1      	b.n	1000700c <_vsnprintf+0xbd4>
10006c88:	2380      	movs	r3, #128	@ 0x80
10006c8a:	00db      	lsls	r3, r3, #3
10006c8c:	930d      	str	r3, [sp, #52]	@ 0x34
10006c8e:	4643      	mov	r3, r8
10006c90:	9a0f      	ldr	r2, [sp, #60]	@ 0x3c
10006c92:	191b      	adds	r3, r3, r4
10006c94:	1a9b      	subs	r3, r3, r2
10006c96:	4699      	mov	r9, r3
10006c98:	0033      	movs	r3, r6
10006c9a:	002e      	movs	r6, r5
10006c9c:	464d      	mov	r5, r9
10006c9e:	46b9      	mov	r9, r7
10006ca0:	465f      	mov	r7, fp
10006ca2:	469b      	mov	fp, r3
10006ca4:	910c      	str	r1, [sp, #48]	@ 0x30
10006ca6:	0022      	movs	r2, r4
10006ca8:	464b      	mov	r3, r9
10006caa:	3401      	adds	r4, #1
10006cac:	0039      	movs	r1, r7
10006cae:	2020      	movs	r0, #32
10006cb0:	47b0      	blx	r6
10006cb2:	42ac      	cmp	r4, r5
10006cb4:	d1f7      	bne.n	10006ca6 <_vsnprintf+0x86e>
10006cb6:	4643      	mov	r3, r8
10006cb8:	990c      	ldr	r1, [sp, #48]	@ 0x30
10006cba:	3301      	adds	r3, #1
10006cbc:	930f      	str	r3, [sp, #60]	@ 0x3c
10006cbe:	780b      	ldrb	r3, [r1, #0]
10006cc0:	0035      	movs	r5, r6
10006cc2:	930c      	str	r3, [sp, #48]	@ 0x30
10006cc4:	465e      	mov	r6, fp
10006cc6:	46bb      	mov	fp, r7
10006cc8:	464f      	mov	r7, r9
10006cca:	2b00      	cmp	r3, #0
10006ccc:	d100      	bne.n	10006cd0 <_vsnprintf+0x898>
10006cce:	e50e      	b.n	100066ee <_vsnprintf+0x2b6>
10006cd0:	9b0d      	ldr	r3, [sp, #52]	@ 0x34
10006cd2:	2b00      	cmp	r3, #0
10006cd4:	d100      	bne.n	10006cd8 <_vsnprintf+0x8a0>
10006cd6:	e4f6      	b.n	100066c6 <_vsnprintf+0x28e>
10006cd8:	2300      	movs	r3, #0
10006cda:	e619      	b.n	10006910 <_vsnprintf+0x4d8>
10006cdc:	9b0c      	ldr	r3, [sp, #48]	@ 0x30
10006cde:	781b      	ldrb	r3, [r3, #0]
10006ce0:	001a      	movs	r2, r3
10006ce2:	e715      	b.n	10006b10 <_vsnprintf+0x6d8>
10006ce4:	2310      	movs	r3, #16
10006ce6:	439a      	bics	r2, r3
10006ce8:	920d      	str	r2, [sp, #52]	@ 0x34
10006cea:	e6ef      	b.n	10006acc <_vsnprintf+0x694>
10006cec:	9b0c      	ldr	r3, [sp, #48]	@ 0x30
10006cee:	781b      	ldrb	r3, [r3, #0]
10006cf0:	9309      	str	r3, [sp, #36]	@ 0x24
10006cf2:	e661      	b.n	100069b8 <_vsnprintf+0x580>
10006cf4:	2300      	movs	r3, #0
10006cf6:	4699      	mov	r9, r3
10006cf8:	2800      	cmp	r0, #0
10006cfa:	d1aa      	bne.n	10006c52 <_vsnprintf+0x81a>
10006cfc:	2200      	movs	r2, #0
10006cfe:	2300      	movs	r3, #0
10006d00:	9210      	str	r2, [sp, #64]	@ 0x40
10006d02:	9311      	str	r3, [sp, #68]	@ 0x44
10006d04:	e774      	b.n	10006bf0 <_vsnprintf+0x7b8>
10006d06:	9b0c      	ldr	r3, [sp, #48]	@ 0x30
10006d08:	0022      	movs	r2, r4
10006d0a:	7818      	ldrb	r0, [r3, #0]
10006d0c:	4659      	mov	r1, fp
10006d0e:	003b      	movs	r3, r7
10006d10:	47a8      	blx	r5
10006d12:	464c      	mov	r4, r9
10006d14:	e58b      	b.n	1000682e <_vsnprintf+0x3f6>
10006d16:	9a0c      	ldr	r2, [sp, #48]	@ 0x30
10006d18:	3bfa      	subs	r3, #250	@ 0xfa
10006d1a:	3bff      	subs	r3, #255	@ 0xff
10006d1c:	3207      	adds	r2, #7
10006d1e:	439a      	bics	r2, r3
10006d20:	3301      	adds	r3, #1
10006d22:	4699      	mov	r9, r3
10006d24:	4491      	add	r9, r2
10006d26:	464b      	mov	r3, r9
10006d28:	930c      	str	r3, [sp, #48]	@ 0x30
10006d2a:	6813      	ldr	r3, [r2, #0]
10006d2c:	6852      	ldr	r2, [r2, #4]
10006d2e:	9215      	str	r2, [sp, #84]	@ 0x54
10006d30:	431a      	orrs	r2, r3
10006d32:	d106      	bne.n	10006d42 <_vsnprintf+0x90a>
10006d34:	3210      	adds	r2, #16
10006d36:	4390      	bics	r0, r2
10006d38:	2200      	movs	r2, #0
10006d3a:	9209      	str	r2, [sp, #36]	@ 0x24
10006d3c:	2900      	cmp	r1, #0
10006d3e:	d000      	beq.n	10006d42 <_vsnprintf+0x90a>
10006d40:	e081      	b.n	10006e46 <_vsnprintf+0xa0e>
10006d42:	2261      	movs	r2, #97	@ 0x61
10006d44:	0681      	lsls	r1, r0, #26
10006d46:	d500      	bpl.n	10006d4a <_vsnprintf+0x912>
10006d48:	2241      	movs	r2, #65	@ 0x41
10006d4a:	b2d2      	uxtb	r2, r2
10006d4c:	920a      	str	r2, [sp, #40]	@ 0x28
10006d4e:	aa14      	add	r2, sp, #80	@ 0x50
10006d50:	4691      	mov	r9, r2
10006d52:	9a0a      	ldr	r2, [sp, #40]	@ 0x28
10006d54:	2100      	movs	r1, #0
10006d56:	3a0a      	subs	r2, #10
10006d58:	9214      	str	r2, [sp, #80]	@ 0x50
10006d5a:	4642      	mov	r2, r8
10006d5c:	9217      	str	r2, [sp, #92]	@ 0x5c
10006d5e:	4652      	mov	r2, sl
10006d60:	9218      	str	r2, [sp, #96]	@ 0x60
10006d62:	465a      	mov	r2, fp
10006d64:	9109      	str	r1, [sp, #36]	@ 0x24
10006d66:	46b3      	mov	fp, r6
10006d68:	311f      	adds	r1, #31
10006d6a:	001e      	movs	r6, r3
10006d6c:	9b0f      	ldr	r3, [sp, #60]	@ 0x3c
10006d6e:	4449      	add	r1, r9
10006d70:	46ba      	mov	sl, r7
10006d72:	9419      	str	r4, [sp, #100]	@ 0x64
10006d74:	951a      	str	r5, [sp, #104]	@ 0x68
10006d76:	2400      	movs	r4, #0
10006d78:	4667      	mov	r7, ip
10006d7a:	4698      	mov	r8, r3
10006d7c:	4689      	mov	r9, r1
10006d7e:	9d15      	ldr	r5, [sp, #84]	@ 0x54
10006d80:	9016      	str	r0, [sp, #88]	@ 0x58
10006d82:	921b      	str	r2, [sp, #108]	@ 0x6c
10006d84:	e00a      	b.n	10006d9c <_vsnprintf+0x964>
10006d86:	3230      	adds	r2, #48	@ 0x30
10006d88:	b2d2      	uxtb	r2, r2
10006d8a:	464b      	mov	r3, r9
10006d8c:	3401      	adds	r4, #1
10006d8e:	551a      	strb	r2, [r3, r4]
10006d90:	45a8      	cmp	r8, r5
10006d92:	d04a      	beq.n	10006e2a <_vsnprintf+0x9f2>
10006d94:	2c20      	cmp	r4, #32
10006d96:	d04a      	beq.n	10006e2e <_vsnprintf+0x9f6>
10006d98:	0006      	movs	r6, r0
10006d9a:	000d      	movs	r5, r1
10006d9c:	003a      	movs	r2, r7
10006d9e:	2300      	movs	r3, #0
10006da0:	0030      	movs	r0, r6
10006da2:	0029      	movs	r1, r5
10006da4:	f7fe f8d0 	bl	10004f48 <__wrap___aeabi_uldivmod>
10006da8:	b2d2      	uxtb	r2, r2
10006daa:	2a09      	cmp	r2, #9
10006dac:	d9eb      	bls.n	10006d86 <_vsnprintf+0x94e>
10006dae:	9b14      	ldr	r3, [sp, #80]	@ 0x50
10006db0:	469c      	mov	ip, r3
10006db2:	4462      	add	r2, ip
10006db4:	b2d2      	uxtb	r2, r2
10006db6:	e7e8      	b.n	10006d8a <_vsnprintf+0x952>
10006db8:	2361      	movs	r3, #97	@ 0x61
10006dba:	0682      	lsls	r2, r0, #26
10006dbc:	d500      	bpl.n	10006dc0 <_vsnprintf+0x988>
10006dbe:	2341      	movs	r3, #65	@ 0x41
10006dc0:	b2db      	uxtb	r3, r3
10006dc2:	3b0a      	subs	r3, #10
10006dc4:	930c      	str	r3, [sp, #48]	@ 0x30
10006dc6:	4643      	mov	r3, r8
10006dc8:	a914      	add	r1, sp, #80	@ 0x50
10006dca:	221f      	movs	r2, #31
10006dcc:	468c      	mov	ip, r1
10006dce:	9315      	str	r3, [sp, #84]	@ 0x54
10006dd0:	4653      	mov	r3, sl
10006dd2:	4462      	add	r2, ip
10006dd4:	46a0      	mov	r8, r4
10006dd6:	46b2      	mov	sl, r6
10006dd8:	464c      	mov	r4, r9
10006dda:	9717      	str	r7, [sp, #92]	@ 0x5c
10006ddc:	46a9      	mov	r9, r5
10006dde:	0017      	movs	r7, r2
10006de0:	9d09      	ldr	r5, [sp, #36]	@ 0x24
10006de2:	9e0d      	ldr	r6, [sp, #52]	@ 0x34
10006de4:	9014      	str	r0, [sp, #80]	@ 0x50
10006de6:	9316      	str	r3, [sp, #88]	@ 0x58
10006de8:	e008      	b.n	10006dfc <_vsnprintf+0x9c4>
10006dea:	3330      	adds	r3, #48	@ 0x30
10006dec:	b2db      	uxtb	r3, r3
10006dee:	3401      	adds	r4, #1
10006df0:	553b      	strb	r3, [r7, r4]
10006df2:	42b5      	cmp	r5, r6
10006df4:	d30e      	bcc.n	10006e14 <_vsnprintf+0x9dc>
10006df6:	2c20      	cmp	r4, #32
10006df8:	d00c      	beq.n	10006e14 <_vsnprintf+0x9dc>
10006dfa:	0005      	movs	r5, r0
10006dfc:	0031      	movs	r1, r6
10006dfe:	0028      	movs	r0, r5
10006e00:	f7fe f864 	bl	10004ecc <__wrap___aeabi_uidiv>
10006e04:	b2cb      	uxtb	r3, r1
10006e06:	2909      	cmp	r1, #9
10006e08:	d9ef      	bls.n	10006dea <_vsnprintf+0x9b2>
10006e0a:	9a0c      	ldr	r2, [sp, #48]	@ 0x30
10006e0c:	4694      	mov	ip, r2
10006e0e:	4463      	add	r3, ip
10006e10:	b2db      	uxtb	r3, r3
10006e12:	e7ec      	b.n	10006dee <_vsnprintf+0x9b6>
10006e14:	9b15      	ldr	r3, [sp, #84]	@ 0x54
10006e16:	464d      	mov	r5, r9
10006e18:	46a1      	mov	r9, r4
10006e1a:	4644      	mov	r4, r8
10006e1c:	4698      	mov	r8, r3
10006e1e:	9b16      	ldr	r3, [sp, #88]	@ 0x58
10006e20:	4656      	mov	r6, sl
10006e22:	9814      	ldr	r0, [sp, #80]	@ 0x50
10006e24:	469a      	mov	sl, r3
10006e26:	9f17      	ldr	r7, [sp, #92]	@ 0x5c
10006e28:	e5d0      	b.n	100069cc <_vsnprintf+0x594>
10006e2a:	42b7      	cmp	r7, r6
10006e2c:	d9b2      	bls.n	10006d94 <_vsnprintf+0x95c>
10006e2e:	9b17      	ldr	r3, [sp, #92]	@ 0x5c
10006e30:	4657      	mov	r7, sl
10006e32:	4698      	mov	r8, r3
10006e34:	9b18      	ldr	r3, [sp, #96]	@ 0x60
10006e36:	465e      	mov	r6, fp
10006e38:	469a      	mov	sl, r3
10006e3a:	9b1b      	ldr	r3, [sp, #108]	@ 0x6c
10006e3c:	9409      	str	r4, [sp, #36]	@ 0x24
10006e3e:	469b      	mov	fp, r3
10006e40:	9816      	ldr	r0, [sp, #88]	@ 0x58
10006e42:	9c19      	ldr	r4, [sp, #100]	@ 0x64
10006e44:	9d1a      	ldr	r5, [sp, #104]	@ 0x68
10006e46:	4643      	mov	r3, r8
10006e48:	9305      	str	r3, [sp, #20]
10006e4a:	4653      	mov	r3, sl
10006e4c:	9304      	str	r3, [sp, #16]
10006e4e:	9b0d      	ldr	r3, [sp, #52]	@ 0x34
10006e50:	9006      	str	r0, [sp, #24]
10006e52:	9303      	str	r3, [sp, #12]
10006e54:	2300      	movs	r3, #0
10006e56:	9302      	str	r3, [sp, #8]
10006e58:	9b09      	ldr	r3, [sp, #36]	@ 0x24
10006e5a:	e705      	b.n	10006c68 <_vsnprintf+0x830>
10006e5c:	9b0f      	ldr	r3, [sp, #60]	@ 0x3c
10006e5e:	4598      	cmp	r8, r3
10006e60:	d900      	bls.n	10006e64 <_vsnprintf+0xa2c>
10006e62:	e714      	b.n	10006c8e <_vsnprintf+0x856>
10006e64:	3301      	adds	r3, #1
10006e66:	930f      	str	r3, [sp, #60]	@ 0x3c
10006e68:	e42d      	b.n	100066c6 <_vsnprintf+0x28e>
10006e6a:	2310      	movs	r3, #16
10006e6c:	0011      	movs	r1, r2
10006e6e:	4399      	bics	r1, r3
10006e70:	910d      	str	r1, [sp, #52]	@ 0x34
10006e72:	2869      	cmp	r0, #105	@ 0x69
10006e74:	d000      	beq.n	10006e78 <_vsnprintf+0xa40>
10006e76:	e0ba      	b.n	10006fee <_vsnprintf+0xbb6>
10006e78:	2380      	movs	r3, #128	@ 0x80
10006e7a:	0010      	movs	r0, r2
10006e7c:	00db      	lsls	r3, r3, #3
10006e7e:	4018      	ands	r0, r3
10006e80:	421a      	tst	r2, r3
10006e82:	d100      	bne.n	10006e86 <_vsnprintf+0xa4e>
10006e84:	e622      	b.n	10006acc <_vsnprintf+0x694>
10006e86:	e61d      	b.n	10006ac4 <_vsnprintf+0x68c>
10006e88:	9b0c      	ldr	r3, [sp, #48]	@ 0x30
10006e8a:	681b      	ldr	r3, [r3, #0]
10006e8c:	0fda      	lsrs	r2, r3, #31
10006e8e:	0011      	movs	r1, r2
10006e90:	2b00      	cmp	r3, #0
10006e92:	d100      	bne.n	10006e96 <_vsnprintf+0xa5e>
10006e94:	e08c      	b.n	10006fb0 <_vsnprintf+0xb78>
10006e96:	17da      	asrs	r2, r3, #31
10006e98:	1898      	adds	r0, r3, r2
10006e9a:	4050      	eors	r0, r2
10006e9c:	aa14      	add	r2, sp, #80	@ 0x50
10006e9e:	4691      	mov	r9, r2
10006ea0:	4642      	mov	r2, r8
10006ea2:	231f      	movs	r3, #31
10006ea4:	9214      	str	r2, [sp, #80]	@ 0x50
10006ea6:	4652      	mov	r2, sl
10006ea8:	444b      	add	r3, r9
10006eaa:	46a0      	mov	r8, r4
10006eac:	46a9      	mov	r9, r5
10006eae:	9716      	str	r7, [sp, #88]	@ 0x58
10006eb0:	0004      	movs	r4, r0
10006eb2:	4665      	mov	r5, ip
10006eb4:	46b2      	mov	sl, r6
10006eb6:	001f      	movs	r7, r3
10006eb8:	910c      	str	r1, [sp, #48]	@ 0x30
10006eba:	9215      	str	r2, [sp, #84]	@ 0x54
10006ebc:	e001      	b.n	10006ec2 <_vsnprintf+0xa8a>
10006ebe:	2d20      	cmp	r5, #32
10006ec0:	d00f      	beq.n	10006ee2 <_vsnprintf+0xaaa>
10006ec2:	0020      	movs	r0, r4
10006ec4:	210a      	movs	r1, #10
10006ec6:	f7fe f801 	bl	10004ecc <__wrap___aeabi_uidiv>
10006eca:	3501      	adds	r5, #1
10006ecc:	197e      	adds	r6, r7, r5
10006ece:	3130      	adds	r1, #48	@ 0x30
10006ed0:	7031      	strb	r1, [r6, #0]
10006ed2:	0020      	movs	r0, r4
10006ed4:	210a      	movs	r1, #10
10006ed6:	f7fd fff9 	bl	10004ecc <__wrap___aeabi_uidiv>
10006eda:	0026      	movs	r6, r4
10006edc:	0004      	movs	r4, r0
10006ede:	2e09      	cmp	r6, #9
10006ee0:	d8ed      	bhi.n	10006ebe <_vsnprintf+0xa86>
10006ee2:	9b14      	ldr	r3, [sp, #80]	@ 0x50
10006ee4:	4644      	mov	r4, r8
10006ee6:	4698      	mov	r8, r3
10006ee8:	9b0c      	ldr	r3, [sp, #48]	@ 0x30
10006eea:	46ac      	mov	ip, r5
10006eec:	0019      	movs	r1, r3
10006eee:	9b15      	ldr	r3, [sp, #84]	@ 0x54
10006ef0:	4656      	mov	r6, sl
10006ef2:	464d      	mov	r5, r9
10006ef4:	469a      	mov	sl, r3
10006ef6:	9f16      	ldr	r7, [sp, #88]	@ 0x58
10006ef8:	9b0d      	ldr	r3, [sp, #52]	@ 0x34
10006efa:	9102      	str	r1, [sp, #8]
10006efc:	9306      	str	r3, [sp, #24]
10006efe:	4643      	mov	r3, r8
10006f00:	9305      	str	r3, [sp, #20]
10006f02:	4653      	mov	r3, sl
10006f04:	9304      	str	r3, [sp, #16]
10006f06:	230a      	movs	r3, #10
10006f08:	9303      	str	r3, [sp, #12]
10006f0a:	4663      	mov	r3, ip
10006f0c:	e63c      	b.n	10006b88 <_vsnprintf+0x750>
10006f0e:	2800      	cmp	r0, #0
10006f10:	d000      	beq.n	10006f14 <_vsnprintf+0xadc>
10006f12:	e62e      	b.n	10006b72 <_vsnprintf+0x73a>
10006f14:	e602      	b.n	10006b1c <_vsnprintf+0x6e4>
10006f16:	9b0c      	ldr	r3, [sp, #48]	@ 0x30
10006f18:	681b      	ldr	r3, [r3, #0]
10006f1a:	4699      	mov	r9, r3
10006f1c:	2b00      	cmp	r3, #0
10006f1e:	d103      	bne.n	10006f28 <_vsnprintf+0xaf0>
10006f20:	3310      	adds	r3, #16
10006f22:	4398      	bics	r0, r3
10006f24:	2900      	cmp	r1, #0
10006f26:	d138      	bne.n	10006f9a <_vsnprintf+0xb62>
10006f28:	2361      	movs	r3, #97	@ 0x61
10006f2a:	0682      	lsls	r2, r0, #26
10006f2c:	d500      	bpl.n	10006f30 <_vsnprintf+0xaf8>
10006f2e:	2341      	movs	r3, #65	@ 0x41
10006f30:	b2db      	uxtb	r3, r3
10006f32:	3b0a      	subs	r3, #10
10006f34:	930c      	str	r3, [sp, #48]	@ 0x30
10006f36:	4643      	mov	r3, r8
10006f38:	9316      	str	r3, [sp, #88]	@ 0x58
10006f3a:	4653      	mov	r3, sl
10006f3c:	a914      	add	r1, sp, #80	@ 0x50
10006f3e:	221f      	movs	r2, #31
10006f40:	468c      	mov	ip, r1
10006f42:	9317      	str	r3, [sp, #92]	@ 0x5c
10006f44:	002b      	movs	r3, r5
10006f46:	4462      	add	r2, ip
10006f48:	46a0      	mov	r8, r4
10006f4a:	464d      	mov	r5, r9
10006f4c:	46b2      	mov	sl, r6
10006f4e:	9718      	str	r7, [sp, #96]	@ 0x60
10006f50:	4699      	mov	r9, r3
10006f52:	0017      	movs	r7, r2
10006f54:	9c14      	ldr	r4, [sp, #80]	@ 0x50
10006f56:	9e0d      	ldr	r6, [sp, #52]	@ 0x34
10006f58:	9015      	str	r0, [sp, #84]	@ 0x54
10006f5a:	e008      	b.n	10006f6e <_vsnprintf+0xb36>
10006f5c:	3330      	adds	r3, #48	@ 0x30
10006f5e:	b2db      	uxtb	r3, r3
10006f60:	3401      	adds	r4, #1
10006f62:	553b      	strb	r3, [r7, r4]
10006f64:	42b5      	cmp	r5, r6
10006f66:	d30e      	bcc.n	10006f86 <_vsnprintf+0xb4e>
10006f68:	2c20      	cmp	r4, #32
10006f6a:	d00c      	beq.n	10006f86 <_vsnprintf+0xb4e>
10006f6c:	0005      	movs	r5, r0
10006f6e:	0031      	movs	r1, r6
10006f70:	0028      	movs	r0, r5
10006f72:	f7fd ffab 	bl	10004ecc <__wrap___aeabi_uidiv>
10006f76:	b2cb      	uxtb	r3, r1
10006f78:	2909      	cmp	r1, #9
10006f7a:	d9ef      	bls.n	10006f5c <_vsnprintf+0xb24>
10006f7c:	9a0c      	ldr	r2, [sp, #48]	@ 0x30
10006f7e:	4694      	mov	ip, r2
10006f80:	4463      	add	r3, ip
10006f82:	b2db      	uxtb	r3, r3
10006f84:	e7ec      	b.n	10006f60 <_vsnprintf+0xb28>
10006f86:	9b16      	ldr	r3, [sp, #88]	@ 0x58
10006f88:	9414      	str	r4, [sp, #80]	@ 0x50
10006f8a:	4644      	mov	r4, r8
10006f8c:	4698      	mov	r8, r3
10006f8e:	9b17      	ldr	r3, [sp, #92]	@ 0x5c
10006f90:	4656      	mov	r6, sl
10006f92:	464d      	mov	r5, r9
10006f94:	469a      	mov	sl, r3
10006f96:	9815      	ldr	r0, [sp, #84]	@ 0x54
10006f98:	9f18      	ldr	r7, [sp, #96]	@ 0x60
10006f9a:	4643      	mov	r3, r8
10006f9c:	9305      	str	r3, [sp, #20]
10006f9e:	4653      	mov	r3, sl
10006fa0:	9304      	str	r3, [sp, #16]
10006fa2:	9b0d      	ldr	r3, [sp, #52]	@ 0x34
10006fa4:	9006      	str	r0, [sp, #24]
10006fa6:	9303      	str	r3, [sp, #12]
10006fa8:	2300      	movs	r3, #0
10006faa:	9302      	str	r3, [sp, #8]
10006fac:	9b14      	ldr	r3, [sp, #80]	@ 0x50
10006fae:	e5eb      	b.n	10006b88 <_vsnprintf+0x750>
10006fb0:	2800      	cmp	r0, #0
10006fb2:	d1a1      	bne.n	10006ef8 <_vsnprintf+0xac0>
10006fb4:	e772      	b.n	10006e9c <_vsnprintf+0xa64>
10006fb6:	9b0c      	ldr	r3, [sp, #48]	@ 0x30
10006fb8:	681b      	ldr	r3, [r3, #0]
10006fba:	17d9      	asrs	r1, r3, #31
10006fbc:	185a      	adds	r2, r3, r1
10006fbe:	404a      	eors	r2, r1
10006fc0:	e5a6      	b.n	10006b10 <_vsnprintf+0x6d8>
10006fc2:	2380      	movs	r3, #128	@ 0x80
10006fc4:	0010      	movs	r0, r2
10006fc6:	00db      	lsls	r3, r3, #3
10006fc8:	4018      	ands	r0, r3
10006fca:	469c      	mov	ip, r3
10006fcc:	900f      	str	r0, [sp, #60]	@ 0x3c
10006fce:	421a      	tst	r2, r3
10006fd0:	d00f      	beq.n	10006ff2 <_vsnprintf+0xbba>
10006fd2:	2002      	movs	r0, #2
10006fd4:	0003      	movs	r3, r0
10006fd6:	4013      	ands	r3, r2
10006fd8:	930f      	str	r3, [sp, #60]	@ 0x3c
10006fda:	4210      	tst	r0, r2
10006fdc:	d019      	beq.n	10007012 <_vsnprintf+0xbda>
10006fde:	2300      	movs	r3, #0
10006fe0:	46a1      	mov	r9, r4
10006fe2:	930f      	str	r3, [sp, #60]	@ 0x3c
10006fe4:	e54c      	b.n	10006a80 <_vsnprintf+0x648>
10006fe6:	9b0c      	ldr	r3, [sp, #48]	@ 0x30
10006fe8:	681b      	ldr	r3, [r3, #0]
10006fea:	9309      	str	r3, [sp, #36]	@ 0x24
10006fec:	e4e4      	b.n	100069b8 <_vsnprintf+0x580>
10006fee:	000a      	movs	r2, r1
10006ff0:	e434      	b.n	1000685c <_vsnprintf+0x424>
10006ff2:	2302      	movs	r3, #2
10006ff4:	0018      	movs	r0, r3
10006ff6:	4010      	ands	r0, r2
10006ff8:	900d      	str	r0, [sp, #52]	@ 0x34
10006ffa:	4213      	tst	r3, r2
10006ffc:	d000      	beq.n	10007000 <_vsnprintf+0xbc8>
10006ffe:	e53e      	b.n	10006a7e <_vsnprintf+0x646>
10007000:	4643      	mov	r3, r8
10007002:	2b00      	cmp	r3, #0
10007004:	d000      	beq.n	10007008 <_vsnprintf+0xbd0>
10007006:	e642      	b.n	10006c8e <_vsnprintf+0x856>
10007008:	f7ff fb71 	bl	100066ee <_vsnprintf+0x2b6>
1000700c:	3301      	adds	r3, #1
1000700e:	930f      	str	r3, [sp, #60]	@ 0x3c
10007010:	e47f      	b.n	10006912 <_vsnprintf+0x4da>
10007012:	4663      	mov	r3, ip
10007014:	930d      	str	r3, [sp, #52]	@ 0x34
10007016:	e7f3      	b.n	10007000 <_vsnprintf+0xbc8>

10007018 <__wrap_snprintf>:
10007018:	b40c      	push	{r2, r3}
1000701a:	b530      	push	{r4, r5, lr}
1000701c:	b085      	sub	sp, #20
1000701e:	ac08      	add	r4, sp, #32
10007020:	cc08      	ldmia	r4!, {r3}
10007022:	4d06      	ldr	r5, [pc, #24]	@ (1000703c <__wrap_snprintf+0x24>)
10007024:	000a      	movs	r2, r1
10007026:	9400      	str	r4, [sp, #0]
10007028:	0001      	movs	r1, r0
1000702a:	0028      	movs	r0, r5
1000702c:	9403      	str	r4, [sp, #12]
1000702e:	f7ff fa03 	bl	10006438 <_vsnprintf>
10007032:	b005      	add	sp, #20
10007034:	bc30      	pop	{r4, r5}
10007036:	bc08      	pop	{r3}
10007038:	b002      	add	sp, #8
1000703a:	4718      	bx	r3
1000703c:	10005771 	.word	0x10005771

10007040 <vfctprintf>:
10007040:	b510      	push	{r4, lr}
10007042:	000c      	movs	r4, r1
10007044:	b084      	sub	sp, #16
10007046:	9403      	str	r4, [sp, #12]
10007048:	2401      	movs	r4, #1
1000704a:	a902      	add	r1, sp, #8
1000704c:	9002      	str	r0, [sp, #8]
1000704e:	9300      	str	r3, [sp, #0]
10007050:	4803      	ldr	r0, [pc, #12]	@ (10007060 <vfctprintf+0x20>)
10007052:	0013      	movs	r3, r2
10007054:	4262      	negs	r2, r4
10007056:	f7ff f9ef 	bl	10006438 <_vsnprintf>
1000705a:	b004      	add	sp, #16
1000705c:	bd10      	pop	{r4, pc}
1000705e:	46c0      	nop			@ (mov r8, r8)
10007060:	10005a05 	.word	0x10005a05

10007064 <weak_raw_vprintf>:
10007064:	b510      	push	{r4, lr}
10007066:	4a09      	ldr	r2, [pc, #36]	@ (1000708c <weak_raw_vprintf+0x28>)
10007068:	0003      	movs	r3, r0
1000706a:	6814      	ldr	r4, [r2, #0]
1000706c:	b084      	sub	sp, #16
1000706e:	2c00      	cmp	r4, #0
10007070:	d008      	beq.n	10007084 <weak_raw_vprintf+0x20>
10007072:	2201      	movs	r2, #1
10007074:	9100      	str	r1, [sp, #0]
10007076:	4806      	ldr	r0, [pc, #24]	@ (10007090 <weak_raw_vprintf+0x2c>)
10007078:	4252      	negs	r2, r2
1000707a:	a903      	add	r1, sp, #12
1000707c:	47a0      	blx	r4
1000707e:	2001      	movs	r0, #1
10007080:	b004      	add	sp, #16
10007082:	bd10      	pop	{r4, pc}
10007084:	f000 f9b2 	bl	100073ec <__wrap_puts>
10007088:	2000      	movs	r0, #0
1000708a:	e7f9      	b.n	10007080 <weak_raw_vprintf+0x1c>
1000708c:	2000516c 	.word	0x2000516c
10007090:	100059f5 	.word	0x100059f5

10007094 <_exit>:
10007094:	be00      	bkpt	0x0000
10007096:	e7fd      	b.n	10007094 <_exit>

10007098 <_sbrk>:
10007098:	4a09      	ldr	r2, [pc, #36]	@ (100070c0 <_sbrk+0x28>)
1000709a:	0003      	movs	r3, r0
1000709c:	6810      	ldr	r0, [r2, #0]
1000709e:	2800      	cmp	r0, #0
100070a0:	d005      	beq.n	100070ae <_sbrk+0x16>
100070a2:	4908      	ldr	r1, [pc, #32]	@ (100070c4 <_sbrk+0x2c>)
100070a4:	18c3      	adds	r3, r0, r3
100070a6:	428b      	cmp	r3, r1
100070a8:	d807      	bhi.n	100070ba <_sbrk+0x22>
100070aa:	6013      	str	r3, [r2, #0]
100070ac:	4770      	bx	lr
100070ae:	4806      	ldr	r0, [pc, #24]	@ (100070c8 <_sbrk+0x30>)
100070b0:	4904      	ldr	r1, [pc, #16]	@ (100070c4 <_sbrk+0x2c>)
100070b2:	18c3      	adds	r3, r0, r3
100070b4:	6010      	str	r0, [r2, #0]
100070b6:	428b      	cmp	r3, r1
100070b8:	d9f7      	bls.n	100070aa <_sbrk+0x12>
100070ba:	2001      	movs	r0, #1
100070bc:	4240      	negs	r0, r0
100070be:	e7f5      	b.n	100070ac <_sbrk+0x14>
100070c0:	20004d64 	.word	0x20004d64
100070c4:	20040000 	.word	0x20040000
100070c8:	20005310 	.word	0x20005310

100070cc <exit>:
100070cc:	b510      	push	{r4, lr}
100070ce:	f7ff ffe1 	bl	10007094 <_exit>
100070d2:	46c0      	nop			@ (mov r8, r8)

100070d4 <runtime_init>:
100070d4:	b570      	push	{r4, r5, r6, lr}
100070d6:	f7fd fdf9 	bl	10004ccc <runtime_run_initializers>
100070da:	4d07      	ldr	r5, [pc, #28]	@ (100070f8 <runtime_init+0x24>)
100070dc:	4e07      	ldr	r6, [pc, #28]	@ (100070fc <runtime_init+0x28>)
100070de:	42b5      	cmp	r5, r6
100070e0:	d209      	bcs.n	100070f6 <runtime_init+0x22>
100070e2:	2400      	movs	r4, #0
100070e4:	3e01      	subs	r6, #1
100070e6:	1b76      	subs	r6, r6, r5
100070e8:	08b6      	lsrs	r6, r6, #2
100070ea:	cd08      	ldmia	r5!, {r3}
100070ec:	4798      	blx	r3
100070ee:	0023      	movs	r3, r4
100070f0:	3401      	adds	r4, #1
100070f2:	42b3      	cmp	r3, r6
100070f4:	d1f9      	bne.n	100070ea <runtime_init+0x16>
100070f6:	bd70      	pop	{r4, r5, r6, pc}
100070f8:	1000ac7c 	.word	0x1000ac7c
100070fc:	1000ac84 	.word	0x1000ac84

10007100 <stdio_out_chars_no_crlf>:
10007100:	0003      	movs	r3, r0
10007102:	b510      	push	{r4, lr}
10007104:	0008      	movs	r0, r1
10007106:	0011      	movs	r1, r2
10007108:	681b      	ldr	r3, [r3, #0]
1000710a:	4798      	blx	r3
1000710c:	bd10      	pop	{r4, pc}
1000710e:	46c0      	nop			@ (mov r8, r8)

10007110 <stdio_out_chars_crlf>:
10007110:	b5f0      	push	{r4, r5, r6, r7, lr}
10007112:	46c6      	mov	lr, r8
10007114:	b500      	push	{lr}
10007116:	7d43      	ldrb	r3, [r0, #21]
10007118:	0007      	movs	r7, r0
1000711a:	000c      	movs	r4, r1
1000711c:	0016      	movs	r6, r2
1000711e:	2b00      	cmp	r3, #0
10007120:	d046      	beq.n	100071b0 <stdio_out_chars_crlf+0xa0>
10007122:	2a00      	cmp	r2, #0
10007124:	dd17      	ble.n	10007156 <stdio_out_chars_crlf+0x46>
10007126:	780b      	ldrb	r3, [r1, #0]
10007128:	2b0a      	cmp	r3, #10
1000712a:	d024      	beq.n	10007176 <stdio_out_chars_crlf+0x66>
1000712c:	2300      	movs	r3, #0
1000712e:	4698      	mov	r8, r3
10007130:	2e01      	cmp	r6, #1
10007132:	d013      	beq.n	1000715c <stdio_out_chars_crlf+0x4c>
10007134:	2501      	movs	r5, #1
10007136:	0029      	movs	r1, r5
10007138:	5c63      	ldrb	r3, [r4, r1]
1000713a:	3501      	adds	r5, #1
1000713c:	2b0a      	cmp	r3, #10
1000713e:	d026      	beq.n	1000718e <stdio_out_chars_crlf+0x7e>
10007140:	42b5      	cmp	r5, r6
10007142:	d1f8      	bne.n	10007136 <stdio_out_chars_crlf+0x26>
10007144:	4546      	cmp	r6, r8
10007146:	dc09      	bgt.n	1000715c <stdio_out_chars_crlf+0x4c>
10007148:	19a4      	adds	r4, r4, r6
1000714a:	3c01      	subs	r4, #1
1000714c:	7823      	ldrb	r3, [r4, #0]
1000714e:	3b0d      	subs	r3, #13
10007150:	425a      	negs	r2, r3
10007152:	4153      	adcs	r3, r2
10007154:	753b      	strb	r3, [r7, #20]
10007156:	bc80      	pop	{r7}
10007158:	46b8      	mov	r8, r7
1000715a:	bdf0      	pop	{r4, r5, r6, r7, pc}
1000715c:	4643      	mov	r3, r8
1000715e:	18e0      	adds	r0, r4, r3
10007160:	19a4      	adds	r4, r4, r6
10007162:	1af1      	subs	r1, r6, r3
10007164:	3c01      	subs	r4, #1
10007166:	683b      	ldr	r3, [r7, #0]
10007168:	4798      	blx	r3
1000716a:	7823      	ldrb	r3, [r4, #0]
1000716c:	3b0d      	subs	r3, #13
1000716e:	425a      	negs	r2, r3
10007170:	4153      	adcs	r3, r2
10007172:	753b      	strb	r3, [r7, #20]
10007174:	e7ef      	b.n	10007156 <stdio_out_chars_crlf+0x46>
10007176:	7d03      	ldrb	r3, [r0, #20]
10007178:	2b00      	cmp	r3, #0
1000717a:	d1d7      	bne.n	1000712c <stdio_out_chars_crlf+0x1c>
1000717c:	2102      	movs	r1, #2
1000717e:	480f      	ldr	r0, [pc, #60]	@ (100071bc <stdio_out_chars_crlf+0xac>)
10007180:	683b      	ldr	r3, [r7, #0]
10007182:	4798      	blx	r3
10007184:	2e01      	cmp	r6, #1
10007186:	d0df      	beq.n	10007148 <stdio_out_chars_crlf+0x38>
10007188:	2301      	movs	r3, #1
1000718a:	4698      	mov	r8, r3
1000718c:	e7d2      	b.n	10007134 <stdio_out_chars_crlf+0x24>
1000718e:	1e63      	subs	r3, r4, #1
10007190:	5c5b      	ldrb	r3, [r3, r1]
10007192:	2b0d      	cmp	r3, #13
10007194:	d0d4      	beq.n	10007140 <stdio_out_chars_crlf+0x30>
10007196:	4588      	cmp	r8, r1
10007198:	da04      	bge.n	100071a4 <stdio_out_chars_crlf+0x94>
1000719a:	4643      	mov	r3, r8
1000719c:	1ac9      	subs	r1, r1, r3
1000719e:	18e0      	adds	r0, r4, r3
100071a0:	683b      	ldr	r3, [r7, #0]
100071a2:	4798      	blx	r3
100071a4:	2102      	movs	r1, #2
100071a6:	4805      	ldr	r0, [pc, #20]	@ (100071bc <stdio_out_chars_crlf+0xac>)
100071a8:	683b      	ldr	r3, [r7, #0]
100071aa:	46a8      	mov	r8, r5
100071ac:	4798      	blx	r3
100071ae:	e7c7      	b.n	10007140 <stdio_out_chars_crlf+0x30>
100071b0:	6803      	ldr	r3, [r0, #0]
100071b2:	0011      	movs	r1, r2
100071b4:	0020      	movs	r0, r4
100071b6:	4798      	blx	r3
100071b8:	e7cd      	b.n	10007156 <stdio_out_chars_crlf+0x46>
100071ba:	46c0      	nop			@ (mov r8, r8)
100071bc:	1000c278 	.word	0x1000c278

100071c0 <stdio_buffered_printer>:
100071c0:	b5f0      	push	{r4, r5, r6, r7, lr}
100071c2:	46c6      	mov	lr, r8
100071c4:	680b      	ldr	r3, [r1, #0]
100071c6:	0006      	movs	r6, r0
100071c8:	000c      	movs	r4, r1
100071ca:	b500      	push	{lr}
100071cc:	2b80      	cmp	r3, #128	@ 0x80
100071ce:	d006      	beq.n	100071de <stdio_buffered_printer+0x1e>
100071d0:	1c5a      	adds	r2, r3, #1
100071d2:	6022      	str	r2, [r4, #0]
100071d4:	18e4      	adds	r4, r4, r3
100071d6:	7126      	strb	r6, [r4, #4]
100071d8:	bc80      	pop	{r7}
100071da:	46b8      	mov	r8, r7
100071dc:	bdf0      	pop	{r4, r5, r6, r7, pc}
100071de:	4b0f      	ldr	r3, [pc, #60]	@ (1000721c <stdio_buffered_printer+0x5c>)
100071e0:	681d      	ldr	r5, [r3, #0]
100071e2:	2d00      	cmp	r5, #0
100071e4:	d016      	beq.n	10007214 <stdio_buffered_printer+0x54>
100071e6:	1d0b      	adds	r3, r1, #4
100071e8:	4698      	mov	r8, r3
100071ea:	4f0d      	ldr	r7, [pc, #52]	@ (10007220 <stdio_buffered_printer+0x60>)
100071ec:	e002      	b.n	100071f4 <stdio_buffered_printer+0x34>
100071ee:	692d      	ldr	r5, [r5, #16]
100071f0:	2d00      	cmp	r5, #0
100071f2:	d00f      	beq.n	10007214 <stdio_buffered_printer+0x54>
100071f4:	682b      	ldr	r3, [r5, #0]
100071f6:	2b00      	cmp	r3, #0
100071f8:	d0f9      	beq.n	100071ee <stdio_buffered_printer+0x2e>
100071fa:	683b      	ldr	r3, [r7, #0]
100071fc:	2b00      	cmp	r3, #0
100071fe:	d001      	beq.n	10007204 <stdio_buffered_printer+0x44>
10007200:	42ab      	cmp	r3, r5
10007202:	d1f4      	bne.n	100071ee <stdio_buffered_printer+0x2e>
10007204:	0028      	movs	r0, r5
10007206:	4641      	mov	r1, r8
10007208:	6822      	ldr	r2, [r4, #0]
1000720a:	f7ff ff81 	bl	10007110 <stdio_out_chars_crlf>
1000720e:	692d      	ldr	r5, [r5, #16]
10007210:	2d00      	cmp	r5, #0
10007212:	d1ef      	bne.n	100071f4 <stdio_buffered_printer+0x34>
10007214:	2201      	movs	r2, #1
10007216:	2300      	movs	r3, #0
10007218:	e7db      	b.n	100071d2 <stdio_buffered_printer+0x12>
1000721a:	46c0      	nop			@ (mov r8, r8)
1000721c:	20004d54 	.word	0x20004d54
10007220:	20004d60 	.word	0x20004d60

10007224 <stdio_put_string>:
10007224:	b5f0      	push	{r4, r5, r6, r7, lr}
10007226:	4645      	mov	r5, r8
10007228:	46de      	mov	lr, fp
1000722a:	464e      	mov	r6, r9
1000722c:	4657      	mov	r7, sl
1000722e:	b5e0      	push	{r5, r6, r7, lr}
10007230:	b083      	sub	sp, #12
10007232:	4691      	mov	r9, r2
10007234:	001c      	movs	r4, r3
10007236:	4680      	mov	r8, r0
10007238:	000d      	movs	r5, r1
1000723a:	f7fd f911 	bl	10004460 <time_us_64>
1000723e:	2300      	movs	r3, #0
10007240:	4a30      	ldr	r2, [pc, #192]	@ (10007304 <stdio_put_string+0xe0>)
10007242:	1812      	adds	r2, r2, r0
10007244:	414b      	adcs	r3, r1
10007246:	2b00      	cmp	r3, #0
10007248:	da02      	bge.n	10007250 <stdio_put_string+0x2c>
1000724a:	2201      	movs	r2, #1
1000724c:	4b2e      	ldr	r3, [pc, #184]	@ (10007308 <stdio_put_string+0xe4>)
1000724e:	4252      	negs	r2, r2
10007250:	492e      	ldr	r1, [pc, #184]	@ (1000730c <stdio_put_string+0xe8>)
10007252:	0008      	movs	r0, r1
10007254:	468a      	mov	sl, r1
10007256:	f003 fccb 	bl	1000abf0 <__mutex_try_enter_block_until_veneer>
1000725a:	0007      	movs	r7, r0
1000725c:	1c6b      	adds	r3, r5, #1
1000725e:	d103      	bne.n	10007268 <stdio_put_string+0x44>
10007260:	4640      	mov	r0, r8
10007262:	f003 fb09 	bl	1000a878 <strlen>
10007266:	0005      	movs	r5, r0
10007268:	2c00      	cmp	r4, #0
1000726a:	d027      	beq.n	100072bc <stdio_put_string+0x98>
1000726c:	4e28      	ldr	r6, [pc, #160]	@ (10007310 <stdio_put_string+0xec>)
1000726e:	4b29      	ldr	r3, [pc, #164]	@ (10007314 <stdio_put_string+0xf0>)
10007270:	681c      	ldr	r4, [r3, #0]
10007272:	2c00      	cmp	r4, #0
10007274:	d018      	beq.n	100072a8 <stdio_put_string+0x84>
10007276:	464b      	mov	r3, r9
10007278:	2b00      	cmp	r3, #0
1000727a:	d121      	bne.n	100072c0 <stdio_put_string+0x9c>
1000727c:	4b26      	ldr	r3, [pc, #152]	@ (10007318 <stdio_put_string+0xf4>)
1000727e:	4699      	mov	r9, r3
10007280:	e002      	b.n	10007288 <stdio_put_string+0x64>
10007282:	6924      	ldr	r4, [r4, #16]
10007284:	2c00      	cmp	r4, #0
10007286:	d00f      	beq.n	100072a8 <stdio_put_string+0x84>
10007288:	6823      	ldr	r3, [r4, #0]
1000728a:	2b00      	cmp	r3, #0
1000728c:	d0f9      	beq.n	10007282 <stdio_put_string+0x5e>
1000728e:	464b      	mov	r3, r9
10007290:	681b      	ldr	r3, [r3, #0]
10007292:	2b00      	cmp	r3, #0
10007294:	d001      	beq.n	1000729a <stdio_put_string+0x76>
10007296:	429c      	cmp	r4, r3
10007298:	d1f3      	bne.n	10007282 <stdio_put_string+0x5e>
1000729a:	0020      	movs	r0, r4
1000729c:	002a      	movs	r2, r5
1000729e:	4641      	mov	r1, r8
100072a0:	47b0      	blx	r6
100072a2:	6924      	ldr	r4, [r4, #16]
100072a4:	2c00      	cmp	r4, #0
100072a6:	d1ef      	bne.n	10007288 <stdio_put_string+0x64>
100072a8:	2f00      	cmp	r7, #0
100072aa:	d126      	bne.n	100072fa <stdio_put_string+0xd6>
100072ac:	0028      	movs	r0, r5
100072ae:	b003      	add	sp, #12
100072b0:	bcf0      	pop	{r4, r5, r6, r7}
100072b2:	46bb      	mov	fp, r7
100072b4:	46b2      	mov	sl, r6
100072b6:	46a9      	mov	r9, r5
100072b8:	46a0      	mov	r8, r4
100072ba:	bdf0      	pop	{r4, r5, r6, r7, pc}
100072bc:	4e17      	ldr	r6, [pc, #92]	@ (1000731c <stdio_put_string+0xf8>)
100072be:	e7d6      	b.n	1000726e <stdio_put_string+0x4a>
100072c0:	4b15      	ldr	r3, [pc, #84]	@ (10007318 <stdio_put_string+0xf4>)
100072c2:	4699      	mov	r9, r3
100072c4:	230a      	movs	r3, #10
100072c6:	469b      	mov	fp, r3
100072c8:	e002      	b.n	100072d0 <stdio_put_string+0xac>
100072ca:	6924      	ldr	r4, [r4, #16]
100072cc:	2c00      	cmp	r4, #0
100072ce:	d0eb      	beq.n	100072a8 <stdio_put_string+0x84>
100072d0:	6823      	ldr	r3, [r4, #0]
100072d2:	2b00      	cmp	r3, #0
100072d4:	d0f9      	beq.n	100072ca <stdio_put_string+0xa6>
100072d6:	464b      	mov	r3, r9
100072d8:	681b      	ldr	r3, [r3, #0]
100072da:	2b00      	cmp	r3, #0
100072dc:	d001      	beq.n	100072e2 <stdio_put_string+0xbe>
100072de:	42a3      	cmp	r3, r4
100072e0:	d1f3      	bne.n	100072ca <stdio_put_string+0xa6>
100072e2:	002a      	movs	r2, r5
100072e4:	4641      	mov	r1, r8
100072e6:	0020      	movs	r0, r4
100072e8:	47b0      	blx	r6
100072ea:	466b      	mov	r3, sp
100072ec:	465a      	mov	r2, fp
100072ee:	0020      	movs	r0, r4
100072f0:	71da      	strb	r2, [r3, #7]
100072f2:	1dd9      	adds	r1, r3, #7
100072f4:	2201      	movs	r2, #1
100072f6:	47b0      	blx	r6
100072f8:	e7e7      	b.n	100072ca <stdio_put_string+0xa6>
100072fa:	4650      	mov	r0, sl
100072fc:	f003 fc48 	bl	1000ab90 <__mutex_exit_veneer>
10007300:	e7d4      	b.n	100072ac <stdio_put_string+0x88>
10007302:	46c0      	nop			@ (mov r8, r8)
10007304:	000f4240 	.word	0x000f4240
10007308:	7fffffff 	.word	0x7fffffff
1000730c:	20003c60 	.word	0x20003c60
10007310:	10007111 	.word	0x10007111
10007314:	20004d54 	.word	0x20004d54
10007318:	20004d60 	.word	0x20004d60
1000731c:	10007101 	.word	0x10007101

10007320 <stdio_set_driver_enabled>:
10007320:	4a0a      	ldr	r2, [pc, #40]	@ (1000734c <stdio_set_driver_enabled+0x2c>)
10007322:	6813      	ldr	r3, [r2, #0]
10007324:	2b00      	cmp	r3, #0
10007326:	d105      	bne.n	10007334 <stdio_set_driver_enabled+0x14>
10007328:	e00c      	b.n	10007344 <stdio_set_driver_enabled+0x24>
1000732a:	001a      	movs	r2, r3
1000732c:	691b      	ldr	r3, [r3, #16]
1000732e:	3210      	adds	r2, #16
10007330:	2b00      	cmp	r3, #0
10007332:	d007      	beq.n	10007344 <stdio_set_driver_enabled+0x24>
10007334:	4283      	cmp	r3, r0
10007336:	d1f8      	bne.n	1000732a <stdio_set_driver_enabled+0xa>
10007338:	2900      	cmp	r1, #0
1000733a:	d102      	bne.n	10007342 <stdio_set_driver_enabled+0x22>
1000733c:	6918      	ldr	r0, [r3, #16]
1000733e:	6010      	str	r0, [r2, #0]
10007340:	6119      	str	r1, [r3, #16]
10007342:	4770      	bx	lr
10007344:	2900      	cmp	r1, #0
10007346:	d0fc      	beq.n	10007342 <stdio_set_driver_enabled+0x22>
10007348:	6010      	str	r0, [r2, #0]
1000734a:	e7fa      	b.n	10007342 <stdio_set_driver_enabled+0x22>
1000734c:	20004d54 	.word	0x20004d54

10007350 <stdio_init_all>:
10007350:	b510      	push	{r4, lr}
10007352:	f000 faf1 	bl	10007938 <stdio_usb_init>
10007356:	bd10      	pop	{r4, pc}

10007358 <__wrap_putchar>:
10007358:	b5f0      	push	{r4, r5, r6, r7, lr}
1000735a:	46ce      	mov	lr, r9
1000735c:	4647      	mov	r7, r8
1000735e:	b580      	push	{r7, lr}
10007360:	b083      	sub	sp, #12
10007362:	466b      	mov	r3, sp
10007364:	0006      	movs	r6, r0
10007366:	1ddd      	adds	r5, r3, #7
10007368:	7028      	strb	r0, [r5, #0]
1000736a:	f7fd f879 	bl	10004460 <time_us_64>
1000736e:	2300      	movs	r3, #0
10007370:	4a19      	ldr	r2, [pc, #100]	@ (100073d8 <__wrap_putchar+0x80>)
10007372:	1812      	adds	r2, r2, r0
10007374:	414b      	adcs	r3, r1
10007376:	2b00      	cmp	r3, #0
10007378:	da02      	bge.n	10007380 <__wrap_putchar+0x28>
1000737a:	2201      	movs	r2, #1
1000737c:	4b17      	ldr	r3, [pc, #92]	@ (100073dc <__wrap_putchar+0x84>)
1000737e:	4252      	negs	r2, r2
10007380:	4917      	ldr	r1, [pc, #92]	@ (100073e0 <__wrap_putchar+0x88>)
10007382:	0008      	movs	r0, r1
10007384:	4688      	mov	r8, r1
10007386:	f003 fc33 	bl	1000abf0 <__mutex_try_enter_block_until_veneer>
1000738a:	4b16      	ldr	r3, [pc, #88]	@ (100073e4 <__wrap_putchar+0x8c>)
1000738c:	4681      	mov	r9, r0
1000738e:	681c      	ldr	r4, [r3, #0]
10007390:	2c00      	cmp	r4, #0
10007392:	d014      	beq.n	100073be <__wrap_putchar+0x66>
10007394:	4f14      	ldr	r7, [pc, #80]	@ (100073e8 <__wrap_putchar+0x90>)
10007396:	e002      	b.n	1000739e <__wrap_putchar+0x46>
10007398:	6924      	ldr	r4, [r4, #16]
1000739a:	2c00      	cmp	r4, #0
1000739c:	d00f      	beq.n	100073be <__wrap_putchar+0x66>
1000739e:	6823      	ldr	r3, [r4, #0]
100073a0:	2b00      	cmp	r3, #0
100073a2:	d0f9      	beq.n	10007398 <__wrap_putchar+0x40>
100073a4:	683b      	ldr	r3, [r7, #0]
100073a6:	2b00      	cmp	r3, #0
100073a8:	d001      	beq.n	100073ae <__wrap_putchar+0x56>
100073aa:	429c      	cmp	r4, r3
100073ac:	d1f4      	bne.n	10007398 <__wrap_putchar+0x40>
100073ae:	0020      	movs	r0, r4
100073b0:	2201      	movs	r2, #1
100073b2:	0029      	movs	r1, r5
100073b4:	f7ff feac 	bl	10007110 <stdio_out_chars_crlf>
100073b8:	6924      	ldr	r4, [r4, #16]
100073ba:	2c00      	cmp	r4, #0
100073bc:	d1ef      	bne.n	1000739e <__wrap_putchar+0x46>
100073be:	464b      	mov	r3, r9
100073c0:	2b00      	cmp	r3, #0
100073c2:	d105      	bne.n	100073d0 <__wrap_putchar+0x78>
100073c4:	0030      	movs	r0, r6
100073c6:	b003      	add	sp, #12
100073c8:	bcc0      	pop	{r6, r7}
100073ca:	46b9      	mov	r9, r7
100073cc:	46b0      	mov	r8, r6
100073ce:	bdf0      	pop	{r4, r5, r6, r7, pc}
100073d0:	4640      	mov	r0, r8
100073d2:	f003 fbdd 	bl	1000ab90 <__mutex_exit_veneer>
100073d6:	e7f5      	b.n	100073c4 <__wrap_putchar+0x6c>
100073d8:	000f4240 	.word	0x000f4240
100073dc:	7fffffff 	.word	0x7fffffff
100073e0:	20003c60 	.word	0x20003c60
100073e4:	20004d54 	.word	0x20004d54
100073e8:	20004d60 	.word	0x20004d60

100073ec <__wrap_puts>:
100073ec:	b570      	push	{r4, r5, r6, lr}
100073ee:	0004      	movs	r4, r0
100073f0:	f003 fa42 	bl	1000a878 <strlen>
100073f4:	2301      	movs	r3, #1
100073f6:	0001      	movs	r1, r0
100073f8:	0005      	movs	r5, r0
100073fa:	2201      	movs	r2, #1
100073fc:	0020      	movs	r0, r4
100073fe:	f7ff ff11 	bl	10007224 <stdio_put_string>
10007402:	4b08      	ldr	r3, [pc, #32]	@ (10007424 <__wrap_puts+0x38>)
10007404:	681c      	ldr	r4, [r3, #0]
10007406:	2c00      	cmp	r4, #0
10007408:	d006      	beq.n	10007418 <__wrap_puts+0x2c>
1000740a:	6863      	ldr	r3, [r4, #4]
1000740c:	2b00      	cmp	r3, #0
1000740e:	d005      	beq.n	1000741c <__wrap_puts+0x30>
10007410:	4798      	blx	r3
10007412:	6924      	ldr	r4, [r4, #16]
10007414:	2c00      	cmp	r4, #0
10007416:	d1f8      	bne.n	1000740a <__wrap_puts+0x1e>
10007418:	0028      	movs	r0, r5
1000741a:	bd70      	pop	{r4, r5, r6, pc}
1000741c:	6924      	ldr	r4, [r4, #16]
1000741e:	2c00      	cmp	r4, #0
10007420:	d1f3      	bne.n	1000740a <__wrap_puts+0x1e>
10007422:	e7f9      	b.n	10007418 <__wrap_puts+0x2c>
10007424:	20004d54 	.word	0x20004d54

10007428 <__wrap_vprintf>:
10007428:	b5f0      	push	{r4, r5, r6, r7, lr}
1000742a:	46ce      	mov	lr, r9
1000742c:	4647      	mov	r7, r8
1000742e:	b580      	push	{r7, lr}
10007430:	b0a3      	sub	sp, #140	@ 0x8c
10007432:	0004      	movs	r4, r0
10007434:	000d      	movs	r5, r1
10007436:	f7fd f813 	bl	10004460 <time_us_64>
1000743a:	2300      	movs	r3, #0
1000743c:	4a27      	ldr	r2, [pc, #156]	@ (100074dc <__wrap_vprintf+0xb4>)
1000743e:	1812      	adds	r2, r2, r0
10007440:	414b      	adcs	r3, r1
10007442:	2b00      	cmp	r3, #0
10007444:	da02      	bge.n	1000744c <__wrap_vprintf+0x24>
10007446:	2201      	movs	r2, #1
10007448:	4b25      	ldr	r3, [pc, #148]	@ (100074e0 <__wrap_vprintf+0xb8>)
1000744a:	4252      	negs	r2, r2
1000744c:	4e25      	ldr	r6, [pc, #148]	@ (100074e4 <__wrap_vprintf+0xbc>)
1000744e:	0030      	movs	r0, r6
10007450:	f003 fbce 	bl	1000abf0 <__mutex_try_enter_block_until_veneer>
10007454:	2300      	movs	r3, #0
10007456:	0022      	movs	r2, r4
10007458:	9301      	str	r3, [sp, #4]
1000745a:	0007      	movs	r7, r0
1000745c:	002b      	movs	r3, r5
1000745e:	4822      	ldr	r0, [pc, #136]	@ (100074e8 <__wrap_vprintf+0xc0>)
10007460:	a901      	add	r1, sp, #4
10007462:	f7ff fded 	bl	10007040 <vfctprintf>
10007466:	4b21      	ldr	r3, [pc, #132]	@ (100074ec <__wrap_vprintf+0xc4>)
10007468:	4680      	mov	r8, r0
1000746a:	4699      	mov	r9, r3
1000746c:	681c      	ldr	r4, [r3, #0]
1000746e:	9b01      	ldr	r3, [sp, #4]
10007470:	2b00      	cmp	r3, #0
10007472:	d01a      	beq.n	100074aa <__wrap_vprintf+0x82>
10007474:	2c00      	cmp	r4, #0
10007476:	d02f      	beq.n	100074d8 <__wrap_vprintf+0xb0>
10007478:	4d1d      	ldr	r5, [pc, #116]	@ (100074f0 <__wrap_vprintf+0xc8>)
1000747a:	e002      	b.n	10007482 <__wrap_vprintf+0x5a>
1000747c:	6924      	ldr	r4, [r4, #16]
1000747e:	2c00      	cmp	r4, #0
10007480:	d00f      	beq.n	100074a2 <__wrap_vprintf+0x7a>
10007482:	6823      	ldr	r3, [r4, #0]
10007484:	2b00      	cmp	r3, #0
10007486:	d0f9      	beq.n	1000747c <__wrap_vprintf+0x54>
10007488:	682b      	ldr	r3, [r5, #0]
1000748a:	2b00      	cmp	r3, #0
1000748c:	d001      	beq.n	10007492 <__wrap_vprintf+0x6a>
1000748e:	42a3      	cmp	r3, r4
10007490:	d1f4      	bne.n	1000747c <__wrap_vprintf+0x54>
10007492:	0020      	movs	r0, r4
10007494:	9a01      	ldr	r2, [sp, #4]
10007496:	a902      	add	r1, sp, #8
10007498:	f7ff fe3a 	bl	10007110 <stdio_out_chars_crlf>
1000749c:	6924      	ldr	r4, [r4, #16]
1000749e:	2c00      	cmp	r4, #0
100074a0:	d1ef      	bne.n	10007482 <__wrap_vprintf+0x5a>
100074a2:	464b      	mov	r3, r9
100074a4:	681c      	ldr	r4, [r3, #0]
100074a6:	2300      	movs	r3, #0
100074a8:	9301      	str	r3, [sp, #4]
100074aa:	2c00      	cmp	r4, #0
100074ac:	d006      	beq.n	100074bc <__wrap_vprintf+0x94>
100074ae:	6863      	ldr	r3, [r4, #4]
100074b0:	2b00      	cmp	r3, #0
100074b2:	d00b      	beq.n	100074cc <__wrap_vprintf+0xa4>
100074b4:	4798      	blx	r3
100074b6:	6924      	ldr	r4, [r4, #16]
100074b8:	2c00      	cmp	r4, #0
100074ba:	d1f8      	bne.n	100074ae <__wrap_vprintf+0x86>
100074bc:	2f00      	cmp	r7, #0
100074be:	d107      	bne.n	100074d0 <__wrap_vprintf+0xa8>
100074c0:	4640      	mov	r0, r8
100074c2:	b023      	add	sp, #140	@ 0x8c
100074c4:	bcc0      	pop	{r6, r7}
100074c6:	46b9      	mov	r9, r7
100074c8:	46b0      	mov	r8, r6
100074ca:	bdf0      	pop	{r4, r5, r6, r7, pc}
100074cc:	6924      	ldr	r4, [r4, #16]
100074ce:	e7ec      	b.n	100074aa <__wrap_vprintf+0x82>
100074d0:	0030      	movs	r0, r6
100074d2:	f003 fb5d 	bl	1000ab90 <__mutex_exit_veneer>
100074d6:	e7f3      	b.n	100074c0 <__wrap_vprintf+0x98>
100074d8:	9401      	str	r4, [sp, #4]
100074da:	e7ef      	b.n	100074bc <__wrap_vprintf+0x94>
100074dc:	000f4240 	.word	0x000f4240
100074e0:	7fffffff 	.word	0x7fffffff
100074e4:	20003c60 	.word	0x20003c60
100074e8:	100071c1 	.word	0x100071c1
100074ec:	20004d54 	.word	0x20004d54
100074f0:	20004d60 	.word	0x20004d60

100074f4 <__wrap_printf>:
100074f4:	b40f      	push	{r0, r1, r2, r3}
100074f6:	b500      	push	{lr}
100074f8:	b083      	sub	sp, #12
100074fa:	a904      	add	r1, sp, #16
100074fc:	c901      	ldmia	r1!, {r0}
100074fe:	9101      	str	r1, [sp, #4]
10007500:	f7ff ff92 	bl	10007428 <__wrap_vprintf>
10007504:	b003      	add	sp, #12
10007506:	bc08      	pop	{r3}
10007508:	b004      	add	sp, #16
1000750a:	4718      	bx	r3

1000750c <resetd_init>:
1000750c:	4770      	bx	lr
1000750e:	46c0      	nop			@ (mov r8, r8)

10007510 <resetd_reset>:
10007510:	2200      	movs	r2, #0
10007512:	4b01      	ldr	r3, [pc, #4]	@ (10007518 <resetd_reset+0x8>)
10007514:	701a      	strb	r2, [r3, #0]
10007516:	4770      	bx	lr
10007518:	2000530a 	.word	0x2000530a

1000751c <resetd_open>:
1000751c:	794b      	ldrb	r3, [r1, #5]
1000751e:	2000      	movs	r0, #0
10007520:	2bff      	cmp	r3, #255	@ 0xff
10007522:	d10b      	bne.n	1000753c <resetd_open+0x20>
10007524:	798b      	ldrb	r3, [r1, #6]
10007526:	2b00      	cmp	r3, #0
10007528:	d108      	bne.n	1000753c <resetd_open+0x20>
1000752a:	79cb      	ldrb	r3, [r1, #7]
1000752c:	2b01      	cmp	r3, #1
1000752e:	d105      	bne.n	1000753c <resetd_open+0x20>
10007530:	2a08      	cmp	r2, #8
10007532:	d903      	bls.n	1000753c <resetd_open+0x20>
10007534:	4b02      	ldr	r3, [pc, #8]	@ (10007540 <resetd_open+0x24>)
10007536:	788a      	ldrb	r2, [r1, #2]
10007538:	3009      	adds	r0, #9
1000753a:	701a      	strb	r2, [r3, #0]
1000753c:	4770      	bx	lr
1000753e:	46c0      	nop			@ (mov r8, r8)
10007540:	2000530a 	.word	0x2000530a

10007544 <resetd_xfer_cb>:
10007544:	2001      	movs	r0, #1
10007546:	4770      	bx	lr

10007548 <resetd_control_xfer_cb>:
10007548:	b510      	push	{r4, lr}
1000754a:	2901      	cmp	r1, #1
1000754c:	d113      	bne.n	10007576 <resetd_control_xfer_cb+0x2e>
1000754e:	4912      	ldr	r1, [pc, #72]	@ (10007598 <resetd_control_xfer_cb+0x50>)
10007550:	7953      	ldrb	r3, [r2, #5]
10007552:	7910      	ldrb	r0, [r2, #4]
10007554:	7809      	ldrb	r1, [r1, #0]
10007556:	021b      	lsls	r3, r3, #8
10007558:	4303      	orrs	r3, r0
1000755a:	2000      	movs	r0, #0
1000755c:	4299      	cmp	r1, r3
1000755e:	d000      	beq.n	10007562 <resetd_control_xfer_cb+0x1a>
10007560:	bd10      	pop	{r4, pc}
10007562:	7853      	ldrb	r3, [r2, #1]
10007564:	2b01      	cmp	r3, #1
10007566:	d008      	beq.n	1000757a <resetd_control_xfer_cb+0x32>
10007568:	2b02      	cmp	r3, #2
1000756a:	d1f9      	bne.n	10007560 <resetd_control_xfer_cb+0x18>
1000756c:	2264      	movs	r2, #100	@ 0x64
1000756e:	2100      	movs	r1, #0
10007570:	2000      	movs	r0, #0
10007572:	f7fd fae7 	bl	10004b44 <watchdog_reboot>
10007576:	2001      	movs	r0, #1
10007578:	e7f2      	b.n	10007560 <resetd_control_xfer_cb+0x18>
1000757a:	78d3      	ldrb	r3, [r2, #3]
1000757c:	7891      	ldrb	r1, [r2, #2]
1000757e:	021b      	lsls	r3, r3, #8
10007580:	4319      	orrs	r1, r3
10007582:	0a48      	lsrs	r0, r1, #9
10007584:	05db      	lsls	r3, r3, #23
10007586:	d401      	bmi.n	1000758c <resetd_control_xfer_cb+0x44>
10007588:	2001      	movs	r0, #1
1000758a:	4240      	negs	r0, r0
1000758c:	237f      	movs	r3, #127	@ 0x7f
1000758e:	058a      	lsls	r2, r1, #22
10007590:	0fd2      	lsrs	r2, r2, #31
10007592:	4019      	ands	r1, r3
10007594:	f7fd fb6c 	bl	10004c70 <rom_reset_usb_boot_extra>
10007598:	2000530a 	.word	0x2000530a

1000759c <tud_descriptor_bos_cb>:
1000759c:	4800      	ldr	r0, [pc, #0]	@ (100075a0 <tud_descriptor_bos_cb+0x4>)
1000759e:	4770      	bx	lr
100075a0:	1000c344 	.word	0x1000c344

100075a4 <tud_vendor_control_xfer_cb>:
100075a4:	b570      	push	{r4, r5, r6, lr}
100075a6:	0005      	movs	r5, r0
100075a8:	0014      	movs	r4, r2
100075aa:	2001      	movs	r0, #1
100075ac:	2901      	cmp	r1, #1
100075ae:	d109      	bne.n	100075c4 <tud_vendor_control_xfer_cb+0x20>
100075b0:	7853      	ldrb	r3, [r2, #1]
100075b2:	2000      	movs	r0, #0
100075b4:	2b01      	cmp	r3, #1
100075b6:	d105      	bne.n	100075c4 <tud_vendor_control_xfer_cb+0x20>
100075b8:	7963      	ldrb	r3, [r4, #5]
100075ba:	7912      	ldrb	r2, [r2, #4]
100075bc:	021b      	lsls	r3, r3, #8
100075be:	4313      	orrs	r3, r2
100075c0:	2b07      	cmp	r3, #7
100075c2:	d000      	beq.n	100075c6 <tud_vendor_control_xfer_cb+0x22>
100075c4:	bd70      	pop	{r4, r5, r6, pc}
100075c6:	0021      	movs	r1, r4
100075c8:	0028      	movs	r0, r5
100075ca:	4a02      	ldr	r2, [pc, #8]	@ (100075d4 <tud_vendor_control_xfer_cb+0x30>)
100075cc:	339f      	adds	r3, #159	@ 0x9f
100075ce:	f001 fa55 	bl	10008a7c <tud_control_xfer>
100075d2:	e7f7      	b.n	100075c4 <tud_vendor_control_xfer_cb+0x20>
100075d4:	1000c29c 	.word	0x1000c29c

100075d8 <usbd_app_driver_get_cb>:
100075d8:	2301      	movs	r3, #1
100075da:	7003      	strb	r3, [r0, #0]
100075dc:	4800      	ldr	r0, [pc, #0]	@ (100075e0 <usbd_app_driver_get_cb+0x8>)
100075de:	4770      	bx	lr
100075e0:	1000c27c 	.word	0x1000c27c

100075e4 <tud_cdc_line_coding_cb>:
100075e4:	784b      	ldrb	r3, [r1, #1]
100075e6:	780a      	ldrb	r2, [r1, #0]
100075e8:	021b      	lsls	r3, r3, #8
100075ea:	4313      	orrs	r3, r2
100075ec:	788a      	ldrb	r2, [r1, #2]
100075ee:	b510      	push	{r4, lr}
100075f0:	0412      	lsls	r2, r2, #16
100075f2:	431a      	orrs	r2, r3
100075f4:	78cb      	ldrb	r3, [r1, #3]
100075f6:	061b      	lsls	r3, r3, #24
100075f8:	4313      	orrs	r3, r2
100075fa:	2296      	movs	r2, #150	@ 0x96
100075fc:	00d2      	lsls	r2, r2, #3
100075fe:	4293      	cmp	r3, r2
10007600:	d000      	beq.n	10007604 <tud_cdc_line_coding_cb+0x20>
10007602:	bd10      	pop	{r4, pc}
10007604:	2200      	movs	r2, #0
10007606:	2001      	movs	r0, #1
10007608:	0011      	movs	r1, r2
1000760a:	4240      	negs	r0, r0
1000760c:	f7fd fb30 	bl	10004c70 <rom_reset_usb_boot_extra>

10007610 <stdio_usb_set_chars_available_callback>:
10007610:	4b02      	ldr	r3, [pc, #8]	@ (1000761c <stdio_usb_set_chars_available_callback+0xc>)
10007612:	6018      	str	r0, [r3, #0]
10007614:	4b02      	ldr	r3, [pc, #8]	@ (10007620 <stdio_usb_set_chars_available_callback+0x10>)
10007616:	6019      	str	r1, [r3, #0]
10007618:	4770      	bx	lr
1000761a:	46c0      	nop			@ (mov r8, r8)
1000761c:	20004cf0 	.word	0x20004cf0
10007620:	20004cf4 	.word	0x20004cf4

10007624 <usb_irq>:
10007624:	b510      	push	{r4, lr}
10007626:	4b02      	ldr	r3, [pc, #8]	@ (10007630 <usb_irq+0xc>)
10007628:	7818      	ldrb	r0, [r3, #0]
1000762a:	f7fc f80f 	bl	1000364c <irq_set_pending>
1000762e:	bd10      	pop	{r4, pc}
10007630:	2000530b 	.word	0x2000530b

10007634 <timer_task>:
10007634:	4b15      	ldr	r3, [pc, #84]	@ (1000768c <timer_task+0x58>)
10007636:	b570      	push	{r4, r5, r6, lr}
10007638:	681a      	ldr	r2, [r3, #0]
1000763a:	2a00      	cmp	r2, #0
1000763c:	d022      	beq.n	10007684 <timer_task+0x50>
1000763e:	f3ef 8110 	mrs	r1, PRIMASK
10007642:	b672      	cpsid	i
10007644:	6810      	ldr	r0, [r2, #0]
10007646:	2800      	cmp	r0, #0
10007648:	d0fc      	beq.n	10007644 <timer_task+0x10>
1000764a:	f3bf 8f5f 	dmb	sy
1000764e:	2000      	movs	r0, #0
10007650:	4a0f      	ldr	r2, [pc, #60]	@ (10007690 <timer_task+0x5c>)
10007652:	6059      	str	r1, [r3, #4]
10007654:	7010      	strb	r0, [r2, #0]
10007656:	681b      	ldr	r3, [r3, #0]
10007658:	f3bf 8f5f 	dmb	sy
1000765c:	6018      	str	r0, [r3, #0]
1000765e:	f381 8810 	msr	PRIMASK, r1
10007662:	2400      	movs	r4, #0
10007664:	2500      	movs	r5, #0
10007666:	4e0b      	ldr	r6, [pc, #44]	@ (10007694 <timer_task+0x60>)
10007668:	7830      	ldrb	r0, [r6, #0]
1000766a:	f7fb ffe3 	bl	10003634 <irq_is_enabled>
1000766e:	2800      	cmp	r0, #0
10007670:	d104      	bne.n	1000767c <timer_task+0x48>
10007672:	2400      	movs	r4, #0
10007674:	2500      	movs	r5, #0
10007676:	0029      	movs	r1, r5
10007678:	0020      	movs	r0, r4
1000767a:	bd70      	pop	{r4, r5, r6, pc}
1000767c:	7830      	ldrb	r0, [r6, #0]
1000767e:	f7fb ffe5 	bl	1000364c <irq_set_pending>
10007682:	e7f8      	b.n	10007676 <timer_task+0x42>
10007684:	24fa      	movs	r4, #250	@ 0xfa
10007686:	2500      	movs	r5, #0
10007688:	00a4      	lsls	r4, r4, #2
1000768a:	e7ec      	b.n	10007666 <timer_task+0x32>
1000768c:	20005194 	.word	0x20005194
10007690:	2000530c 	.word	0x2000530c
10007694:	2000530b 	.word	0x2000530b

10007698 <stdio_usb_in_chars>:
10007698:	b570      	push	{r4, r5, r6, lr}
1000769a:	0004      	movs	r4, r0
1000769c:	2000      	movs	r0, #0
1000769e:	000e      	movs	r6, r1
100076a0:	f001 fb0a 	bl	10008cb8 <tud_cdc_n_connected>
100076a4:	2800      	cmp	r0, #0
100076a6:	d034      	beq.n	10007712 <stdio_usb_in_chars+0x7a>
100076a8:	2000      	movs	r0, #0
100076aa:	f001 fb1b 	bl	10008ce4 <tud_cdc_n_available>
100076ae:	2800      	cmp	r0, #0
100076b0:	d02f      	beq.n	10007712 <stdio_usb_in_chars+0x7a>
100076b2:	f7fc fed5 	bl	10004460 <time_us_64>
100076b6:	2300      	movs	r3, #0
100076b8:	4a17      	ldr	r2, [pc, #92]	@ (10007718 <stdio_usb_in_chars+0x80>)
100076ba:	1812      	adds	r2, r2, r0
100076bc:	414b      	adcs	r3, r1
100076be:	2b00      	cmp	r3, #0
100076c0:	db16      	blt.n	100076f0 <stdio_usb_in_chars+0x58>
100076c2:	4d16      	ldr	r5, [pc, #88]	@ (1000771c <stdio_usb_in_chars+0x84>)
100076c4:	0028      	movs	r0, r5
100076c6:	f003 fa93 	bl	1000abf0 <__mutex_try_enter_block_until_veneer>
100076ca:	2800      	cmp	r0, #0
100076cc:	d021      	beq.n	10007712 <stdio_usb_in_chars+0x7a>
100076ce:	2000      	movs	r0, #0
100076d0:	f001 faf2 	bl	10008cb8 <tud_cdc_n_connected>
100076d4:	2800      	cmp	r0, #0
100076d6:	d10f      	bne.n	100076f8 <stdio_usb_in_chars+0x60>
100076d8:	2001      	movs	r0, #1
100076da:	2100      	movs	r1, #0
100076dc:	4240      	negs	r0, r0
100076de:	f000 fd01 	bl	100080e4 <tud_task_ext>
100076e2:	2403      	movs	r4, #3
100076e4:	4264      	negs	r4, r4
100076e6:	0028      	movs	r0, r5
100076e8:	f003 fa52 	bl	1000ab90 <__mutex_exit_veneer>
100076ec:	0020      	movs	r0, r4
100076ee:	bd70      	pop	{r4, r5, r6, pc}
100076f0:	2201      	movs	r2, #1
100076f2:	4b0b      	ldr	r3, [pc, #44]	@ (10007720 <stdio_usb_in_chars+0x88>)
100076f4:	4252      	negs	r2, r2
100076f6:	e7e4      	b.n	100076c2 <stdio_usb_in_chars+0x2a>
100076f8:	2000      	movs	r0, #0
100076fa:	f001 faf3 	bl	10008ce4 <tud_cdc_n_available>
100076fe:	2800      	cmp	r0, #0
10007700:	d0ea      	beq.n	100076d8 <stdio_usb_in_chars+0x40>
10007702:	0021      	movs	r1, r4
10007704:	0032      	movs	r2, r6
10007706:	2000      	movs	r0, #0
10007708:	f001 faf6 	bl	10008cf8 <tud_cdc_n_read>
1000770c:	1e04      	subs	r4, r0, #0
1000770e:	d1ea      	bne.n	100076e6 <stdio_usb_in_chars+0x4e>
10007710:	e7e7      	b.n	100076e2 <stdio_usb_in_chars+0x4a>
10007712:	2403      	movs	r4, #3
10007714:	4264      	negs	r4, r4
10007716:	e7e9      	b.n	100076ec <stdio_usb_in_chars+0x54>
10007718:	000f4240 	.word	0x000f4240
1000771c:	200052d0 	.word	0x200052d0
10007720:	7fffffff 	.word	0x7fffffff

10007724 <stdio_usb_out_flush>:
10007724:	b510      	push	{r4, lr}
10007726:	f7fc fe9b 	bl	10004460 <time_us_64>
1000772a:	2300      	movs	r3, #0
1000772c:	4a0d      	ldr	r2, [pc, #52]	@ (10007764 <stdio_usb_out_flush+0x40>)
1000772e:	1812      	adds	r2, r2, r0
10007730:	414b      	adcs	r3, r1
10007732:	2b00      	cmp	r3, #0
10007734:	da02      	bge.n	1000773c <stdio_usb_out_flush+0x18>
10007736:	2201      	movs	r2, #1
10007738:	4b0b      	ldr	r3, [pc, #44]	@ (10007768 <stdio_usb_out_flush+0x44>)
1000773a:	4252      	negs	r2, r2
1000773c:	4c0b      	ldr	r4, [pc, #44]	@ (1000776c <stdio_usb_out_flush+0x48>)
1000773e:	0020      	movs	r0, r4
10007740:	f003 fa56 	bl	1000abf0 <__mutex_try_enter_block_until_veneer>
10007744:	2800      	cmp	r0, #0
10007746:	d00c      	beq.n	10007762 <stdio_usb_out_flush+0x3e>
10007748:	2001      	movs	r0, #1
1000774a:	2100      	movs	r1, #0
1000774c:	4240      	negs	r0, r0
1000774e:	f000 fcc9 	bl	100080e4 <tud_task_ext>
10007752:	2000      	movs	r0, #0
10007754:	f001 fb14 	bl	10008d80 <tud_cdc_n_write_flush>
10007758:	2800      	cmp	r0, #0
1000775a:	d1f5      	bne.n	10007748 <stdio_usb_out_flush+0x24>
1000775c:	0020      	movs	r0, r4
1000775e:	f003 fa17 	bl	1000ab90 <__mutex_exit_veneer>
10007762:	bd10      	pop	{r4, pc}
10007764:	000f4240 	.word	0x000f4240
10007768:	7fffffff 	.word	0x7fffffff
1000776c:	200052d0 	.word	0x200052d0

10007770 <stdio_usb_out_chars>:
10007770:	b5f8      	push	{r3, r4, r5, r6, r7, lr}
10007772:	46de      	mov	lr, fp
10007774:	4657      	mov	r7, sl
10007776:	b580      	push	{r7, lr}
10007778:	0005      	movs	r5, r0
1000777a:	000c      	movs	r4, r1
1000777c:	f7fc fe70 	bl	10004460 <time_us_64>
10007780:	2300      	movs	r3, #0
10007782:	4a36      	ldr	r2, [pc, #216]	@ (1000785c <stdio_usb_out_chars+0xec>)
10007784:	1812      	adds	r2, r2, r0
10007786:	414b      	adcs	r3, r1
10007788:	2b00      	cmp	r3, #0
1000778a:	da02      	bge.n	10007792 <stdio_usb_out_chars+0x22>
1000778c:	2201      	movs	r2, #1
1000778e:	4b34      	ldr	r3, [pc, #208]	@ (10007860 <stdio_usb_out_chars+0xf0>)
10007790:	4252      	negs	r2, r2
10007792:	4934      	ldr	r1, [pc, #208]	@ (10007864 <stdio_usb_out_chars+0xf4>)
10007794:	0008      	movs	r0, r1
10007796:	468a      	mov	sl, r1
10007798:	f003 fa2a 	bl	1000abf0 <__mutex_try_enter_block_until_veneer>
1000779c:	2800      	cmp	r0, #0
1000779e:	d103      	bne.n	100077a8 <stdio_usb_out_chars+0x38>
100077a0:	bcc0      	pop	{r6, r7}
100077a2:	46bb      	mov	fp, r7
100077a4:	46b2      	mov	sl, r6
100077a6:	bdf8      	pop	{r3, r4, r5, r6, r7, pc}
100077a8:	2000      	movs	r0, #0
100077aa:	f001 fa85 	bl	10008cb8 <tud_cdc_n_connected>
100077ae:	2800      	cmp	r0, #0
100077b0:	d04a      	beq.n	10007848 <stdio_usb_out_chars+0xd8>
100077b2:	2600      	movs	r6, #0
100077b4:	2c00      	cmp	r4, #0
100077b6:	dd43      	ble.n	10007840 <stdio_usb_out_chars+0xd0>
100077b8:	4b2b      	ldr	r3, [pc, #172]	@ (10007868 <stdio_usb_out_chars+0xf8>)
100077ba:	469b      	mov	fp, r3
100077bc:	e014      	b.n	100077e8 <stdio_usb_out_chars+0x78>
100077be:	19a9      	adds	r1, r5, r6
100077c0:	2000      	movs	r0, #0
100077c2:	f001 fb17 	bl	10008df4 <tud_cdc_n_write>
100077c6:	0007      	movs	r7, r0
100077c8:	2001      	movs	r0, #1
100077ca:	2100      	movs	r1, #0
100077cc:	4240      	negs	r0, r0
100077ce:	f000 fc89 	bl	100080e4 <tud_task_ext>
100077d2:	2000      	movs	r0, #0
100077d4:	f001 fad4 	bl	10008d80 <tud_cdc_n_write_flush>
100077d8:	f7fc fe42 	bl	10004460 <time_us_64>
100077dc:	4b22      	ldr	r3, [pc, #136]	@ (10007868 <stdio_usb_out_chars+0xf8>)
100077de:	19f6      	adds	r6, r6, r7
100077e0:	6018      	str	r0, [r3, #0]
100077e2:	6059      	str	r1, [r3, #4]
100077e4:	42b4      	cmp	r4, r6
100077e6:	dd2b      	ble.n	10007840 <stdio_usb_out_chars+0xd0>
100077e8:	2000      	movs	r0, #0
100077ea:	f001 fb23 	bl	10008e34 <tud_cdc_n_write_available>
100077ee:	1ba7      	subs	r7, r4, r6
100077f0:	0002      	movs	r2, r0
100077f2:	42b8      	cmp	r0, r7
100077f4:	dd00      	ble.n	100077f8 <stdio_usb_out_chars+0x88>
100077f6:	003a      	movs	r2, r7
100077f8:	2a00      	cmp	r2, #0
100077fa:	d1e0      	bne.n	100077be <stdio_usb_out_chars+0x4e>
100077fc:	2001      	movs	r0, #1
100077fe:	2100      	movs	r1, #0
10007800:	4240      	negs	r0, r0
10007802:	f000 fc6f 	bl	100080e4 <tud_task_ext>
10007806:	2000      	movs	r0, #0
10007808:	f001 faba 	bl	10008d80 <tud_cdc_n_write_flush>
1000780c:	2000      	movs	r0, #0
1000780e:	f001 fa53 	bl	10008cb8 <tud_cdc_n_connected>
10007812:	2800      	cmp	r0, #0
10007814:	d014      	beq.n	10007840 <stdio_usb_out_chars+0xd0>
10007816:	2000      	movs	r0, #0
10007818:	f001 fb0c 	bl	10008e34 <tud_cdc_n_write_available>
1000781c:	2800      	cmp	r0, #0
1000781e:	d1e1      	bne.n	100077e4 <stdio_usb_out_chars+0x74>
10007820:	f7fc fe1e 	bl	10004460 <time_us_64>
10007824:	465b      	mov	r3, fp
10007826:	000f      	movs	r7, r1
10007828:	681a      	ldr	r2, [r3, #0]
1000782a:	685b      	ldr	r3, [r3, #4]
1000782c:	2100      	movs	r1, #0
1000782e:	4684      	mov	ip, r0
10007830:	480e      	ldr	r0, [pc, #56]	@ (1000786c <stdio_usb_out_chars+0xfc>)
10007832:	1812      	adds	r2, r2, r0
10007834:	414b      	adcs	r3, r1
10007836:	429f      	cmp	r7, r3
10007838:	d802      	bhi.n	10007840 <stdio_usb_out_chars+0xd0>
1000783a:	d1d3      	bne.n	100077e4 <stdio_usb_out_chars+0x74>
1000783c:	4594      	cmp	ip, r2
1000783e:	d9d1      	bls.n	100077e4 <stdio_usb_out_chars+0x74>
10007840:	4650      	mov	r0, sl
10007842:	f003 f9a5 	bl	1000ab90 <__mutex_exit_veneer>
10007846:	e7ab      	b.n	100077a0 <stdio_usb_out_chars+0x30>
10007848:	2000      	movs	r0, #0
1000784a:	2100      	movs	r1, #0
1000784c:	4b06      	ldr	r3, [pc, #24]	@ (10007868 <stdio_usb_out_chars+0xf8>)
1000784e:	6018      	str	r0, [r3, #0]
10007850:	6059      	str	r1, [r3, #4]
10007852:	4650      	mov	r0, sl
10007854:	f003 f99c 	bl	1000ab90 <__mutex_exit_veneer>
10007858:	e7a2      	b.n	100077a0 <stdio_usb_out_chars+0x30>
1000785a:	46c0      	nop			@ (mov r8, r8)
1000785c:	000f4240 	.word	0x000f4240
10007860:	7fffffff 	.word	0x7fffffff
10007864:	200052d0 	.word	0x200052d0
10007868:	20003fc8 	.word	0x20003fc8
1000786c:	0007a120 	.word	0x0007a120

10007870 <low_priority_worker_irq>:
10007870:	b530      	push	{r4, r5, lr}
10007872:	4c2a      	ldr	r4, [pc, #168]	@ (1000791c <low_priority_worker_irq+0xac>)
10007874:	b085      	sub	sp, #20
10007876:	2100      	movs	r1, #0
10007878:	0020      	movs	r0, r4
1000787a:	f003 f9a1 	bl	1000abc0 <__mutex_try_enter_veneer>
1000787e:	2800      	cmp	r0, #0
10007880:	d11c      	bne.n	100078bc <low_priority_worker_irq+0x4c>
10007882:	4b27      	ldr	r3, [pc, #156]	@ (10007920 <low_priority_worker_irq+0xb0>)
10007884:	681a      	ldr	r2, [r3, #0]
10007886:	2a00      	cmp	r2, #0
10007888:	d016      	beq.n	100078b8 <low_priority_worker_irq+0x48>
1000788a:	f3ef 8110 	mrs	r1, PRIMASK
1000788e:	b672      	cpsid	i
10007890:	6810      	ldr	r0, [r2, #0]
10007892:	2800      	cmp	r0, #0
10007894:	d0fc      	beq.n	10007890 <low_priority_worker_irq+0x20>
10007896:	f3bf 8f5f 	dmb	sy
1000789a:	2401      	movs	r4, #1
1000789c:	4821      	ldr	r0, [pc, #132]	@ (10007924 <low_priority_worker_irq+0xb4>)
1000789e:	6059      	str	r1, [r3, #4]
100078a0:	7802      	ldrb	r2, [r0, #0]
100078a2:	681b      	ldr	r3, [r3, #0]
100078a4:	b2d2      	uxtb	r2, r2
100078a6:	7004      	strb	r4, [r0, #0]
100078a8:	f3bf 8f5f 	dmb	sy
100078ac:	2000      	movs	r0, #0
100078ae:	6018      	str	r0, [r3, #0]
100078b0:	f381 8810 	msr	PRIMASK, r1
100078b4:	2a00      	cmp	r2, #0
100078b6:	d017      	beq.n	100078e8 <low_priority_worker_irq+0x78>
100078b8:	b005      	add	sp, #20
100078ba:	bd30      	pop	{r4, r5, pc}
100078bc:	2001      	movs	r0, #1
100078be:	2100      	movs	r1, #0
100078c0:	4240      	negs	r0, r0
100078c2:	f000 fc0f 	bl	100080e4 <tud_task_ext>
100078c6:	2000      	movs	r0, #0
100078c8:	f001 fa0c 	bl	10008ce4 <tud_cdc_n_available>
100078cc:	0005      	movs	r5, r0
100078ce:	0020      	movs	r0, r4
100078d0:	f003 f95e 	bl	1000ab90 <__mutex_exit_veneer>
100078d4:	2d00      	cmp	r5, #0
100078d6:	d0ef      	beq.n	100078b8 <low_priority_worker_irq+0x48>
100078d8:	4b13      	ldr	r3, [pc, #76]	@ (10007928 <low_priority_worker_irq+0xb8>)
100078da:	681b      	ldr	r3, [r3, #0]
100078dc:	2b00      	cmp	r3, #0
100078de:	d0eb      	beq.n	100078b8 <low_priority_worker_irq+0x48>
100078e0:	4a12      	ldr	r2, [pc, #72]	@ (1000792c <low_priority_worker_irq+0xbc>)
100078e2:	6810      	ldr	r0, [r2, #0]
100078e4:	4798      	blx	r3
100078e6:	e7e7      	b.n	100078b8 <low_priority_worker_irq+0x48>
100078e8:	f7fc fba4 	bl	10004034 <alarm_pool_get_default>
100078ec:	0004      	movs	r4, r0
100078ee:	f7fc fdb7 	bl	10004460 <time_us_64>
100078f2:	22fa      	movs	r2, #250	@ 0xfa
100078f4:	2300      	movs	r3, #0
100078f6:	0092      	lsls	r2, r2, #2
100078f8:	1812      	adds	r2, r2, r0
100078fa:	414b      	adcs	r3, r1
100078fc:	2b00      	cmp	r3, #0
100078fe:	da02      	bge.n	10007906 <low_priority_worker_irq+0x96>
10007900:	2201      	movs	r2, #1
10007902:	4b0b      	ldr	r3, [pc, #44]	@ (10007930 <low_priority_worker_irq+0xc0>)
10007904:	4252      	negs	r2, r2
10007906:	2101      	movs	r1, #1
10007908:	9102      	str	r1, [sp, #8]
1000790a:	2100      	movs	r1, #0
1000790c:	9101      	str	r1, [sp, #4]
1000790e:	4909      	ldr	r1, [pc, #36]	@ (10007934 <low_priority_worker_irq+0xc4>)
10007910:	0020      	movs	r0, r4
10007912:	9100      	str	r1, [sp, #0]
10007914:	f7fc fb92 	bl	1000403c <alarm_pool_add_alarm_at>
10007918:	e7ce      	b.n	100078b8 <low_priority_worker_irq+0x48>
1000791a:	46c0      	nop			@ (mov r8, r8)
1000791c:	200052d0 	.word	0x200052d0
10007920:	20005194 	.word	0x20005194
10007924:	2000530c 	.word	0x2000530c
10007928:	20004cf0 	.word	0x20004cf0
1000792c:	20004cf4 	.word	0x20004cf4
10007930:	7fffffff 	.word	0x7fffffff
10007934:	10007635 	.word	0x10007635

10007938 <stdio_usb_init>:
10007938:	23d0      	movs	r3, #208	@ 0xd0
1000793a:	b510      	push	{r4, lr}
1000793c:	061b      	lsls	r3, r3, #24
1000793e:	b084      	sub	sp, #16
10007940:	681c      	ldr	r4, [r3, #0]
10007942:	f7fc fb77 	bl	10004034 <alarm_pool_get_default>
10007946:	f7fc fc73 	bl	10004230 <alarm_pool_core_num>
1000794a:	42a0      	cmp	r0, r4
1000794c:	d002      	beq.n	10007954 <stdio_usb_init+0x1c>
1000794e:	2000      	movs	r0, #0
10007950:	b004      	add	sp, #16
10007952:	bd10      	pop	{r4, pc}
10007954:	4b29      	ldr	r3, [pc, #164]	@ (100079fc <stdio_usb_init+0xc4>)
10007956:	2100      	movs	r1, #0
10007958:	2000      	movs	r0, #0
1000795a:	781b      	ldrb	r3, [r3, #0]
1000795c:	f001 fd5e 	bl	1000941c <tusb_rhport_init>
10007960:	4827      	ldr	r0, [pc, #156]	@ (10007a00 <stdio_usb_init+0xc8>)
10007962:	6803      	ldr	r3, [r0, #0]
10007964:	2b00      	cmp	r3, #0
10007966:	d045      	beq.n	100079f4 <stdio_usb_init+0xbc>
10007968:	2001      	movs	r0, #1
1000796a:	f7fc f8f1 	bl	10003b50 <user_irq_claim_unused>
1000796e:	23ff      	movs	r3, #255	@ 0xff
10007970:	4c24      	ldr	r4, [pc, #144]	@ (10007a04 <stdio_usb_init+0xcc>)
10007972:	4925      	ldr	r1, [pc, #148]	@ (10007a08 <stdio_usb_init+0xd0>)
10007974:	7020      	strb	r0, [r4, #0]
10007976:	4018      	ands	r0, r3
10007978:	f7fb fe82 	bl	10003680 <irq_set_exclusive_handler>
1000797c:	7820      	ldrb	r0, [r4, #0]
1000797e:	2101      	movs	r1, #1
10007980:	f7fb fe46 	bl	10003610 <irq_set_enabled>
10007984:	2005      	movs	r0, #5
10007986:	f7fb fe69 	bl	1000365c <irq_has_shared_handler>
1000798a:	2800      	cmp	r0, #0
1000798c:	d124      	bne.n	100079d8 <stdio_usb_init+0xa0>
1000798e:	2208      	movs	r2, #8
10007990:	2100      	movs	r1, #0
10007992:	481e      	ldr	r0, [pc, #120]	@ (10007a0c <stdio_usb_init+0xd4>)
10007994:	f7fd fee0 	bl	10005758 <__wrap_memset>
10007998:	f7fc fb4c 	bl	10004034 <alarm_pool_get_default>
1000799c:	0004      	movs	r4, r0
1000799e:	f7fc fd5f 	bl	10004460 <time_us_64>
100079a2:	22fa      	movs	r2, #250	@ 0xfa
100079a4:	2300      	movs	r3, #0
100079a6:	0092      	lsls	r2, r2, #2
100079a8:	1812      	adds	r2, r2, r0
100079aa:	414b      	adcs	r3, r1
100079ac:	2b00      	cmp	r3, #0
100079ae:	da02      	bge.n	100079b6 <stdio_usb_init+0x7e>
100079b0:	2201      	movs	r2, #1
100079b2:	4b17      	ldr	r3, [pc, #92]	@ (10007a10 <stdio_usb_init+0xd8>)
100079b4:	4252      	negs	r2, r2
100079b6:	2101      	movs	r1, #1
100079b8:	9102      	str	r1, [sp, #8]
100079ba:	2100      	movs	r1, #0
100079bc:	9101      	str	r1, [sp, #4]
100079be:	4915      	ldr	r1, [pc, #84]	@ (10007a14 <stdio_usb_init+0xdc>)
100079c0:	0020      	movs	r0, r4
100079c2:	9100      	str	r1, [sp, #0]
100079c4:	f7fc fb3a 	bl	1000403c <alarm_pool_add_alarm_at>
100079c8:	2800      	cmp	r0, #0
100079ca:	dbc0      	blt.n	1000794e <stdio_usb_init+0x16>
100079cc:	4812      	ldr	r0, [pc, #72]	@ (10007a18 <stdio_usb_init+0xe0>)
100079ce:	2101      	movs	r1, #1
100079d0:	f7ff fca6 	bl	10007320 <stdio_set_driver_enabled>
100079d4:	2001      	movs	r0, #1
100079d6:	e7bb      	b.n	10007950 <stdio_usb_init+0x18>
100079d8:	2001      	movs	r0, #1
100079da:	f7fb fde7 	bl	100035ac <spin_lock_claim_unused>
100079de:	4b0b      	ldr	r3, [pc, #44]	@ (10007a0c <stdio_usb_init+0xd4>)
100079e0:	0001      	movs	r1, r0
100079e2:	0018      	movs	r0, r3
100079e4:	f7fc f916 	bl	10003c14 <critical_section_init_with_lock_num>
100079e8:	2200      	movs	r2, #0
100079ea:	2005      	movs	r0, #5
100079ec:	490b      	ldr	r1, [pc, #44]	@ (10007a1c <stdio_usb_init+0xe4>)
100079ee:	f7fb fe71 	bl	100036d4 <irq_add_shared_handler>
100079f2:	e7eb      	b.n	100079cc <stdio_usb_init+0x94>
100079f4:	f7fc f8f2 	bl	10003bdc <mutex_init>
100079f8:	e7b6      	b.n	10007968 <stdio_usb_init+0x30>
100079fa:	46c0      	nop			@ (mov r8, r8)
100079fc:	1000c600 	.word	0x1000c600
10007a00:	200052d0 	.word	0x200052d0
10007a04:	2000530b 	.word	0x2000530b
10007a08:	10007871 	.word	0x10007871
10007a0c:	20005194 	.word	0x20005194
10007a10:	7fffffff 	.word	0x7fffffff
10007a14:	10007635 	.word	0x10007635
10007a18:	200036c0 	.word	0x200036c0
10007a1c:	10007625 	.word	0x10007625

10007a20 <tud_descriptor_device_cb>:
10007a20:	4800      	ldr	r0, [pc, #0]	@ (10007a24 <tud_descriptor_device_cb+0x4>)
10007a22:	4770      	bx	lr
10007a24:	1000c3e0 	.word	0x1000c3e0

10007a28 <tud_descriptor_configuration_cb>:
10007a28:	4800      	ldr	r0, [pc, #0]	@ (10007a2c <tud_descriptor_configuration_cb+0x4>)
10007a2a:	4770      	bx	lr
10007a2c:	1000c38c 	.word	0x1000c38c

10007a30 <tud_descriptor_string_cb>:
10007a30:	b510      	push	{r4, lr}
10007a32:	0004      	movs	r4, r0
10007a34:	4817      	ldr	r0, [pc, #92]	@ (10007a94 <tud_descriptor_string_cb+0x64>)
10007a36:	7803      	ldrb	r3, [r0, #0]
10007a38:	2b00      	cmp	r3, #0
10007a3a:	d020      	beq.n	10007a7e <tud_descriptor_string_cb+0x4e>
10007a3c:	2c00      	cmp	r4, #0
10007a3e:	d106      	bne.n	10007a4e <tud_descriptor_string_cb+0x1e>
10007a40:	4b15      	ldr	r3, [pc, #84]	@ (10007a98 <tud_descriptor_string_cb+0x68>)
10007a42:	4816      	ldr	r0, [pc, #88]	@ (10007a9c <tud_descriptor_string_cb+0x6c>)
10007a44:	8043      	strh	r3, [r0, #2]
10007a46:	3b06      	subs	r3, #6
10007a48:	3bff      	subs	r3, #255	@ 0xff
10007a4a:	8003      	strh	r3, [r0, #0]
10007a4c:	bd10      	pop	{r4, pc}
10007a4e:	2c05      	cmp	r4, #5
10007a50:	d81d      	bhi.n	10007a8e <tud_descriptor_string_cb+0x5e>
10007a52:	4b13      	ldr	r3, [pc, #76]	@ (10007aa0 <tud_descriptor_string_cb+0x70>)
10007a54:	00a4      	lsls	r4, r4, #2
10007a56:	58e0      	ldr	r0, [r4, r3]
10007a58:	4912      	ldr	r1, [pc, #72]	@ (10007aa4 <tud_descriptor_string_cb+0x74>)
10007a5a:	2301      	movs	r3, #1
10007a5c:	3801      	subs	r0, #1
10007a5e:	e004      	b.n	10007a6a <tud_descriptor_string_cb+0x3a>
10007a60:	3301      	adds	r3, #1
10007a62:	800a      	strh	r2, [r1, #0]
10007a64:	3102      	adds	r1, #2
10007a66:	2b14      	cmp	r3, #20
10007a68:	d00d      	beq.n	10007a86 <tud_descriptor_string_cb+0x56>
10007a6a:	5cc2      	ldrb	r2, [r0, r3]
10007a6c:	2a00      	cmp	r2, #0
10007a6e:	d1f7      	bne.n	10007a60 <tud_descriptor_string_cb+0x30>
10007a70:	22c0      	movs	r2, #192	@ 0xc0
10007a72:	b2db      	uxtb	r3, r3
10007a74:	005b      	lsls	r3, r3, #1
10007a76:	0092      	lsls	r2, r2, #2
10007a78:	4808      	ldr	r0, [pc, #32]	@ (10007a9c <tud_descriptor_string_cb+0x6c>)
10007a7a:	4313      	orrs	r3, r2
10007a7c:	e7e5      	b.n	10007a4a <tud_descriptor_string_cb+0x1a>
10007a7e:	2111      	movs	r1, #17
10007a80:	f000 f81a 	bl	10007ab8 <pico_get_unique_board_id_string>
10007a84:	e7da      	b.n	10007a3c <tud_descriptor_string_cb+0xc>
10007a86:	23ca      	movs	r3, #202	@ 0xca
10007a88:	4804      	ldr	r0, [pc, #16]	@ (10007a9c <tud_descriptor_string_cb+0x6c>)
10007a8a:	009b      	lsls	r3, r3, #2
10007a8c:	e7dd      	b.n	10007a4a <tud_descriptor_string_cb+0x1a>
10007a8e:	2000      	movs	r0, #0
10007a90:	e7dc      	b.n	10007a4c <tud_descriptor_string_cb+0x1c>
10007a92:	46c0      	nop			@ (mov r8, r8)
10007a94:	200052e4 	.word	0x200052e4
10007a98:	00000409 	.word	0x00000409
10007a9c:	20004d2c 	.word	0x20004d2c
10007aa0:	1000c374 	.word	0x1000c374
10007aa4:	20004d2e 	.word	0x20004d2e

10007aa8 <_retrieve_unique_id_on_boot>:
10007aa8:	b510      	push	{r4, lr}
10007aaa:	4802      	ldr	r0, [pc, #8]	@ (10007ab4 <_retrieve_unique_id_on_boot+0xc>)
10007aac:	f000 f8d8 	bl	10007c60 <flash_get_unique_id>
10007ab0:	bd10      	pop	{r4, pc}
10007ab2:	46c0      	nop			@ (mov r8, r8)
10007ab4:	200051b8 	.word	0x200051b8

10007ab8 <pico_get_unique_board_id_string>:
10007ab8:	b530      	push	{r4, r5, lr}
10007aba:	1e4b      	subs	r3, r1, #1
10007abc:	2901      	cmp	r1, #1
10007abe:	d100      	bne.n	10007ac2 <pico_get_unique_board_id_string+0xa>
10007ac0:	e0a7      	b.n	10007c12 <pico_get_unique_board_id_string+0x15a>
10007ac2:	4a66      	ldr	r2, [pc, #408]	@ (10007c5c <pico_get_unique_board_id_string+0x1a4>)
10007ac4:	7811      	ldrb	r1, [r2, #0]
10007ac6:	090d      	lsrs	r5, r1, #4
10007ac8:	002c      	movs	r4, r5
10007aca:	3430      	adds	r4, #48	@ 0x30
10007acc:	299f      	cmp	r1, #159	@ 0x9f
10007ace:	d900      	bls.n	10007ad2 <pico_get_unique_board_id_string+0x1a>
10007ad0:	e0a2      	b.n	10007c18 <pico_get_unique_board_id_string+0x160>
10007ad2:	7004      	strb	r4, [r0, #0]
10007ad4:	2b01      	cmp	r3, #1
10007ad6:	d100      	bne.n	10007ada <pico_get_unique_board_id_string+0x22>
10007ad8:	e0be      	b.n	10007c58 <pico_get_unique_board_id_string+0x1a0>
10007ada:	210f      	movs	r1, #15
10007adc:	7814      	ldrb	r4, [r2, #0]
10007ade:	4021      	ands	r1, r4
10007ae0:	000c      	movs	r4, r1
10007ae2:	3430      	adds	r4, #48	@ 0x30
10007ae4:	2909      	cmp	r1, #9
10007ae6:	d900      	bls.n	10007aea <pico_get_unique_board_id_string+0x32>
10007ae8:	e098      	b.n	10007c1c <pico_get_unique_board_id_string+0x164>
10007aea:	7044      	strb	r4, [r0, #1]
10007aec:	2b02      	cmp	r3, #2
10007aee:	d100      	bne.n	10007af2 <pico_get_unique_board_id_string+0x3a>
10007af0:	e0b2      	b.n	10007c58 <pico_get_unique_board_id_string+0x1a0>
10007af2:	7854      	ldrb	r4, [r2, #1]
10007af4:	0925      	lsrs	r5, r4, #4
10007af6:	0029      	movs	r1, r5
10007af8:	3130      	adds	r1, #48	@ 0x30
10007afa:	2c9f      	cmp	r4, #159	@ 0x9f
10007afc:	d900      	bls.n	10007b00 <pico_get_unique_board_id_string+0x48>
10007afe:	e090      	b.n	10007c22 <pico_get_unique_board_id_string+0x16a>
10007b00:	7081      	strb	r1, [r0, #2]
10007b02:	2b03      	cmp	r3, #3
10007b04:	d100      	bne.n	10007b08 <pico_get_unique_board_id_string+0x50>
10007b06:	e0a7      	b.n	10007c58 <pico_get_unique_board_id_string+0x1a0>
10007b08:	210f      	movs	r1, #15
10007b0a:	4021      	ands	r1, r4
10007b0c:	000c      	movs	r4, r1
10007b0e:	3430      	adds	r4, #48	@ 0x30
10007b10:	2909      	cmp	r1, #9
10007b12:	d900      	bls.n	10007b16 <pico_get_unique_board_id_string+0x5e>
10007b14:	e087      	b.n	10007c26 <pico_get_unique_board_id_string+0x16e>
10007b16:	70c4      	strb	r4, [r0, #3]
10007b18:	2b04      	cmp	r3, #4
10007b1a:	d100      	bne.n	10007b1e <pico_get_unique_board_id_string+0x66>
10007b1c:	e09c      	b.n	10007c58 <pico_get_unique_board_id_string+0x1a0>
10007b1e:	7894      	ldrb	r4, [r2, #2]
10007b20:	0925      	lsrs	r5, r4, #4
10007b22:	0029      	movs	r1, r5
10007b24:	3130      	adds	r1, #48	@ 0x30
10007b26:	2c9f      	cmp	r4, #159	@ 0x9f
10007b28:	d900      	bls.n	10007b2c <pico_get_unique_board_id_string+0x74>
10007b2a:	e07f      	b.n	10007c2c <pico_get_unique_board_id_string+0x174>
10007b2c:	7101      	strb	r1, [r0, #4]
10007b2e:	2b05      	cmp	r3, #5
10007b30:	d100      	bne.n	10007b34 <pico_get_unique_board_id_string+0x7c>
10007b32:	e091      	b.n	10007c58 <pico_get_unique_board_id_string+0x1a0>
10007b34:	210f      	movs	r1, #15
10007b36:	4021      	ands	r1, r4
10007b38:	000c      	movs	r4, r1
10007b3a:	3430      	adds	r4, #48	@ 0x30
10007b3c:	2909      	cmp	r1, #9
10007b3e:	d900      	bls.n	10007b42 <pico_get_unique_board_id_string+0x8a>
10007b40:	e076      	b.n	10007c30 <pico_get_unique_board_id_string+0x178>
10007b42:	7144      	strb	r4, [r0, #5]
10007b44:	2b06      	cmp	r3, #6
10007b46:	d100      	bne.n	10007b4a <pico_get_unique_board_id_string+0x92>
10007b48:	e086      	b.n	10007c58 <pico_get_unique_board_id_string+0x1a0>
10007b4a:	78d4      	ldrb	r4, [r2, #3]
10007b4c:	0925      	lsrs	r5, r4, #4
10007b4e:	0029      	movs	r1, r5
10007b50:	3130      	adds	r1, #48	@ 0x30
10007b52:	2c9f      	cmp	r4, #159	@ 0x9f
10007b54:	d900      	bls.n	10007b58 <pico_get_unique_board_id_string+0xa0>
10007b56:	e06e      	b.n	10007c36 <pico_get_unique_board_id_string+0x17e>
10007b58:	7181      	strb	r1, [r0, #6]
10007b5a:	2b07      	cmp	r3, #7
10007b5c:	d100      	bne.n	10007b60 <pico_get_unique_board_id_string+0xa8>
10007b5e:	e07b      	b.n	10007c58 <pico_get_unique_board_id_string+0x1a0>
10007b60:	210f      	movs	r1, #15
10007b62:	4021      	ands	r1, r4
10007b64:	000c      	movs	r4, r1
10007b66:	3430      	adds	r4, #48	@ 0x30
10007b68:	2909      	cmp	r1, #9
10007b6a:	d866      	bhi.n	10007c3a <pico_get_unique_board_id_string+0x182>
10007b6c:	71c4      	strb	r4, [r0, #7]
10007b6e:	2b08      	cmp	r3, #8
10007b70:	d100      	bne.n	10007b74 <pico_get_unique_board_id_string+0xbc>
10007b72:	e071      	b.n	10007c58 <pico_get_unique_board_id_string+0x1a0>
10007b74:	7914      	ldrb	r4, [r2, #4]
10007b76:	0925      	lsrs	r5, r4, #4
10007b78:	0029      	movs	r1, r5
10007b7a:	3130      	adds	r1, #48	@ 0x30
10007b7c:	2c9f      	cmp	r4, #159	@ 0x9f
10007b7e:	d85f      	bhi.n	10007c40 <pico_get_unique_board_id_string+0x188>
10007b80:	7201      	strb	r1, [r0, #8]
10007b82:	2b09      	cmp	r3, #9
10007b84:	d068      	beq.n	10007c58 <pico_get_unique_board_id_string+0x1a0>
10007b86:	210f      	movs	r1, #15
10007b88:	4021      	ands	r1, r4
10007b8a:	000c      	movs	r4, r1
10007b8c:	3430      	adds	r4, #48	@ 0x30
10007b8e:	2909      	cmp	r1, #9
10007b90:	d858      	bhi.n	10007c44 <pico_get_unique_board_id_string+0x18c>
10007b92:	7244      	strb	r4, [r0, #9]
10007b94:	2b0a      	cmp	r3, #10
10007b96:	d05f      	beq.n	10007c58 <pico_get_unique_board_id_string+0x1a0>
10007b98:	7954      	ldrb	r4, [r2, #5]
10007b9a:	0925      	lsrs	r5, r4, #4
10007b9c:	0029      	movs	r1, r5
10007b9e:	3130      	adds	r1, #48	@ 0x30
10007ba0:	2c9f      	cmp	r4, #159	@ 0x9f
10007ba2:	d852      	bhi.n	10007c4a <pico_get_unique_board_id_string+0x192>
10007ba4:	7281      	strb	r1, [r0, #10]
10007ba6:	2b0b      	cmp	r3, #11
10007ba8:	d056      	beq.n	10007c58 <pico_get_unique_board_id_string+0x1a0>
10007baa:	210f      	movs	r1, #15
10007bac:	4021      	ands	r1, r4
10007bae:	000c      	movs	r4, r1
10007bb0:	3430      	adds	r4, #48	@ 0x30
10007bb2:	2909      	cmp	r1, #9
10007bb4:	d84b      	bhi.n	10007c4e <pico_get_unique_board_id_string+0x196>
10007bb6:	72c4      	strb	r4, [r0, #11]
10007bb8:	2b0c      	cmp	r3, #12
10007bba:	d04d      	beq.n	10007c58 <pico_get_unique_board_id_string+0x1a0>
10007bbc:	7994      	ldrb	r4, [r2, #6]
10007bbe:	0925      	lsrs	r5, r4, #4
10007bc0:	0029      	movs	r1, r5
10007bc2:	3130      	adds	r1, #48	@ 0x30
10007bc4:	2c9f      	cmp	r4, #159	@ 0x9f
10007bc6:	d900      	bls.n	10007bca <pico_get_unique_board_id_string+0x112>
10007bc8:	3107      	adds	r1, #7
10007bca:	7301      	strb	r1, [r0, #12]
10007bcc:	2b0d      	cmp	r3, #13
10007bce:	d043      	beq.n	10007c58 <pico_get_unique_board_id_string+0x1a0>
10007bd0:	210f      	movs	r1, #15
10007bd2:	4021      	ands	r1, r4
10007bd4:	000c      	movs	r4, r1
10007bd6:	3430      	adds	r4, #48	@ 0x30
10007bd8:	2909      	cmp	r1, #9
10007bda:	d901      	bls.n	10007be0 <pico_get_unique_board_id_string+0x128>
10007bdc:	3137      	adds	r1, #55	@ 0x37
10007bde:	000c      	movs	r4, r1
10007be0:	7344      	strb	r4, [r0, #13]
10007be2:	2b0e      	cmp	r3, #14
10007be4:	d038      	beq.n	10007c58 <pico_get_unique_board_id_string+0x1a0>
10007be6:	79d1      	ldrb	r1, [r2, #7]
10007be8:	090c      	lsrs	r4, r1, #4
10007bea:	0022      	movs	r2, r4
10007bec:	3230      	adds	r2, #48	@ 0x30
10007bee:	299f      	cmp	r1, #159	@ 0x9f
10007bf0:	d900      	bls.n	10007bf4 <pico_get_unique_board_id_string+0x13c>
10007bf2:	3207      	adds	r2, #7
10007bf4:	7382      	strb	r2, [r0, #14]
10007bf6:	2b0f      	cmp	r3, #15
10007bf8:	d02e      	beq.n	10007c58 <pico_get_unique_board_id_string+0x1a0>
10007bfa:	220f      	movs	r2, #15
10007bfc:	400a      	ands	r2, r1
10007bfe:	0011      	movs	r1, r2
10007c00:	3137      	adds	r1, #55	@ 0x37
10007c02:	2a09      	cmp	r2, #9
10007c04:	d801      	bhi.n	10007c0a <pico_get_unique_board_id_string+0x152>
10007c06:	3230      	adds	r2, #48	@ 0x30
10007c08:	0011      	movs	r1, r2
10007c0a:	73c1      	strb	r1, [r0, #15]
10007c0c:	2b10      	cmp	r3, #16
10007c0e:	d023      	beq.n	10007c58 <pico_get_unique_board_id_string+0x1a0>
10007c10:	3010      	adds	r0, #16
10007c12:	2300      	movs	r3, #0
10007c14:	7003      	strb	r3, [r0, #0]
10007c16:	bd30      	pop	{r4, r5, pc}
10007c18:	3407      	adds	r4, #7
10007c1a:	e75a      	b.n	10007ad2 <pico_get_unique_board_id_string+0x1a>
10007c1c:	3137      	adds	r1, #55	@ 0x37
10007c1e:	000c      	movs	r4, r1
10007c20:	e763      	b.n	10007aea <pico_get_unique_board_id_string+0x32>
10007c22:	3107      	adds	r1, #7
10007c24:	e76c      	b.n	10007b00 <pico_get_unique_board_id_string+0x48>
10007c26:	3137      	adds	r1, #55	@ 0x37
10007c28:	000c      	movs	r4, r1
10007c2a:	e774      	b.n	10007b16 <pico_get_unique_board_id_string+0x5e>
10007c2c:	3107      	adds	r1, #7
10007c2e:	e77d      	b.n	10007b2c <pico_get_unique_board_id_string+0x74>
10007c30:	3137      	adds	r1, #55	@ 0x37
10007c32:	000c      	movs	r4, r1
10007c34:	e785      	b.n	10007b42 <pico_get_unique_board_id_string+0x8a>
10007c36:	3107      	adds	r1, #7
10007c38:	e78e      	b.n	10007b58 <pico_get_unique_board_id_string+0xa0>
10007c3a:	3137      	adds	r1, #55	@ 0x37
10007c3c:	000c      	movs	r4, r1
10007c3e:	e795      	b.n	10007b6c <pico_get_unique_board_id_string+0xb4>
10007c40:	3107      	adds	r1, #7
10007c42:	e79d      	b.n	10007b80 <pico_get_unique_board_id_string+0xc8>
10007c44:	3137      	adds	r1, #55	@ 0x37
10007c46:	000c      	movs	r4, r1
10007c48:	e7a3      	b.n	10007b92 <pico_get_unique_board_id_string+0xda>
10007c4a:	3107      	adds	r1, #7
10007c4c:	e7aa      	b.n	10007ba4 <pico_get_unique_board_id_string+0xec>
10007c4e:	3137      	adds	r1, #55	@ 0x37
10007c50:	000c      	movs	r4, r1
10007c52:	72c4      	strb	r4, [r0, #11]
10007c54:	2b0c      	cmp	r3, #12
10007c56:	d1b1      	bne.n	10007bbc <pico_get_unique_board_id_string+0x104>
10007c58:	18c0      	adds	r0, r0, r3
10007c5a:	e7da      	b.n	10007c12 <pico_get_unique_board_id_string+0x15a>
10007c5c:	200051b8 	.word	0x200051b8

10007c60 <flash_get_unique_id>:
10007c60:	b510      	push	{r4, lr}
10007c62:	b088      	sub	sp, #32
10007c64:	0004      	movs	r4, r0
10007c66:	220d      	movs	r2, #13
10007c68:	2100      	movs	r1, #0
10007c6a:	4668      	mov	r0, sp
10007c6c:	f7fd fd74 	bl	10005758 <__wrap_memset>
10007c70:	220d      	movs	r2, #13
10007c72:	2100      	movs	r1, #0
10007c74:	a804      	add	r0, sp, #16
10007c76:	f7fd fd6f 	bl	10005758 <__wrap_memset>
10007c7a:	234b      	movs	r3, #75	@ 0x4b
10007c7c:	466a      	mov	r2, sp
10007c7e:	4668      	mov	r0, sp
10007c80:	7013      	strb	r3, [r2, #0]
10007c82:	a904      	add	r1, sp, #16
10007c84:	220d      	movs	r2, #13
10007c86:	f002 ff7b 	bl	1000ab80 <__flash_do_cmd_veneer>
10007c8a:	2115      	movs	r1, #21
10007c8c:	2208      	movs	r2, #8
10007c8e:	0020      	movs	r0, r4
10007c90:	4469      	add	r1, sp
10007c92:	f7fd fd67 	bl	10005764 <__wrap___aeabi_memcpy>
10007c96:	b008      	add	sp, #32
10007c98:	bd10      	pop	{r4, pc}
10007c9a:	46c0      	nop			@ (mov r8, r8)

10007c9c <dcd_init>:
10007c9c:	b5f8      	push	{r3, r4, r5, r6, r7, lr}
10007c9e:	f000 f947 	bl	10007f30 <rp2040_usb_init>
10007ca2:	230c      	movs	r3, #12
10007ca4:	4d19      	ldr	r5, [pc, #100]	@ (10007d0c <dcd_init+0x70>)
10007ca6:	22ff      	movs	r2, #255	@ 0xff
10007ca8:	67ab      	str	r3, [r5, #120]	@ 0x78
10007caa:	2005      	movs	r0, #5
10007cac:	4918      	ldr	r1, [pc, #96]	@ (10007d10 <dcd_init+0x74>)
10007cae:	f7fb fd11 	bl	100036d4 <irq_add_shared_handler>
10007cb2:	4c18      	ldr	r4, [pc, #96]	@ (10007d14 <dcd_init+0x78>)
10007cb4:	2240      	movs	r2, #64	@ 0x40
10007cb6:	2100      	movs	r1, #0
10007cb8:	0020      	movs	r0, r4
10007cba:	f7fd fd4d 	bl	10005758 <__wrap_memset>
10007cbe:	2740      	movs	r7, #64	@ 0x40
10007cc0:	2300      	movs	r3, #0
10007cc2:	2601      	movs	r6, #1
10007cc4:	2121      	movs	r1, #33	@ 0x21
10007cc6:	4a14      	ldr	r2, [pc, #80]	@ (10007d18 <dcd_init+0x7c>)
10007cc8:	7066      	strb	r6, [r4, #1]
10007cca:	8327      	strh	r7, [r4, #24]
10007ccc:	60a2      	str	r2, [r4, #8]
10007cce:	6013      	str	r3, [r2, #0]
10007cd0:	5463      	strb	r3, [r4, r1]
10007cd2:	315f      	adds	r1, #95	@ 0x5f
10007cd4:	8461      	strh	r1, [r4, #34]	@ 0x22
10007cd6:	3945      	subs	r1, #69	@ 0x45
10007cd8:	5463      	strb	r3, [r4, r1]
10007cda:	4a10      	ldr	r2, [pc, #64]	@ (10007d1c <dcd_init+0x80>)
10007cdc:	4910      	ldr	r1, [pc, #64]	@ (10007d20 <dcd_init+0x84>)
10007cde:	6063      	str	r3, [r4, #4]
10007ce0:	60e2      	str	r2, [r4, #12]
10007ce2:	8727      	strh	r7, [r4, #56]	@ 0x38
10007ce4:	62a1      	str	r1, [r4, #40]	@ 0x28
10007ce6:	600b      	str	r3, [r1, #0]
10007ce8:	6263      	str	r3, [r4, #36]	@ 0x24
10007cea:	62e2      	str	r2, [r4, #44]	@ 0x2c
10007cec:	f002 ffa0 	bl	1000ac30 <__reset_non_control_endpoints_veneer>
10007cf0:	2380      	movs	r3, #128	@ 0x80
10007cf2:	059b      	lsls	r3, r3, #22
10007cf4:	642e      	str	r6, [r5, #64]	@ 0x40
10007cf6:	64eb      	str	r3, [r5, #76]	@ 0x4c
10007cf8:	2390      	movs	r3, #144	@ 0x90
10007cfa:	4a0a      	ldr	r2, [pc, #40]	@ (10007d24 <dcd_init+0x88>)
10007cfc:	2001      	movs	r0, #1
10007cfe:	50ea      	str	r2, [r5, r3]
10007d00:	2280      	movs	r2, #128	@ 0x80
10007d02:	4b09      	ldr	r3, [pc, #36]	@ (10007d28 <dcd_init+0x8c>)
10007d04:	0252      	lsls	r2, r2, #9
10007d06:	64da      	str	r2, [r3, #76]	@ 0x4c
10007d08:	bdf8      	pop	{r3, r4, r5, r6, r7, pc}
10007d0a:	46c0      	nop			@ (mov r8, r8)
10007d0c:	50110000 	.word	0x50110000
10007d10:	200004f9 	.word	0x200004f9
10007d14:	20004d68 	.word	0x20004d68
10007d18:	50100084 	.word	0x50100084
10007d1c:	50100100 	.word	0x50100100
10007d20:	50100080 	.word	0x50100080
10007d24:	0001d010 	.word	0x0001d010
10007d28:	50112000 	.word	0x50112000

10007d2c <dcd_int_enable>:
10007d2c:	b510      	push	{r4, lr}
10007d2e:	2101      	movs	r1, #1
10007d30:	2005      	movs	r0, #5
10007d32:	f7fb fc6d 	bl	10003610 <irq_set_enabled>
10007d36:	bd10      	pop	{r4, pc}

10007d38 <dcd_set_address>:
10007d38:	b510      	push	{r4, lr}
10007d3a:	2200      	movs	r2, #0
10007d3c:	2100      	movs	r1, #0
10007d3e:	4802      	ldr	r0, [pc, #8]	@ (10007d48 <dcd_set_address+0x10>)
10007d40:	f000 f916 	bl	10007f70 <hw_endpoint_xfer_start>
10007d44:	bd10      	pop	{r4, pc}
10007d46:	46c0      	nop			@ (mov r8, r8)
10007d48:	20004d88 	.word	0x20004d88

10007d4c <dcd_sof_enable>:
10007d4c:	4b04      	ldr	r3, [pc, #16]	@ (10007d60 <dcd_sof_enable+0x14>)
10007d4e:	7019      	strb	r1, [r3, #0]
10007d50:	2900      	cmp	r1, #0
10007d52:	d004      	beq.n	10007d5e <dcd_sof_enable+0x12>
10007d54:	2180      	movs	r1, #128	@ 0x80
10007d56:	2390      	movs	r3, #144	@ 0x90
10007d58:	4a02      	ldr	r2, [pc, #8]	@ (10007d64 <dcd_sof_enable+0x18>)
10007d5a:	0289      	lsls	r1, r1, #10
10007d5c:	50d1      	str	r1, [r2, r3]
10007d5e:	4770      	bx	lr
10007d60:	20005301 	.word	0x20005301
10007d64:	50112000 	.word	0x50112000

10007d68 <dcd_edpt0_status_complete>:
10007d68:	780b      	ldrb	r3, [r1, #0]
10007d6a:	065b      	lsls	r3, r3, #25
10007d6c:	d102      	bne.n	10007d74 <dcd_edpt0_status_complete+0xc>
10007d6e:	784b      	ldrb	r3, [r1, #1]
10007d70:	2b05      	cmp	r3, #5
10007d72:	d000      	beq.n	10007d76 <dcd_edpt0_status_complete+0xe>
10007d74:	4770      	bx	lr
10007d76:	788a      	ldrb	r2, [r1, #2]
10007d78:	4b01      	ldr	r3, [pc, #4]	@ (10007d80 <dcd_edpt0_status_complete+0x18>)
10007d7a:	601a      	str	r2, [r3, #0]
10007d7c:	e7fa      	b.n	10007d74 <dcd_edpt0_status_complete+0xc>
10007d7e:	46c0      	nop			@ (mov r8, r8)
10007d80:	50110000 	.word	0x50110000

10007d84 <dcd_edpt_open>:
10007d84:	b5f0      	push	{r4, r5, r6, r7, lr}
10007d86:	46c6      	mov	lr, r8
10007d88:	78c8      	ldrb	r0, [r1, #3]
10007d8a:	b500      	push	{lr}
10007d8c:	0780      	lsls	r0, r0, #30
10007d8e:	0f83      	lsrs	r3, r0, #30
10007d90:	0018      	movs	r0, r3
10007d92:	2b01      	cmp	r3, #1
10007d94:	d060      	beq.n	10007e58 <dcd_edpt_open+0xd4>
10007d96:	788f      	ldrb	r7, [r1, #2]
10007d98:	790a      	ldrb	r2, [r1, #4]
10007d9a:	794b      	ldrb	r3, [r1, #5]
10007d9c:	217f      	movs	r1, #127	@ 0x7f
10007d9e:	4039      	ands	r1, r7
10007da0:	09fc      	lsrs	r4, r7, #7
10007da2:	021b      	lsls	r3, r3, #8
10007da4:	004e      	lsls	r6, r1, #1
10007da6:	4313      	orrs	r3, r2
10007da8:	4d33      	ldr	r5, [pc, #204]	@ (10007e78 <dcd_edpt_open+0xf4>)
10007daa:	1932      	adds	r2, r6, r4
10007dac:	0152      	lsls	r2, r2, #5
10007dae:	18aa      	adds	r2, r5, r2
10007db0:	7097      	strb	r7, [r2, #2]
10007db2:	2701      	movs	r7, #1
10007db4:	4067      	eors	r7, r4
10007db6:	7057      	strb	r7, [r2, #1]
10007db8:	2700      	movs	r7, #0
10007dba:	055b      	lsls	r3, r3, #21
10007dbc:	0d5b      	lsrs	r3, r3, #21
10007dbe:	70d7      	strb	r7, [r2, #3]
10007dc0:	8313      	strh	r3, [r2, #24]
10007dc2:	76d0      	strb	r0, [r2, #27]
10007dc4:	46b8      	mov	r8, r7
10007dc6:	00ca      	lsls	r2, r1, #3
10007dc8:	2c01      	cmp	r4, #1
10007dca:	d032      	beq.n	10007e32 <dcd_edpt_open+0xae>
10007dcc:	4f2b      	ldr	r7, [pc, #172]	@ (10007e7c <dcd_edpt_open+0xf8>)
10007dce:	46bc      	mov	ip, r7
10007dd0:	018f      	lsls	r7, r1, #6
10007dd2:	4462      	add	r2, ip
10007dd4:	46bc      	mov	ip, r7
10007dd6:	44ac      	add	ip, r5
10007dd8:	4667      	mov	r7, ip
10007dda:	60ba      	str	r2, [r7, #8]
10007ddc:	4647      	mov	r7, r8
10007dde:	6017      	str	r7, [r2, #0]
10007de0:	2900      	cmp	r1, #0
10007de2:	d032      	beq.n	10007e4a <dcd_edpt_open+0xc6>
10007de4:	4a26      	ldr	r2, [pc, #152]	@ (10007e80 <dcd_edpt_open+0xfc>)
10007de6:	00c9      	lsls	r1, r1, #3
10007de8:	4690      	mov	r8, r2
10007dea:	4662      	mov	r2, ip
10007dec:	4441      	add	r1, r8
10007dee:	6051      	str	r1, [r2, #4]
10007df0:	223f      	movs	r2, #63	@ 0x3f
10007df2:	333f      	adds	r3, #63	@ 0x3f
10007df4:	4393      	bics	r3, r2
10007df6:	2802      	cmp	r0, #2
10007df8:	d037      	beq.n	10007e6a <dcd_edpt_open+0xe6>
10007dfa:	4922      	ldr	r1, [pc, #136]	@ (10007e84 <dcd_edpt_open+0x100>)
10007dfc:	1937      	adds	r7, r6, r4
10007dfe:	680a      	ldr	r2, [r1, #0]
10007e00:	017f      	lsls	r7, r7, #5
10007e02:	18d3      	adds	r3, r2, r3
10007e04:	600b      	str	r3, [r1, #0]
10007e06:	4920      	ldr	r1, [pc, #128]	@ (10007e88 <dcd_edpt_open+0x104>)
10007e08:	19ef      	adds	r7, r5, r7
10007e0a:	60fa      	str	r2, [r7, #12]
10007e0c:	428b      	cmp	r3, r1
10007e0e:	d82e      	bhi.n	10007e6e <dcd_edpt_open+0xea>
10007e10:	1936      	adds	r6, r6, r4
10007e12:	0176      	lsls	r6, r6, #5
10007e14:	19ad      	adds	r5, r5, r6
10007e16:	7eeb      	ldrb	r3, [r5, #27]
10007e18:	491c      	ldr	r1, [pc, #112]	@ (10007e8c <dcd_edpt_open+0x108>)
10007e1a:	069b      	lsls	r3, r3, #26
10007e1c:	404a      	eors	r2, r1
10007e1e:	4313      	orrs	r3, r2
10007e20:	2280      	movs	r2, #128	@ 0x80
10007e22:	0612      	lsls	r2, r2, #24
10007e24:	4313      	orrs	r3, r2
10007e26:	686a      	ldr	r2, [r5, #4]
10007e28:	6013      	str	r3, [r2, #0]
10007e2a:	2001      	movs	r0, #1
10007e2c:	bc80      	pop	{r7}
10007e2e:	46b8      	mov	r8, r7
10007e30:	bdf0      	pop	{r4, r5, r6, r7, pc}
10007e32:	4f17      	ldr	r7, [pc, #92]	@ (10007e90 <dcd_edpt_open+0x10c>)
10007e34:	46bc      	mov	ip, r7
10007e36:	018f      	lsls	r7, r1, #6
10007e38:	4462      	add	r2, ip
10007e3a:	46bc      	mov	ip, r7
10007e3c:	44ac      	add	ip, r5
10007e3e:	4667      	mov	r7, ip
10007e40:	62ba      	str	r2, [r7, #40]	@ 0x28
10007e42:	4647      	mov	r7, r8
10007e44:	6017      	str	r7, [r2, #0]
10007e46:	2900      	cmp	r1, #0
10007e48:	d108      	bne.n	10007e5c <dcd_edpt_open+0xd8>
10007e4a:	2300      	movs	r3, #0
10007e4c:	0164      	lsls	r4, r4, #5
10007e4e:	192c      	adds	r4, r5, r4
10007e50:	6063      	str	r3, [r4, #4]
10007e52:	4b10      	ldr	r3, [pc, #64]	@ (10007e94 <dcd_edpt_open+0x110>)
10007e54:	60e3      	str	r3, [r4, #12]
10007e56:	e7e8      	b.n	10007e2a <dcd_edpt_open+0xa6>
10007e58:	2000      	movs	r0, #0
10007e5a:	e7e7      	b.n	10007e2c <dcd_edpt_open+0xa8>
10007e5c:	4a0b      	ldr	r2, [pc, #44]	@ (10007e8c <dcd_edpt_open+0x108>)
10007e5e:	00c9      	lsls	r1, r1, #3
10007e60:	4690      	mov	r8, r2
10007e62:	4662      	mov	r2, ip
10007e64:	4441      	add	r1, r8
10007e66:	6251      	str	r1, [r2, #36]	@ 0x24
10007e68:	e7c2      	b.n	10007df0 <dcd_edpt_open+0x6c>
10007e6a:	005b      	lsls	r3, r3, #1
10007e6c:	e7c5      	b.n	10007dfa <dcd_edpt_open+0x76>
10007e6e:	f7fc ff27 	bl	10004cc0 <hard_assertion_failure>
10007e72:	68fa      	ldr	r2, [r7, #12]
10007e74:	e7cc      	b.n	10007e10 <dcd_edpt_open+0x8c>
10007e76:	46c0      	nop			@ (mov r8, r8)
10007e78:	20004d68 	.word	0x20004d68
10007e7c:	50100084 	.word	0x50100084
10007e80:	50100004 	.word	0x50100004
10007e84:	20005174 	.word	0x20005174
10007e88:	50100fff 	.word	0x50100fff
10007e8c:	50100000 	.word	0x50100000
10007e90:	50100080 	.word	0x50100080
10007e94:	50100100 	.word	0x50100100

10007e98 <dcd_edpt_close_all>:
10007e98:	b510      	push	{r4, lr}
10007e9a:	f002 fec9 	bl	1000ac30 <__reset_non_control_endpoints_veneer>
10007e9e:	bd10      	pop	{r4, pc}

10007ea0 <dcd_edpt_xfer>:
10007ea0:	b510      	push	{r4, lr}
10007ea2:	207f      	movs	r0, #127	@ 0x7f
10007ea4:	000c      	movs	r4, r1
10007ea6:	4020      	ands	r0, r4
10007ea8:	0040      	lsls	r0, r0, #1
10007eaa:	09e4      	lsrs	r4, r4, #7
10007eac:	0011      	movs	r1, r2
10007eae:	1900      	adds	r0, r0, r4
10007eb0:	001a      	movs	r2, r3
10007eb2:	4b03      	ldr	r3, [pc, #12]	@ (10007ec0 <dcd_edpt_xfer+0x20>)
10007eb4:	0140      	lsls	r0, r0, #5
10007eb6:	18c0      	adds	r0, r0, r3
10007eb8:	f000 f85a 	bl	10007f70 <hw_endpoint_xfer_start>
10007ebc:	2001      	movs	r0, #1
10007ebe:	bd10      	pop	{r4, pc}
10007ec0:	20004d68 	.word	0x20004d68

10007ec4 <dcd_edpt_stall>:
10007ec4:	237f      	movs	r3, #127	@ 0x7f
10007ec6:	0018      	movs	r0, r3
10007ec8:	b500      	push	{lr}
10007eca:	4008      	ands	r0, r1
10007ecc:	b083      	sub	sp, #12
10007ece:	420b      	tst	r3, r1
10007ed0:	d104      	bne.n	10007edc <dcd_edpt_stall+0x18>
10007ed2:	424b      	negs	r3, r1
10007ed4:	414b      	adcs	r3, r1
10007ed6:	4a08      	ldr	r2, [pc, #32]	@ (10007ef8 <dcd_edpt_stall+0x34>)
10007ed8:	3301      	adds	r3, #1
10007eda:	6693      	str	r3, [r2, #104]	@ 0x68
10007edc:	2280      	movs	r2, #128	@ 0x80
10007ede:	09c9      	lsrs	r1, r1, #7
10007ee0:	0040      	lsls	r0, r0, #1
10007ee2:	4b06      	ldr	r3, [pc, #24]	@ (10007efc <dcd_edpt_stall+0x38>)
10007ee4:	1840      	adds	r0, r0, r1
10007ee6:	0140      	lsls	r0, r0, #5
10007ee8:	2100      	movs	r1, #0
10007eea:	18c0      	adds	r0, r0, r3
10007eec:	0112      	lsls	r2, r2, #4
10007eee:	f002 fe8f 	bl	1000ac10 <___hw_endpoint_buffer_control_update32_veneer>
10007ef2:	b003      	add	sp, #12
10007ef4:	bd00      	pop	{pc}
10007ef6:	46c0      	nop			@ (mov r8, r8)
10007ef8:	50112000 	.word	0x50112000
10007efc:	20004d68 	.word	0x20004d68

10007f00 <dcd_edpt_clear_stall>:
10007f00:	227f      	movs	r2, #127	@ 0x7f
10007f02:	0013      	movs	r3, r2
10007f04:	b510      	push	{r4, lr}
10007f06:	400b      	ands	r3, r1
10007f08:	420a      	tst	r2, r1
10007f0a:	d100      	bne.n	10007f0e <dcd_edpt_clear_stall+0xe>
10007f0c:	bd10      	pop	{r4, pc}
10007f0e:	09c9      	lsrs	r1, r1, #7
10007f10:	005b      	lsls	r3, r3, #1
10007f12:	185b      	adds	r3, r3, r1
10007f14:	4804      	ldr	r0, [pc, #16]	@ (10007f28 <dcd_edpt_clear_stall+0x28>)
10007f16:	015b      	lsls	r3, r3, #5
10007f18:	18c0      	adds	r0, r0, r3
10007f1a:	2300      	movs	r3, #0
10007f1c:	2200      	movs	r2, #0
10007f1e:	4903      	ldr	r1, [pc, #12]	@ (10007f2c <dcd_edpt_clear_stall+0x2c>)
10007f20:	70c3      	strb	r3, [r0, #3]
10007f22:	f002 fe75 	bl	1000ac10 <___hw_endpoint_buffer_control_update32_veneer>
10007f26:	e7f1      	b.n	10007f0c <dcd_edpt_clear_stall+0xc>
10007f28:	20004d68 	.word	0x20004d68
10007f2c:	fffff7ff 	.word	0xfffff7ff

10007f30 <rp2040_usb_init>:
10007f30:	2280      	movs	r2, #128	@ 0x80
10007f32:	4b0a      	ldr	r3, [pc, #40]	@ (10007f5c <rp2040_usb_init+0x2c>)
10007f34:	0452      	lsls	r2, r2, #17
10007f36:	b510      	push	{r4, lr}
10007f38:	601a      	str	r2, [r3, #0]
10007f3a:	4b09      	ldr	r3, [pc, #36]	@ (10007f60 <rp2040_usb_init+0x30>)
10007f3c:	4909      	ldr	r1, [pc, #36]	@ (10007f64 <rp2040_usb_init+0x34>)
10007f3e:	601a      	str	r2, [r3, #0]
10007f40:	0010      	movs	r0, r2
10007f42:	680b      	ldr	r3, [r1, #0]
10007f44:	4398      	bics	r0, r3
10007f46:	d1fb      	bne.n	10007f40 <rp2040_usb_init+0x10>
10007f48:	2280      	movs	r2, #128	@ 0x80
10007f4a:	2100      	movs	r1, #0
10007f4c:	0152      	lsls	r2, r2, #5
10007f4e:	4806      	ldr	r0, [pc, #24]	@ (10007f68 <rp2040_usb_init+0x38>)
10007f50:	f7fd fc02 	bl	10005758 <__wrap_memset>
10007f54:	2209      	movs	r2, #9
10007f56:	4b05      	ldr	r3, [pc, #20]	@ (10007f6c <rp2040_usb_init+0x3c>)
10007f58:	675a      	str	r2, [r3, #116]	@ 0x74
10007f5a:	bd10      	pop	{r4, pc}
10007f5c:	4000e000 	.word	0x4000e000
10007f60:	4000f000 	.word	0x4000f000
10007f64:	4000c008 	.word	0x4000c008
10007f68:	50100000 	.word	0x50100000
10007f6c:	50110000 	.word	0x50110000

10007f70 <hw_endpoint_xfer_start>:
10007f70:	2300      	movs	r3, #0
10007f72:	b510      	push	{r4, lr}
10007f74:	82c3      	strh	r3, [r0, #22]
10007f76:	3301      	adds	r3, #1
10007f78:	8282      	strh	r2, [r0, #20]
10007f7a:	7683      	strb	r3, [r0, #26]
10007f7c:	6101      	str	r1, [r0, #16]
10007f7e:	0004      	movs	r4, r0
10007f80:	f002 fe4e 	bl	1000ac20 <__e15_is_bulkin_ep_veneer>
10007f84:	2800      	cmp	r0, #0
10007f86:	d004      	beq.n	10007f92 <hw_endpoint_xfer_start+0x22>
10007f88:	2180      	movs	r1, #128	@ 0x80
10007f8a:	2390      	movs	r3, #144	@ 0x90
10007f8c:	4a07      	ldr	r2, [pc, #28]	@ (10007fac <hw_endpoint_xfer_start+0x3c>)
10007f8e:	0289      	lsls	r1, r1, #10
10007f90:	50d1      	str	r1, [r2, r3]
10007f92:	0020      	movs	r0, r4
10007f94:	f002 fe1c 	bl	1000abd0 <__e15_is_critical_frame_period_veneer>
10007f98:	2800      	cmp	r0, #0
10007f9a:	d002      	beq.n	10007fa2 <hw_endpoint_xfer_start+0x32>
10007f9c:	2301      	movs	r3, #1
10007f9e:	7723      	strb	r3, [r4, #28]
10007fa0:	bd10      	pop	{r4, pc}
10007fa2:	0020      	movs	r0, r4
10007fa4:	f002 fe2c 	bl	1000ac00 <__hw_endpoint_start_next_buffer_veneer>
10007fa8:	e7fa      	b.n	10007fa0 <hw_endpoint_xfer_start+0x30>
10007faa:	46c0      	nop			@ (mov r8, r8)
10007fac:	50112000 	.word	0x50112000

10007fb0 <tud_event_hook_cb>:
10007fb0:	4770      	bx	lr
10007fb2:	46c0      	nop			@ (mov r8, r8)

10007fb4 <tud_sof_cb>:
10007fb4:	4770      	bx	lr
10007fb6:	46c0      	nop			@ (mov r8, r8)

10007fb8 <tud_descriptor_device_qualifier_cb>:
10007fb8:	2000      	movs	r0, #0
10007fba:	4770      	bx	lr

10007fbc <tud_descriptor_other_speed_configuration_cb>:
10007fbc:	2000      	movs	r0, #0
10007fbe:	4770      	bx	lr

10007fc0 <tud_mount_cb>:
10007fc0:	4770      	bx	lr
10007fc2:	46c0      	nop			@ (mov r8, r8)

10007fc4 <tud_umount_cb>:
10007fc4:	4770      	bx	lr
10007fc6:	46c0      	nop			@ (mov r8, r8)

10007fc8 <tud_suspend_cb>:
10007fc8:	4770      	bx	lr
10007fca:	46c0      	nop			@ (mov r8, r8)

10007fcc <tud_resume_cb>:
10007fcc:	4770      	bx	lr
10007fce:	46c0      	nop			@ (mov r8, r8)

10007fd0 <tud_mounted>:
10007fd0:	4b02      	ldr	r3, [pc, #8]	@ (10007fdc <tud_mounted+0xc>)
10007fd2:	7858      	ldrb	r0, [r3, #1]
10007fd4:	1e43      	subs	r3, r0, #1
10007fd6:	4198      	sbcs	r0, r3
10007fd8:	b2c0      	uxtb	r0, r0
10007fda:	4770      	bx	lr
10007fdc:	200047f8 	.word	0x200047f8

10007fe0 <tud_suspended>:
10007fe0:	4b02      	ldr	r3, [pc, #8]	@ (10007fec <tud_suspended+0xc>)
10007fe2:	7818      	ldrb	r0, [r3, #0]
10007fe4:	0740      	lsls	r0, r0, #29
10007fe6:	0fc0      	lsrs	r0, r0, #31
10007fe8:	4770      	bx	lr
10007fea:	46c0      	nop			@ (mov r8, r8)
10007fec:	200047f8 	.word	0x200047f8

10007ff0 <tud_rhport_init>:
10007ff0:	b5f0      	push	{r4, r5, r6, r7, lr}
10007ff2:	46d6      	mov	lr, sl
10007ff4:	464f      	mov	r7, r9
10007ff6:	4646      	mov	r6, r8
10007ff8:	b5c0      	push	{r6, r7, lr}
10007ffa:	4b2f      	ldr	r3, [pc, #188]	@ (100080b8 <tud_rhport_init+0xc8>)
10007ffc:	0007      	movs	r7, r0
10007ffe:	469a      	mov	sl, r3
10008000:	781b      	ldrb	r3, [r3, #0]
10008002:	000e      	movs	r6, r1
10008004:	2bff      	cmp	r3, #255	@ 0xff
10008006:	d150      	bne.n	100080aa <tud_rhport_init+0xba>
10008008:	2900      	cmp	r1, #0
1000800a:	d041      	beq.n	10008090 <tud_rhport_init+0xa0>
1000800c:	2100      	movs	r1, #0
1000800e:	2254      	movs	r2, #84	@ 0x54
10008010:	482a      	ldr	r0, [pc, #168]	@ (100080bc <tud_rhport_init+0xcc>)
10008012:	f7fd fba1 	bl	10005758 <__wrap_memset>
10008016:	2200      	movs	r2, #0
10008018:	4c29      	ldr	r4, [pc, #164]	@ (100080c0 <tud_rhport_init+0xd0>)
1000801a:	4b2a      	ldr	r3, [pc, #168]	@ (100080c4 <tud_rhport_init+0xd4>)
1000801c:	0020      	movs	r0, r4
1000801e:	701a      	strb	r2, [r3, #0]
10008020:	f7fb fddc 	bl	10003bdc <mutex_init>
10008024:	4b28      	ldr	r3, [pc, #160]	@ (100080c8 <tud_rhport_init+0xd8>)
10008026:	601c      	str	r4, [r3, #0]
10008028:	4c28      	ldr	r4, [pc, #160]	@ (100080cc <tud_rhport_init+0xdc>)
1000802a:	0020      	movs	r0, r4
1000802c:	3c14      	subs	r4, #20
1000802e:	f7fb fde3 	bl	10003bf8 <critical_section_init>
10008032:	0020      	movs	r0, r4
10008034:	f001 fdfa 	bl	10009c2c <tu_fifo_clear>
10008038:	4b25      	ldr	r3, [pc, #148]	@ (100080d0 <tud_rhport_init+0xe0>)
1000803a:	4d26      	ldr	r5, [pc, #152]	@ (100080d4 <tud_rhport_init+0xe4>)
1000803c:	601c      	str	r4, [r3, #0]
1000803e:	4b26      	ldr	r3, [pc, #152]	@ (100080d8 <tud_rhport_init+0xe8>)
10008040:	2b00      	cmp	r3, #0
10008042:	d004      	beq.n	1000804e <tud_rhport_init+0x5e>
10008044:	0028      	movs	r0, r5
10008046:	f7ff fac7 	bl	100075d8 <usbd_app_driver_get_cb>
1000804a:	4b24      	ldr	r3, [pc, #144]	@ (100080dc <tud_rhport_init+0xec>)
1000804c:	6018      	str	r0, [r3, #0]
1000804e:	4924      	ldr	r1, [pc, #144]	@ (100080e0 <tud_rhport_init+0xf0>)
10008050:	2400      	movs	r4, #0
10008052:	4689      	mov	r9, r1
10008054:	4921      	ldr	r1, [pc, #132]	@ (100080dc <tud_rhport_init+0xec>)
10008056:	2300      	movs	r3, #0
10008058:	4688      	mov	r8, r1
1000805a:	782a      	ldrb	r2, [r5, #0]
1000805c:	e010      	b.n	10008080 <tud_rhport_init+0x90>
1000805e:	4643      	mov	r3, r8
10008060:	681b      	ldr	r3, [r3, #0]
10008062:	0162      	lsls	r2, r4, #5
10008064:	189b      	adds	r3, r3, r2
10008066:	2b00      	cmp	r3, #0
10008068:	d012      	beq.n	10008090 <tud_rhport_init+0xa0>
1000806a:	685b      	ldr	r3, [r3, #4]
1000806c:	2b00      	cmp	r3, #0
1000806e:	d00f      	beq.n	10008090 <tud_rhport_init+0xa0>
10008070:	4798      	blx	r3
10008072:	782a      	ldrb	r2, [r5, #0]
10008074:	3401      	adds	r4, #1
10008076:	b2e4      	uxtb	r4, r4
10008078:	1c51      	adds	r1, r2, #1
1000807a:	0023      	movs	r3, r4
1000807c:	42a1      	cmp	r1, r4
1000807e:	db09      	blt.n	10008094 <tud_rhport_init+0xa4>
10008080:	42a2      	cmp	r2, r4
10008082:	d8ec      	bhi.n	1000805e <tud_rhport_init+0x6e>
10008084:	1a9b      	subs	r3, r3, r2
10008086:	015b      	lsls	r3, r3, #5
10008088:	444b      	add	r3, r9
1000808a:	685b      	ldr	r3, [r3, #4]
1000808c:	2b00      	cmp	r3, #0
1000808e:	d1ef      	bne.n	10008070 <tud_rhport_init+0x80>
10008090:	2000      	movs	r0, #0
10008092:	e00b      	b.n	100080ac <tud_rhport_init+0xbc>
10008094:	4653      	mov	r3, sl
10008096:	0031      	movs	r1, r6
10008098:	0038      	movs	r0, r7
1000809a:	701f      	strb	r7, [r3, #0]
1000809c:	f7ff fdfe 	bl	10007c9c <dcd_init>
100080a0:	2800      	cmp	r0, #0
100080a2:	d0f5      	beq.n	10008090 <tud_rhport_init+0xa0>
100080a4:	0038      	movs	r0, r7
100080a6:	f7ff fe41 	bl	10007d2c <dcd_int_enable>
100080aa:	2001      	movs	r0, #1
100080ac:	bce0      	pop	{r5, r6, r7}
100080ae:	46ba      	mov	sl, r7
100080b0:	46b1      	mov	r9, r6
100080b2:	46a8      	mov	r8, r5
100080b4:	bdf0      	pop	{r4, r5, r6, r7, pc}
100080b6:	46c0      	nop			@ (mov r8, r8)
100080b8:	200036f4 	.word	0x200036f4
100080bc:	200047f8 	.word	0x200047f8
100080c0:	200047f0 	.word	0x200047f0
100080c4:	20005302 	.word	0x20005302
100080c8:	2000484c 	.word	0x2000484c
100080cc:	200036ec 	.word	0x200036ec
100080d0:	20004850 	.word	0x20004850
100080d4:	20005300 	.word	0x20005300
100080d8:	100075d9 	.word	0x100075d9
100080dc:	20004648 	.word	0x20004648
100080e0:	1000c49c 	.word	0x1000c49c

100080e4 <tud_task_ext>:
100080e4:	b5f0      	push	{r4, r5, r6, r7, lr}
100080e6:	46de      	mov	lr, fp
100080e8:	4657      	mov	r7, sl
100080ea:	464e      	mov	r6, r9
100080ec:	4645      	mov	r5, r8
100080ee:	b5e0      	push	{r5, r6, r7, lr}
100080f0:	4bc8      	ldr	r3, [pc, #800]	@ (10008414 <tud_task_ext+0x330>)
100080f2:	b091      	sub	sp, #68	@ 0x44
100080f4:	9302      	str	r3, [sp, #8]
100080f6:	781b      	ldrb	r3, [r3, #0]
100080f8:	2bff      	cmp	r3, #255	@ 0xff
100080fa:	d100      	bne.n	100080fe <tud_task_ext+0x1a>
100080fc:	e13e      	b.n	1000837c <tud_task_ext+0x298>
100080fe:	4bc6      	ldr	r3, [pc, #792]	@ (10008418 <tud_task_ext+0x334>)
10008100:	4ec6      	ldr	r6, [pc, #792]	@ (1000841c <tud_task_ext+0x338>)
10008102:	469b      	mov	fp, r3
10008104:	465f      	mov	r7, fp
10008106:	4bc6      	ldr	r3, [pc, #792]	@ (10008420 <tud_task_ext+0x33c>)
10008108:	ac0d      	add	r4, sp, #52	@ 0x34
1000810a:	9301      	str	r3, [sp, #4]
1000810c:	4bc5      	ldr	r3, [pc, #788]	@ (10008424 <tud_task_ext+0x340>)
1000810e:	9300      	str	r3, [sp, #0]
10008110:	6835      	ldr	r5, [r6, #0]
10008112:	696a      	ldr	r2, [r5, #20]
10008114:	f3ef 8110 	mrs	r1, PRIMASK
10008118:	b672      	cpsid	i
1000811a:	6813      	ldr	r3, [r2, #0]
1000811c:	2b00      	cmp	r3, #0
1000811e:	d0fc      	beq.n	1000811a <tud_task_ext+0x36>
10008120:	f3bf 8f5f 	dmb	sy
10008124:	61a9      	str	r1, [r5, #24]
10008126:	0028      	movs	r0, r5
10008128:	0021      	movs	r1, r4
1000812a:	f001 fbaf 	bl	1000988c <tu_fifo_read>
1000812e:	696a      	ldr	r2, [r5, #20]
10008130:	69ab      	ldr	r3, [r5, #24]
10008132:	f3bf 8f5f 	dmb	sy
10008136:	2100      	movs	r1, #0
10008138:	6011      	str	r1, [r2, #0]
1000813a:	f383 8810 	msr	PRIMASK, r3
1000813e:	2800      	cmp	r0, #0
10008140:	d100      	bne.n	10008144 <tud_task_ext+0x60>
10008142:	e11b      	b.n	1000837c <tud_task_ext+0x298>
10008144:	7863      	ldrb	r3, [r4, #1]
10008146:	2b08      	cmp	r3, #8
10008148:	d8e2      	bhi.n	10008110 <tud_task_ext+0x2c>
1000814a:	009b      	lsls	r3, r3, #2
1000814c:	58fb      	ldr	r3, [r7, r3]
1000814e:	469f      	mov	pc, r3
10008150:	6863      	ldr	r3, [r4, #4]
10008152:	2b00      	cmp	r3, #0
10008154:	d0dc      	beq.n	10008110 <tud_task_ext+0x2c>
10008156:	68a0      	ldr	r0, [r4, #8]
10008158:	4798      	blx	r3
1000815a:	e7d9      	b.n	10008110 <tud_task_ext+0x2c>
1000815c:	227f      	movs	r2, #127	@ 0x7f
1000815e:	7921      	ldrb	r1, [r4, #4]
10008160:	4daf      	ldr	r5, [pc, #700]	@ (10008420 <tud_task_ext+0x33c>)
10008162:	400a      	ands	r2, r1
10008164:	0053      	lsls	r3, r2, #1
10008166:	18eb      	adds	r3, r5, r3
10008168:	4698      	mov	r8, r3
1000816a:	09c8      	lsrs	r0, r1, #7
1000816c:	4480      	add	r8, r0
1000816e:	4640      	mov	r0, r8
10008170:	2301      	movs	r3, #1
10008172:	3030      	adds	r0, #48	@ 0x30
10008174:	7905      	ldrb	r5, [r0, #4]
10008176:	439d      	bics	r5, r3
10008178:	7105      	strb	r5, [r0, #4]
1000817a:	7905      	ldrb	r5, [r0, #4]
1000817c:	3303      	adds	r3, #3
1000817e:	439d      	bics	r5, r3
10008180:	7105      	strb	r5, [r0, #4]
10008182:	2a00      	cmp	r2, #0
10008184:	d100      	bne.n	10008188 <tud_task_ext+0xa4>
10008186:	e100      	b.n	1000838a <tud_task_ext+0x2a6>
10008188:	4643      	mov	r3, r8
1000818a:	4aa7      	ldr	r2, [pc, #668]	@ (10008428 <tud_task_ext+0x344>)
1000818c:	7d1b      	ldrb	r3, [r3, #20]
1000818e:	7812      	ldrb	r2, [r2, #0]
10008190:	4293      	cmp	r3, r2
10008192:	d300      	bcc.n	10008196 <tud_task_ext+0xb2>
10008194:	e0ef      	b.n	10008376 <tud_task_ext+0x292>
10008196:	4aa5      	ldr	r2, [pc, #660]	@ (1000842c <tud_task_ext+0x348>)
10008198:	015b      	lsls	r3, r3, #5
1000819a:	6815      	ldr	r5, [r2, #0]
1000819c:	18ed      	adds	r5, r5, r3
1000819e:	2d00      	cmp	r5, #0
100081a0:	d100      	bne.n	100081a4 <tud_task_ext+0xc0>
100081a2:	e0eb      	b.n	1000837c <tud_task_ext+0x298>
100081a4:	68a3      	ldr	r3, [r4, #8]
100081a6:	7962      	ldrb	r2, [r4, #5]
100081a8:	7820      	ldrb	r0, [r4, #0]
100081aa:	69ad      	ldr	r5, [r5, #24]
100081ac:	47a8      	blx	r5
100081ae:	e7af      	b.n	10008110 <tud_task_ext+0x2c>
100081b0:	4a9f      	ldr	r2, [pc, #636]	@ (10008430 <tud_task_ext+0x34c>)
100081b2:	7813      	ldrb	r3, [r2, #0]
100081b4:	2b00      	cmp	r3, #0
100081b6:	d100      	bne.n	100081ba <tud_task_ext+0xd6>
100081b8:	e0e0      	b.n	1000837c <tud_task_ext+0x298>
100081ba:	7813      	ldrb	r3, [r2, #0]
100081bc:	3b01      	subs	r3, #1
100081be:	b2db      	uxtb	r3, r3
100081c0:	7013      	strb	r3, [r2, #0]
100081c2:	7813      	ldrb	r3, [r2, #0]
100081c4:	2b00      	cmp	r3, #0
100081c6:	d1a3      	bne.n	10008110 <tud_task_ext+0x2c>
100081c8:	2201      	movs	r2, #1
100081ca:	4d95      	ldr	r5, [pc, #596]	@ (10008420 <tud_task_ext+0x33c>)
100081cc:	2101      	movs	r1, #1
100081ce:	782b      	ldrb	r3, [r5, #0]
100081d0:	2004      	movs	r0, #4
100081d2:	4313      	orrs	r3, r2
100081d4:	702b      	strb	r3, [r5, #0]
100081d6:	2334      	movs	r3, #52	@ 0x34
100081d8:	5cea      	ldrb	r2, [r5, r3]
100081da:	438a      	bics	r2, r1
100081dc:	54ea      	strb	r2, [r5, r3]
100081de:	5cea      	ldrb	r2, [r5, r3]
100081e0:	4382      	bics	r2, r0
100081e2:	54ea      	strb	r2, [r5, r3]
100081e4:	3301      	adds	r3, #1
100081e6:	5cea      	ldrb	r2, [r5, r3]
100081e8:	438a      	bics	r2, r1
100081ea:	54ea      	strb	r2, [r5, r3]
100081ec:	5cea      	ldrb	r2, [r5, r3]
100081ee:	4382      	bics	r2, r0
100081f0:	54ea      	strb	r2, [r5, r3]
100081f2:	7823      	ldrb	r3, [r4, #0]
100081f4:	2000      	movs	r0, #0
100081f6:	469b      	mov	fp, r3
100081f8:	f000 fc9e 	bl	10008b38 <usbd_control_set_complete_callback>
100081fc:	2260      	movs	r2, #96	@ 0x60
100081fe:	7923      	ldrb	r3, [r4, #4]
10008200:	401a      	ands	r2, r3
10008202:	2a60      	cmp	r2, #96	@ 0x60
10008204:	d100      	bne.n	10008208 <tud_task_ext+0x124>
10008206:	e0ef      	b.n	100083e8 <tud_task_ext+0x304>
10008208:	2a40      	cmp	r2, #64	@ 0x40
1000820a:	d100      	bne.n	1000820e <tud_task_ext+0x12a>
1000820c:	e0f5      	b.n	100083fa <tud_task_ext+0x316>
1000820e:	06db      	lsls	r3, r3, #27
10008210:	0edb      	lsrs	r3, r3, #27
10008212:	2b01      	cmp	r3, #1
10008214:	d100      	bne.n	10008218 <tud_task_ext+0x134>
10008216:	e113      	b.n	10008440 <tud_task_ext+0x35c>
10008218:	2b02      	cmp	r3, #2
1000821a:	d100      	bne.n	1000821e <tud_task_ext+0x13a>
1000821c:	e0c7      	b.n	100083ae <tud_task_ext+0x2ca>
1000821e:	2b00      	cmp	r3, #0
10008220:	d000      	beq.n	10008224 <tud_task_ext+0x140>
10008222:	e0e1      	b.n	100083e8 <tud_task_ext+0x304>
10008224:	2a20      	cmp	r2, #32
10008226:	d100      	bne.n	1000822a <tud_task_ext+0x146>
10008228:	e21c      	b.n	10008664 <tud_task_ext+0x580>
1000822a:	2a00      	cmp	r2, #0
1000822c:	d000      	beq.n	10008230 <tud_task_ext+0x14c>
1000822e:	e0db      	b.n	100083e8 <tud_task_ext+0x304>
10008230:	7963      	ldrb	r3, [r4, #5]
10008232:	2b09      	cmp	r3, #9
10008234:	d900      	bls.n	10008238 <tud_task_ext+0x154>
10008236:	e0d7      	b.n	100083e8 <tud_task_ext+0x304>
10008238:	4a7e      	ldr	r2, [pc, #504]	@ (10008434 <tud_task_ext+0x350>)
1000823a:	009b      	lsls	r3, r3, #2
1000823c:	58d3      	ldr	r3, [r2, r3]
1000823e:	469f      	mov	pc, r3
10008240:	4d77      	ldr	r5, [pc, #476]	@ (10008420 <tud_task_ext+0x33c>)
10008242:	782b      	ldrb	r3, [r5, #0]
10008244:	07db      	lsls	r3, r3, #31
10008246:	d400      	bmi.n	1000824a <tud_task_ext+0x166>
10008248:	e762      	b.n	10008110 <tud_task_ext+0x2c>
1000824a:	f7ff febf 	bl	10007fcc <tud_resume_cb>
1000824e:	e75f      	b.n	10008110 <tud_task_ext+0x2c>
10008250:	9b01      	ldr	r3, [sp, #4]
10008252:	78db      	ldrb	r3, [r3, #3]
10008254:	07db      	lsls	r3, r3, #31
10008256:	d400      	bmi.n	1000825a <tud_task_ext+0x176>
10008258:	e75a      	b.n	10008110 <tud_task_ext+0x2c>
1000825a:	6860      	ldr	r0, [r4, #4]
1000825c:	f7ff feaa 	bl	10007fb4 <tud_sof_cb>
10008260:	e756      	b.n	10008110 <tud_task_ext+0x2c>
10008262:	4d6f      	ldr	r5, [pc, #444]	@ (10008420 <tud_task_ext+0x33c>)
10008264:	782b      	ldrb	r3, [r5, #0]
10008266:	07db      	lsls	r3, r3, #31
10008268:	d400      	bmi.n	1000826c <tud_task_ext+0x188>
1000826a:	e751      	b.n	10008110 <tud_task_ext+0x2c>
1000826c:	7828      	ldrb	r0, [r5, #0]
1000826e:	0700      	lsls	r0, r0, #28
10008270:	0fc0      	lsrs	r0, r0, #31
10008272:	f7ff fea9 	bl	10007fc8 <tud_suspend_cb>
10008276:	e74b      	b.n	10008110 <tud_task_ext+0x2c>
10008278:	7823      	ldrb	r3, [r4, #0]
1000827a:	496a      	ldr	r1, [pc, #424]	@ (10008424 <tud_task_ext+0x340>)
1000827c:	4699      	mov	r9, r3
1000827e:	468b      	mov	fp, r1
10008280:	4b69      	ldr	r3, [pc, #420]	@ (10008428 <tud_task_ext+0x344>)
10008282:	496a      	ldr	r1, [pc, #424]	@ (1000842c <tud_task_ext+0x348>)
10008284:	4698      	mov	r8, r3
10008286:	468a      	mov	sl, r1
10008288:	0039      	movs	r1, r7
1000828a:	781a      	ldrb	r2, [r3, #0]
1000828c:	4647      	mov	r7, r8
1000828e:	2300      	movs	r3, #0
10008290:	46b0      	mov	r8, r6
10008292:	2500      	movs	r5, #0
10008294:	464e      	mov	r6, r9
10008296:	4689      	mov	r9, r1
10008298:	e010      	b.n	100082bc <tud_task_ext+0x1d8>
1000829a:	4653      	mov	r3, sl
1000829c:	681b      	ldr	r3, [r3, #0]
1000829e:	016a      	lsls	r2, r5, #5
100082a0:	189b      	adds	r3, r3, r2
100082a2:	2b00      	cmp	r3, #0
100082a4:	d100      	bne.n	100082a8 <tud_task_ext+0x1c4>
100082a6:	e076      	b.n	10008396 <tud_task_ext+0x2b2>
100082a8:	68db      	ldr	r3, [r3, #12]
100082aa:	0030      	movs	r0, r6
100082ac:	4798      	blx	r3
100082ae:	783a      	ldrb	r2, [r7, #0]
100082b0:	3501      	adds	r5, #1
100082b2:	b2ed      	uxtb	r5, r5
100082b4:	1c51      	adds	r1, r2, #1
100082b6:	002b      	movs	r3, r5
100082b8:	428d      	cmp	r5, r1
100082ba:	dc44      	bgt.n	10008346 <tud_task_ext+0x262>
100082bc:	4295      	cmp	r5, r2
100082be:	d3ec      	bcc.n	1000829a <tud_task_ext+0x1b6>
100082c0:	1a9b      	subs	r3, r3, r2
100082c2:	015b      	lsls	r3, r3, #5
100082c4:	445b      	add	r3, fp
100082c6:	e7ef      	b.n	100082a8 <tud_task_ext+0x1c4>
100082c8:	7823      	ldrb	r3, [r4, #0]
100082ca:	4958      	ldr	r1, [pc, #352]	@ (1000842c <tud_task_ext+0x348>)
100082cc:	4699      	mov	r9, r3
100082ce:	4b56      	ldr	r3, [pc, #344]	@ (10008428 <tud_task_ext+0x344>)
100082d0:	468a      	mov	sl, r1
100082d2:	4698      	mov	r8, r3
100082d4:	0031      	movs	r1, r6
100082d6:	46bb      	mov	fp, r7
100082d8:	464e      	mov	r6, r9
100082da:	781a      	ldrb	r2, [r3, #0]
100082dc:	2500      	movs	r5, #0
100082de:	2300      	movs	r3, #0
100082e0:	4647      	mov	r7, r8
100082e2:	4689      	mov	r9, r1
100082e4:	e00f      	b.n	10008306 <tud_task_ext+0x222>
100082e6:	4653      	mov	r3, sl
100082e8:	681b      	ldr	r3, [r3, #0]
100082ea:	016a      	lsls	r2, r5, #5
100082ec:	189b      	adds	r3, r3, r2
100082ee:	2b00      	cmp	r3, #0
100082f0:	d055      	beq.n	1000839e <tud_task_ext+0x2ba>
100082f2:	68db      	ldr	r3, [r3, #12]
100082f4:	0030      	movs	r0, r6
100082f6:	4798      	blx	r3
100082f8:	783a      	ldrb	r2, [r7, #0]
100082fa:	3501      	adds	r5, #1
100082fc:	b2ed      	uxtb	r5, r5
100082fe:	1c51      	adds	r1, r2, #1
10008300:	002b      	movs	r3, r5
10008302:	428d      	cmp	r5, r1
10008304:	dc07      	bgt.n	10008316 <tud_task_ext+0x232>
10008306:	4295      	cmp	r5, r2
10008308:	d3ed      	bcc.n	100082e6 <tud_task_ext+0x202>
1000830a:	1a9b      	subs	r3, r3, r2
1000830c:	9a00      	ldr	r2, [sp, #0]
1000830e:	015b      	lsls	r3, r3, #5
10008310:	4694      	mov	ip, r2
10008312:	4463      	add	r3, ip
10008314:	e7ed      	b.n	100082f2 <tud_task_ext+0x20e>
10008316:	9d01      	ldr	r5, [sp, #4]
10008318:	2254      	movs	r2, #84	@ 0x54
1000831a:	2100      	movs	r1, #0
1000831c:	0028      	movs	r0, r5
1000831e:	f7fd fa1b 	bl	10005758 <__wrap_memset>
10008322:	2210      	movs	r2, #16
10008324:	21ff      	movs	r1, #255	@ 0xff
10008326:	4844      	ldr	r0, [pc, #272]	@ (10008438 <tud_task_ext+0x354>)
10008328:	f7fd fa16 	bl	10005758 <__wrap_memset>
1000832c:	0028      	movs	r0, r5
1000832e:	2220      	movs	r2, #32
10008330:	21ff      	movs	r1, #255	@ 0xff
10008332:	3014      	adds	r0, #20
10008334:	464e      	mov	r6, r9
10008336:	465f      	mov	r7, fp
10008338:	f7fd fa0e 	bl	10005758 <__wrap_memset>
1000833c:	f000 fbf2 	bl	10008b24 <usbd_control_reset>
10008340:	f7ff fe40 	bl	10007fc4 <tud_umount_cb>
10008344:	e6e4      	b.n	10008110 <tud_task_ext+0x2c>
10008346:	4d36      	ldr	r5, [pc, #216]	@ (10008420 <tud_task_ext+0x33c>)
10008348:	2254      	movs	r2, #84	@ 0x54
1000834a:	2100      	movs	r1, #0
1000834c:	0028      	movs	r0, r5
1000834e:	f7fd fa03 	bl	10005758 <__wrap_memset>
10008352:	2210      	movs	r2, #16
10008354:	21ff      	movs	r1, #255	@ 0xff
10008356:	1d28      	adds	r0, r5, #4
10008358:	f7fd f9fe 	bl	10005758 <__wrap_memset>
1000835c:	0028      	movs	r0, r5
1000835e:	2220      	movs	r2, #32
10008360:	21ff      	movs	r1, #255	@ 0xff
10008362:	3014      	adds	r0, #20
10008364:	4646      	mov	r6, r8
10008366:	464f      	mov	r7, r9
10008368:	f7fd f9f6 	bl	10005758 <__wrap_memset>
1000836c:	f000 fbda 	bl	10008b24 <usbd_control_reset>
10008370:	7923      	ldrb	r3, [r4, #4]
10008372:	70ab      	strb	r3, [r5, #2]
10008374:	e6cc      	b.n	10008110 <tud_task_ext+0x2c>
10008376:	1c50      	adds	r0, r2, #1
10008378:	4298      	cmp	r0, r3
1000837a:	da13      	bge.n	100083a4 <tud_task_ext+0x2c0>
1000837c:	b011      	add	sp, #68	@ 0x44
1000837e:	bcf0      	pop	{r4, r5, r6, r7}
10008380:	46bb      	mov	fp, r7
10008382:	46b2      	mov	sl, r6
10008384:	46a9      	mov	r9, r5
10008386:	46a0      	mov	r8, r4
10008388:	bdf0      	pop	{r4, r5, r6, r7, pc}
1000838a:	68a3      	ldr	r3, [r4, #8]
1000838c:	7962      	ldrb	r2, [r4, #5]
1000838e:	7820      	ldrb	r0, [r4, #0]
10008390:	f000 fbe6 	bl	10008b60 <usbd_control_xfer_cb>
10008394:	e6bc      	b.n	10008110 <tud_task_ext+0x2c>
10008396:	4646      	mov	r6, r8
10008398:	464f      	mov	r7, r9
1000839a:	4d21      	ldr	r5, [pc, #132]	@ (10008420 <tud_task_ext+0x33c>)
1000839c:	e7e6      	b.n	1000836c <tud_task_ext+0x288>
1000839e:	464e      	mov	r6, r9
100083a0:	465f      	mov	r7, fp
100083a2:	e7cb      	b.n	1000833c <tud_task_ext+0x258>
100083a4:	4d1f      	ldr	r5, [pc, #124]	@ (10008424 <tud_task_ext+0x340>)
100083a6:	1a9b      	subs	r3, r3, r2
100083a8:	015b      	lsls	r3, r3, #5
100083aa:	195d      	adds	r5, r3, r5
100083ac:	e6fa      	b.n	100081a4 <tud_task_ext+0xc0>
100083ae:	2370      	movs	r3, #112	@ 0x70
100083b0:	7a21      	ldrb	r1, [r4, #8]
100083b2:	420b      	tst	r3, r1
100083b4:	d118      	bne.n	100083e8 <tud_task_ext+0x304>
100083b6:	09c8      	lsrs	r0, r1, #7
100083b8:	4682      	mov	sl, r0
100083ba:	330f      	adds	r3, #15
100083bc:	400b      	ands	r3, r1
100083be:	005b      	lsls	r3, r3, #1
100083c0:	4698      	mov	r8, r3
100083c2:	4819      	ldr	r0, [pc, #100]	@ (10008428 <tud_task_ext+0x344>)
100083c4:	18eb      	adds	r3, r5, r3
100083c6:	4453      	add	r3, sl
100083c8:	7d1b      	ldrb	r3, [r3, #20]
100083ca:	7800      	ldrb	r0, [r0, #0]
100083cc:	4699      	mov	r9, r3
100083ce:	4283      	cmp	r3, r0
100083d0:	d266      	bcs.n	100084a0 <tud_task_ext+0x3bc>
100083d2:	4816      	ldr	r0, [pc, #88]	@ (1000842c <tud_task_ext+0x348>)
100083d4:	015b      	lsls	r3, r3, #5
100083d6:	6800      	ldr	r0, [r0, #0]
100083d8:	4681      	mov	r9, r0
100083da:	4499      	add	r9, r3
100083dc:	2a00      	cmp	r2, #0
100083de:	d100      	bne.n	100083e2 <tud_task_ext+0x2fe>
100083e0:	e15f      	b.n	100086a2 <tud_task_ext+0x5be>
100083e2:	464b      	mov	r3, r9
100083e4:	2b00      	cmp	r3, #0
100083e6:	d168      	bne.n	100084ba <tud_task_ext+0x3d6>
100083e8:	7820      	ldrb	r0, [r4, #0]
100083ea:	2100      	movs	r1, #0
100083ec:	f7ff fd6a 	bl	10007ec4 <dcd_edpt_stall>
100083f0:	2180      	movs	r1, #128	@ 0x80
100083f2:	7820      	ldrb	r0, [r4, #0]
100083f4:	f7ff fd66 	bl	10007ec4 <dcd_edpt_stall>
100083f8:	e68a      	b.n	10008110 <tud_task_ext+0x2c>
100083fa:	4810      	ldr	r0, [pc, #64]	@ (1000843c <tud_task_ext+0x358>)
100083fc:	f000 fb9c 	bl	10008b38 <usbd_control_set_complete_callback>
10008400:	2101      	movs	r1, #1
10008402:	4658      	mov	r0, fp
10008404:	aa0e      	add	r2, sp, #56	@ 0x38
10008406:	f7ff f8cd 	bl	100075a4 <tud_vendor_control_xfer_cb>
1000840a:	2800      	cmp	r0, #0
1000840c:	d000      	beq.n	10008410 <tud_task_ext+0x32c>
1000840e:	e67f      	b.n	10008110 <tud_task_ext+0x2c>
10008410:	e7ea      	b.n	100083e8 <tud_task_ext+0x304>
10008412:	46c0      	nop			@ (mov r8, r8)
10008414:	200036f4 	.word	0x200036f4
10008418:	1000c3f4 	.word	0x1000c3f4
1000841c:	20004850 	.word	0x20004850
10008420:	200047f8 	.word	0x200047f8
10008424:	1000c49c 	.word	0x1000c49c
10008428:	20005300 	.word	0x20005300
1000842c:	20004648 	.word	0x20004648
10008430:	20005302 	.word	0x20005302
10008434:	1000c418 	.word	0x1000c418
10008438:	200047fc 	.word	0x200047fc
1000843c:	100075a5 	.word	0x100075a5
10008440:	7a23      	ldrb	r3, [r4, #8]
10008442:	2b0f      	cmp	r3, #15
10008444:	d8d0      	bhi.n	100083e8 <tud_task_ext+0x304>
10008446:	4acf      	ldr	r2, [pc, #828]	@ (10008784 <tud_task_ext+0x6a0>)
10008448:	18eb      	adds	r3, r5, r3
1000844a:	791b      	ldrb	r3, [r3, #4]
1000844c:	7815      	ldrb	r5, [r2, #0]
1000844e:	42ab      	cmp	r3, r5
10008450:	d33e      	bcc.n	100084d0 <tud_task_ext+0x3ec>
10008452:	1c69      	adds	r1, r5, #1
10008454:	4299      	cmp	r1, r3
10008456:	dbc7      	blt.n	100083e8 <tud_task_ext+0x304>
10008458:	1b5d      	subs	r5, r3, r5
1000845a:	4bcb      	ldr	r3, [pc, #812]	@ (10008788 <tud_task_ext+0x6a4>)
1000845c:	016d      	lsls	r5, r5, #5
1000845e:	18ed      	adds	r5, r5, r3
10008460:	6968      	ldr	r0, [r5, #20]
10008462:	f000 fb69 	bl	10008b38 <usbd_control_set_complete_callback>
10008466:	2101      	movs	r1, #1
10008468:	4658      	mov	r0, fp
1000846a:	696b      	ldr	r3, [r5, #20]
1000846c:	aa0e      	add	r2, sp, #56	@ 0x38
1000846e:	4798      	blx	r3
10008470:	2800      	cmp	r0, #0
10008472:	d000      	beq.n	10008476 <tud_task_ext+0x392>
10008474:	e64c      	b.n	10008110 <tud_task_ext+0x2c>
10008476:	2260      	movs	r2, #96	@ 0x60
10008478:	0015      	movs	r5, r2
1000847a:	7923      	ldrb	r3, [r4, #4]
1000847c:	401d      	ands	r5, r3
1000847e:	421a      	tst	r2, r3
10008480:	d1b2      	bne.n	100083e8 <tud_task_ext+0x304>
10008482:	7963      	ldrb	r3, [r4, #5]
10008484:	3b0a      	subs	r3, #10
10008486:	2b01      	cmp	r3, #1
10008488:	d8ae      	bhi.n	100083e8 <tud_task_ext+0x304>
1000848a:	f000 fb55 	bl	10008b38 <usbd_control_set_complete_callback>
1000848e:	7963      	ldrb	r3, [r4, #5]
10008490:	2b0a      	cmp	r3, #10
10008492:	d100      	bne.n	10008496 <tud_task_ext+0x3b2>
10008494:	e199      	b.n	100087ca <tud_task_ext+0x6e6>
10008496:	4658      	mov	r0, fp
10008498:	a90e      	add	r1, sp, #56	@ 0x38
1000849a:	f000 fad9 	bl	10008a50 <tud_control_status>
1000849e:	e637      	b.n	10008110 <tud_task_ext+0x2c>
100084a0:	1c43      	adds	r3, r0, #1
100084a2:	454b      	cmp	r3, r9
100084a4:	da00      	bge.n	100084a8 <tud_task_ext+0x3c4>
100084a6:	e0f7      	b.n	10008698 <tud_task_ext+0x5b4>
100084a8:	464b      	mov	r3, r9
100084aa:	1a1b      	subs	r3, r3, r0
100084ac:	015b      	lsls	r3, r3, #5
100084ae:	4699      	mov	r9, r3
100084b0:	48b5      	ldr	r0, [pc, #724]	@ (10008788 <tud_task_ext+0x6a4>)
100084b2:	4481      	add	r9, r0
100084b4:	2a00      	cmp	r2, #0
100084b6:	d100      	bne.n	100084ba <tud_task_ext+0x3d6>
100084b8:	e0f3      	b.n	100086a2 <tud_task_ext+0x5be>
100084ba:	464b      	mov	r3, r9
100084bc:	6958      	ldr	r0, [r3, #20]
100084be:	f000 fb3b 	bl	10008b38 <usbd_control_set_complete_callback>
100084c2:	464b      	mov	r3, r9
100084c4:	2101      	movs	r1, #1
100084c6:	4658      	mov	r0, fp
100084c8:	695b      	ldr	r3, [r3, #20]
100084ca:	aa0e      	add	r2, sp, #56	@ 0x38
100084cc:	4798      	blx	r3
100084ce:	e79c      	b.n	1000840a <tud_task_ext+0x326>
100084d0:	4aae      	ldr	r2, [pc, #696]	@ (1000878c <tud_task_ext+0x6a8>)
100084d2:	015b      	lsls	r3, r3, #5
100084d4:	6815      	ldr	r5, [r2, #0]
100084d6:	18ed      	adds	r5, r5, r3
100084d8:	2d00      	cmp	r5, #0
100084da:	d1c1      	bne.n	10008460 <tud_task_ext+0x37c>
100084dc:	e784      	b.n	100083e8 <tud_task_ext+0x304>
100084de:	79a3      	ldrb	r3, [r4, #6]
100084e0:	4699      	mov	r9, r3
100084e2:	786b      	ldrb	r3, [r5, #1]
100084e4:	4599      	cmp	r9, r3
100084e6:	d0d6      	beq.n	10008496 <tud_task_ext+0x3b2>
100084e8:	786b      	ldrb	r3, [r5, #1]
100084ea:	2b00      	cmp	r3, #0
100084ec:	d000      	beq.n	100084f0 <tud_task_ext+0x40c>
100084ee:	e133      	b.n	10008758 <tud_task_ext+0x674>
100084f0:	464b      	mov	r3, r9
100084f2:	706b      	strb	r3, [r5, #1]
100084f4:	2b00      	cmp	r3, #0
100084f6:	d100      	bne.n	100084fa <tud_task_ext+0x416>
100084f8:	e12b      	b.n	10008752 <tud_task_ext+0x66e>
100084fa:	4648      	mov	r0, r9
100084fc:	3801      	subs	r0, #1
100084fe:	b2c0      	uxtb	r0, r0
10008500:	f7ff fa92 	bl	10007a28 <tud_descriptor_configuration_cb>
10008504:	2800      	cmp	r0, #0
10008506:	d100      	bne.n	1000850a <tud_task_ext+0x426>
10008508:	e17e      	b.n	10008808 <tud_task_ext+0x724>
1000850a:	7843      	ldrb	r3, [r0, #1]
1000850c:	9307      	str	r3, [sp, #28]
1000850e:	2b02      	cmp	r3, #2
10008510:	d000      	beq.n	10008514 <tud_task_ext+0x430>
10008512:	e179      	b.n	10008808 <tud_task_ext+0x724>
10008514:	2201      	movs	r2, #1
10008516:	79c1      	ldrb	r1, [r0, #7]
10008518:	46b1      	mov	r9, r6
1000851a:	118b      	asrs	r3, r1, #6
1000851c:	1149      	asrs	r1, r1, #5
1000851e:	4013      	ands	r3, r2
10008520:	400a      	ands	r2, r1
10008522:	2130      	movs	r1, #48	@ 0x30
10008524:	0112      	lsls	r2, r2, #4
10008526:	015b      	lsls	r3, r3, #5
10008528:	4313      	orrs	r3, r2
1000852a:	782a      	ldrb	r2, [r5, #0]
1000852c:	46a8      	mov	r8, r5
1000852e:	438a      	bics	r2, r1
10008530:	4313      	orrs	r3, r2
10008532:	702b      	strb	r3, [r5, #0]
10008534:	2309      	movs	r3, #9
10008536:	469a      	mov	sl, r3
10008538:	4482      	add	sl, r0
1000853a:	4656      	mov	r6, sl
1000853c:	46ba      	mov	sl, r7
1000853e:	78c3      	ldrb	r3, [r0, #3]
10008540:	7882      	ldrb	r2, [r0, #2]
10008542:	021b      	lsls	r3, r3, #8
10008544:	4313      	orrs	r3, r2
10008546:	18c3      	adds	r3, r0, r3
10008548:	9305      	str	r3, [sp, #20]
1000854a:	4b8e      	ldr	r3, [pc, #568]	@ (10008784 <tud_task_ext+0x6a0>)
1000854c:	9304      	str	r3, [sp, #16]
1000854e:	4b8e      	ldr	r3, [pc, #568]	@ (10008788 <tud_task_ext+0x6a4>)
10008550:	9308      	str	r3, [sp, #32]
10008552:	4b8e      	ldr	r3, [pc, #568]	@ (1000878c <tud_task_ext+0x6a8>)
10008554:	9309      	str	r3, [sp, #36]	@ 0x24
10008556:	4b8e      	ldr	r3, [pc, #568]	@ (10008790 <tud_task_ext+0x6ac>)
10008558:	930a      	str	r3, [sp, #40]	@ 0x28
1000855a:	9b05      	ldr	r3, [sp, #20]
1000855c:	42b3      	cmp	r3, r6
1000855e:	d800      	bhi.n	10008562 <tud_task_ext+0x47e>
10008560:	e155      	b.n	1000880e <tud_task_ext+0x72a>
10008562:	7873      	ldrb	r3, [r6, #1]
10008564:	2201      	movs	r2, #1
10008566:	2b0b      	cmp	r3, #11
10008568:	d103      	bne.n	10008572 <tud_task_ext+0x48e>
1000856a:	7833      	ldrb	r3, [r6, #0]
1000856c:	78f2      	ldrb	r2, [r6, #3]
1000856e:	18f6      	adds	r6, r6, r3
10008570:	7873      	ldrb	r3, [r6, #1]
10008572:	2b04      	cmp	r3, #4
10008574:	d000      	beq.n	10008578 <tud_task_ext+0x494>
10008576:	e144      	b.n	10008802 <tud_task_ext+0x71e>
10008578:	9b05      	ldr	r3, [sp, #20]
1000857a:	2700      	movs	r7, #0
1000857c:	1b9b      	subs	r3, r3, r6
1000857e:	b29b      	uxth	r3, r3
10008580:	9306      	str	r3, [sp, #24]
10008582:	9b04      	ldr	r3, [sp, #16]
10008584:	920b      	str	r2, [sp, #44]	@ 0x2c
10008586:	781d      	ldrb	r5, [r3, #0]
10008588:	2300      	movs	r3, #0
1000858a:	9303      	str	r3, [sp, #12]
1000858c:	e01b      	b.n	100085c6 <tud_task_ext+0x4e2>
1000858e:	9a09      	ldr	r2, [sp, #36]	@ 0x24
10008590:	017b      	lsls	r3, r7, #5
10008592:	6815      	ldr	r5, [r2, #0]
10008594:	18ed      	adds	r5, r5, r3
10008596:	2d00      	cmp	r5, #0
10008598:	d100      	bne.n	1000859c <tud_task_ext+0x4b8>
1000859a:	e132      	b.n	10008802 <tud_task_ext+0x71e>
1000859c:	0031      	movs	r1, r6
1000859e:	4658      	mov	r0, fp
100085a0:	692b      	ldr	r3, [r5, #16]
100085a2:	9a06      	ldr	r2, [sp, #24]
100085a4:	4798      	blx	r3
100085a6:	4684      	mov	ip, r0
100085a8:	2808      	cmp	r0, #8
100085aa:	d903      	bls.n	100085b4 <tud_task_ext+0x4d0>
100085ac:	9a06      	ldr	r2, [sp, #24]
100085ae:	4282      	cmp	r2, r0
100085b0:	d300      	bcc.n	100085b4 <tud_task_ext+0x4d0>
100085b2:	e113      	b.n	100087dc <tud_task_ext+0x6f8>
100085b4:	9b04      	ldr	r3, [sp, #16]
100085b6:	3701      	adds	r7, #1
100085b8:	781d      	ldrb	r5, [r3, #0]
100085ba:	b2ff      	uxtb	r7, r7
100085bc:	1c6b      	adds	r3, r5, #1
100085be:	9703      	str	r7, [sp, #12]
100085c0:	429f      	cmp	r7, r3
100085c2:	dd00      	ble.n	100085c6 <tud_task_ext+0x4e2>
100085c4:	e11d      	b.n	10008802 <tud_task_ext+0x71e>
100085c6:	42bd      	cmp	r5, r7
100085c8:	d8e1      	bhi.n	1000858e <tud_task_ext+0x4aa>
100085ca:	9b03      	ldr	r3, [sp, #12]
100085cc:	1b5d      	subs	r5, r3, r5
100085ce:	9b08      	ldr	r3, [sp, #32]
100085d0:	016d      	lsls	r5, r5, #5
100085d2:	469c      	mov	ip, r3
100085d4:	4465      	add	r5, ip
100085d6:	e7e1      	b.n	1000859c <tud_task_ext+0x4b8>
100085d8:	786b      	ldrb	r3, [r5, #1]
100085da:	aa0c      	add	r2, sp, #48	@ 0x30
100085dc:	3202      	adds	r2, #2
100085de:	7013      	strb	r3, [r2, #0]
100085e0:	4658      	mov	r0, fp
100085e2:	2301      	movs	r3, #1
100085e4:	a90e      	add	r1, sp, #56	@ 0x38
100085e6:	f000 fa49 	bl	10008a7c <tud_control_xfer>
100085ea:	e591      	b.n	10008110 <tud_task_ext+0x2c>
100085ec:	88e3      	ldrh	r3, [r4, #6]
100085ee:	0a1a      	lsrs	r2, r3, #8
100085f0:	b2d8      	uxtb	r0, r3
100085f2:	2a0f      	cmp	r2, #15
100085f4:	d900      	bls.n	100085f8 <tud_task_ext+0x514>
100085f6:	e6f7      	b.n	100083e8 <tud_task_ext+0x304>
100085f8:	4966      	ldr	r1, [pc, #408]	@ (10008794 <tud_task_ext+0x6b0>)
100085fa:	0093      	lsls	r3, r2, #2
100085fc:	58cb      	ldr	r3, [r1, r3]
100085fe:	469f      	mov	pc, r3
10008600:	a80e      	add	r0, sp, #56	@ 0x38
10008602:	f000 fa9f 	bl	10008b44 <usbd_control_set_request>
10008606:	4658      	mov	r0, fp
10008608:	79a1      	ldrb	r1, [r4, #6]
1000860a:	f7ff fb95 	bl	10007d38 <dcd_set_address>
1000860e:	2202      	movs	r2, #2
10008610:	782b      	ldrb	r3, [r5, #0]
10008612:	4313      	orrs	r3, r2
10008614:	702b      	strb	r3, [r5, #0]
10008616:	e57b      	b.n	10008110 <tud_task_ext+0x2c>
10008618:	88e3      	ldrh	r3, [r4, #6]
1000861a:	2b01      	cmp	r3, #1
1000861c:	d000      	beq.n	10008620 <tud_task_ext+0x53c>
1000861e:	e6e3      	b.n	100083e8 <tud_task_ext+0x304>
10008620:	2208      	movs	r2, #8
10008622:	782b      	ldrb	r3, [r5, #0]
10008624:	4658      	mov	r0, fp
10008626:	4393      	bics	r3, r2
10008628:	a90e      	add	r1, sp, #56	@ 0x38
1000862a:	702b      	strb	r3, [r5, #0]
1000862c:	f000 fa10 	bl	10008a50 <tud_control_status>
10008630:	e56e      	b.n	10008110 <tud_task_ext+0x2c>
10008632:	2002      	movs	r0, #2
10008634:	7829      	ldrb	r1, [r5, #0]
10008636:	ab0c      	add	r3, sp, #48	@ 0x30
10008638:	1c9a      	adds	r2, r3, #2
1000863a:	068b      	lsls	r3, r1, #26
1000863c:	0889      	lsrs	r1, r1, #2
1000863e:	0fdb      	lsrs	r3, r3, #31
10008640:	4001      	ands	r1, r0
10008642:	430b      	orrs	r3, r1
10008644:	8013      	strh	r3, [r2, #0]
10008646:	4658      	mov	r0, fp
10008648:	2302      	movs	r3, #2
1000864a:	a90e      	add	r1, sp, #56	@ 0x38
1000864c:	f000 fa16 	bl	10008a7c <tud_control_xfer>
10008650:	e55e      	b.n	10008110 <tud_task_ext+0x2c>
10008652:	88e3      	ldrh	r3, [r4, #6]
10008654:	2b01      	cmp	r3, #1
10008656:	d000      	beq.n	1000865a <tud_task_ext+0x576>
10008658:	e6c6      	b.n	100083e8 <tud_task_ext+0x304>
1000865a:	2208      	movs	r2, #8
1000865c:	782b      	ldrb	r3, [r5, #0]
1000865e:	4313      	orrs	r3, r2
10008660:	702b      	strb	r3, [r5, #0]
10008662:	e718      	b.n	10008496 <tud_task_ext+0x3b2>
10008664:	7a23      	ldrb	r3, [r4, #8]
10008666:	2b0f      	cmp	r3, #15
10008668:	d900      	bls.n	1000866c <tud_task_ext+0x588>
1000866a:	e6bd      	b.n	100083e8 <tud_task_ext+0x304>
1000866c:	18eb      	adds	r3, r5, r3
1000866e:	791d      	ldrb	r5, [r3, #4]
10008670:	4b44      	ldr	r3, [pc, #272]	@ (10008784 <tud_task_ext+0x6a0>)
10008672:	781b      	ldrb	r3, [r3, #0]
10008674:	429d      	cmp	r5, r3
10008676:	d228      	bcs.n	100086ca <tud_task_ext+0x5e6>
10008678:	4b44      	ldr	r3, [pc, #272]	@ (1000878c <tud_task_ext+0x6a8>)
1000867a:	016d      	lsls	r5, r5, #5
1000867c:	681b      	ldr	r3, [r3, #0]
1000867e:	195d      	adds	r5, r3, r5
10008680:	2d00      	cmp	r5, #0
10008682:	d100      	bne.n	10008686 <tud_task_ext+0x5a2>
10008684:	e6b0      	b.n	100083e8 <tud_task_ext+0x304>
10008686:	6968      	ldr	r0, [r5, #20]
10008688:	f000 fa56 	bl	10008b38 <usbd_control_set_complete_callback>
1000868c:	2101      	movs	r1, #1
1000868e:	4658      	mov	r0, fp
10008690:	696b      	ldr	r3, [r5, #20]
10008692:	aa0e      	add	r2, sp, #56	@ 0x38
10008694:	4798      	blx	r3
10008696:	e6b8      	b.n	1000840a <tud_task_ext+0x326>
10008698:	2a00      	cmp	r2, #0
1000869a:	d000      	beq.n	1000869e <tud_task_ext+0x5ba>
1000869c:	e6a4      	b.n	100083e8 <tud_task_ext+0x304>
1000869e:	2300      	movs	r3, #0
100086a0:	4699      	mov	r9, r3
100086a2:	7962      	ldrb	r2, [r4, #5]
100086a4:	2002      	movs	r0, #2
100086a6:	0013      	movs	r3, r2
100086a8:	9203      	str	r2, [sp, #12]
100086aa:	4383      	bics	r3, r0
100086ac:	2b01      	cmp	r3, #1
100086ae:	d015      	beq.n	100086dc <tud_task_ext+0x5f8>
100086b0:	2a00      	cmp	r2, #0
100086b2:	d000      	beq.n	100086b6 <tud_task_ext+0x5d2>
100086b4:	e698      	b.n	100083e8 <tud_task_ext+0x304>
100086b6:	002b      	movs	r3, r5
100086b8:	4443      	add	r3, r8
100086ba:	4453      	add	r3, sl
100086bc:	3330      	adds	r3, #48	@ 0x30
100086be:	791b      	ldrb	r3, [r3, #4]
100086c0:	aa0c      	add	r2, sp, #48	@ 0x30
100086c2:	079b      	lsls	r3, r3, #30
100086c4:	0fdb      	lsrs	r3, r3, #31
100086c6:	3202      	adds	r2, #2
100086c8:	e7bc      	b.n	10008644 <tud_task_ext+0x560>
100086ca:	1c5a      	adds	r2, r3, #1
100086cc:	42aa      	cmp	r2, r5
100086ce:	da00      	bge.n	100086d2 <tud_task_ext+0x5ee>
100086d0:	e68a      	b.n	100083e8 <tud_task_ext+0x304>
100086d2:	1aed      	subs	r5, r5, r3
100086d4:	4b2c      	ldr	r3, [pc, #176]	@ (10008788 <tud_task_ext+0x6a4>)
100086d6:	016d      	lsls	r5, r5, #5
100086d8:	18ed      	adds	r5, r5, r3
100086da:	e7d4      	b.n	10008686 <tud_task_ext+0x5a2>
100086dc:	88e3      	ldrh	r3, [r4, #6]
100086de:	2b00      	cmp	r3, #0
100086e0:	d112      	bne.n	10008708 <tud_task_ext+0x624>
100086e2:	9b02      	ldr	r3, [sp, #8]
100086e4:	7818      	ldrb	r0, [r3, #0]
100086e6:	9b03      	ldr	r3, [sp, #12]
100086e8:	2b01      	cmp	r3, #1
100086ea:	d023      	beq.n	10008734 <tud_task_ext+0x650>
100086ec:	f7ff fbea 	bl	10007ec4 <dcd_edpt_stall>
100086f0:	4643      	mov	r3, r8
100086f2:	2102      	movs	r1, #2
100086f4:	18eb      	adds	r3, r5, r3
100086f6:	4453      	add	r3, sl
100086f8:	3330      	adds	r3, #48	@ 0x30
100086fa:	791a      	ldrb	r2, [r3, #4]
100086fc:	430a      	orrs	r2, r1
100086fe:	2101      	movs	r1, #1
10008700:	711a      	strb	r2, [r3, #4]
10008702:	791a      	ldrb	r2, [r3, #4]
10008704:	430a      	orrs	r2, r1
10008706:	711a      	strb	r2, [r3, #4]
10008708:	464b      	mov	r3, r9
1000870a:	2b00      	cmp	r3, #0
1000870c:	d100      	bne.n	10008710 <tud_task_ext+0x62c>
1000870e:	e4ff      	b.n	10008110 <tud_task_ext+0x2c>
10008710:	6958      	ldr	r0, [r3, #20]
10008712:	f000 fa11 	bl	10008b38 <usbd_control_set_complete_callback>
10008716:	464b      	mov	r3, r9
10008718:	2101      	movs	r1, #1
1000871a:	695b      	ldr	r3, [r3, #20]
1000871c:	aa0e      	add	r2, sp, #56	@ 0x38
1000871e:	4658      	mov	r0, fp
10008720:	4798      	blx	r3
10008722:	2000      	movs	r0, #0
10008724:	f000 fa08 	bl	10008b38 <usbd_control_set_complete_callback>
10008728:	2335      	movs	r3, #53	@ 0x35
1000872a:	5ceb      	ldrb	r3, [r5, r3]
1000872c:	07db      	lsls	r3, r3, #31
1000872e:	d500      	bpl.n	10008732 <tud_task_ext+0x64e>
10008730:	e4ee      	b.n	10008110 <tud_task_ext+0x2c>
10008732:	e6b0      	b.n	10008496 <tud_task_ext+0x3b2>
10008734:	f7ff fbe4 	bl	10007f00 <dcd_edpt_clear_stall>
10008738:	4643      	mov	r3, r8
1000873a:	2102      	movs	r1, #2
1000873c:	18eb      	adds	r3, r5, r3
1000873e:	4453      	add	r3, sl
10008740:	3330      	adds	r3, #48	@ 0x30
10008742:	791a      	ldrb	r2, [r3, #4]
10008744:	438a      	bics	r2, r1
10008746:	711a      	strb	r2, [r3, #4]
10008748:	791a      	ldrb	r2, [r3, #4]
1000874a:	9903      	ldr	r1, [sp, #12]
1000874c:	438a      	bics	r2, r1
1000874e:	711a      	strb	r2, [r3, #4]
10008750:	e7da      	b.n	10008708 <tud_task_ext+0x624>
10008752:	f7ff fc37 	bl	10007fc4 <tud_umount_cb>
10008756:	e69e      	b.n	10008496 <tud_task_ext+0x3b2>
10008758:	2100      	movs	r1, #0
1000875a:	4658      	mov	r0, fp
1000875c:	f7ff faf6 	bl	10007d4c <dcd_sof_enable>
10008760:	4658      	mov	r0, fp
10008762:	f7ff fb99 	bl	10007e98 <dcd_edpt_close_all>
10008766:	78ab      	ldrb	r3, [r5, #2]
10008768:	4907      	ldr	r1, [pc, #28]	@ (10008788 <tud_task_ext+0x6a4>)
1000876a:	9303      	str	r3, [sp, #12]
1000876c:	9104      	str	r1, [sp, #16]
1000876e:	4b05      	ldr	r3, [pc, #20]	@ (10008784 <tud_task_ext+0x6a0>)
10008770:	4906      	ldr	r1, [pc, #24]	@ (1000878c <tud_task_ext+0x6a8>)
10008772:	4698      	mov	r8, r3
10008774:	781a      	ldrb	r2, [r3, #0]
10008776:	9105      	str	r1, [sp, #20]
10008778:	2300      	movs	r3, #0
1000877a:	0029      	movs	r1, r5
1000877c:	001d      	movs	r5, r3
1000877e:	468a      	mov	sl, r1
10008780:	e01b      	b.n	100087ba <tud_task_ext+0x6d6>
10008782:	46c0      	nop			@ (mov r8, r8)
10008784:	20005300 	.word	0x20005300
10008788:	1000c49c 	.word	0x1000c49c
1000878c:	20004648 	.word	0x20004648
10008790:	2000480c 	.word	0x2000480c
10008794:	1000c440 	.word	0x1000c440
10008798:	9b05      	ldr	r3, [sp, #20]
1000879a:	016a      	lsls	r2, r5, #5
1000879c:	681b      	ldr	r3, [r3, #0]
1000879e:	189b      	adds	r3, r3, r2
100087a0:	2b00      	cmp	r3, #0
100087a2:	d04d      	beq.n	10008840 <tud_task_ext+0x75c>
100087a4:	68db      	ldr	r3, [r3, #12]
100087a6:	4658      	mov	r0, fp
100087a8:	4798      	blx	r3
100087aa:	4643      	mov	r3, r8
100087ac:	781a      	ldrb	r2, [r3, #0]
100087ae:	3501      	adds	r5, #1
100087b0:	b2ed      	uxtb	r5, r5
100087b2:	1c51      	adds	r1, r2, #1
100087b4:	002b      	movs	r3, r5
100087b6:	428d      	cmp	r5, r1
100087b8:	dc2e      	bgt.n	10008818 <tud_task_ext+0x734>
100087ba:	4295      	cmp	r5, r2
100087bc:	d3ec      	bcc.n	10008798 <tud_task_ext+0x6b4>
100087be:	1a9b      	subs	r3, r3, r2
100087c0:	9a04      	ldr	r2, [sp, #16]
100087c2:	015b      	lsls	r3, r3, #5
100087c4:	4694      	mov	ip, r2
100087c6:	4463      	add	r3, ip
100087c8:	e7ec      	b.n	100087a4 <tud_task_ext+0x6c0>
100087ca:	ab0c      	add	r3, sp, #48	@ 0x30
100087cc:	1c9a      	adds	r2, r3, #2
100087ce:	4658      	mov	r0, fp
100087d0:	2301      	movs	r3, #1
100087d2:	a90e      	add	r1, sp, #56	@ 0x38
100087d4:	7015      	strb	r5, [r2, #0]
100087d6:	f000 f951 	bl	10008a7c <tud_control_xfer>
100087da:	e499      	b.n	10008110 <tud_task_ext+0x2c>
100087dc:	9a0b      	ldr	r2, [sp, #44]	@ 0x2c
100087de:	2a01      	cmp	r2, #1
100087e0:	d04f      	beq.n	10008882 <tud_task_ext+0x79e>
100087e2:	2a00      	cmp	r2, #0
100087e4:	d03c      	beq.n	10008860 <tud_task_ext+0x77c>
100087e6:	2300      	movs	r3, #0
100087e8:	78b0      	ldrb	r0, [r6, #2]
100087ea:	e004      	b.n	100087f6 <tud_task_ext+0x712>
100087ec:	3301      	adds	r3, #1
100087ee:	b2db      	uxtb	r3, r3
100087f0:	710f      	strb	r7, [r1, #4]
100087f2:	4293      	cmp	r3, r2
100087f4:	d234      	bcs.n	10008860 <tud_task_ext+0x77c>
100087f6:	18c1      	adds	r1, r0, r3
100087f8:	b2c9      	uxtb	r1, r1
100087fa:	4441      	add	r1, r8
100087fc:	790d      	ldrb	r5, [r1, #4]
100087fe:	2dff      	cmp	r5, #255	@ 0xff
10008800:	d0f4      	beq.n	100087ec <tud_task_ext+0x708>
10008802:	464e      	mov	r6, r9
10008804:	4645      	mov	r5, r8
10008806:	4657      	mov	r7, sl
10008808:	2300      	movs	r3, #0
1000880a:	706b      	strb	r3, [r5, #1]
1000880c:	e5ec      	b.n	100083e8 <tud_task_ext+0x304>
1000880e:	464e      	mov	r6, r9
10008810:	4657      	mov	r7, sl
10008812:	f7ff fbd5 	bl	10007fc0 <tud_mount_cb>
10008816:	e63e      	b.n	10008496 <tud_task_ext+0x3b2>
10008818:	4655      	mov	r5, sl
1000881a:	2254      	movs	r2, #84	@ 0x54
1000881c:	2100      	movs	r1, #0
1000881e:	0028      	movs	r0, r5
10008820:	f7fc ff9a 	bl	10005758 <__wrap_memset>
10008824:	2210      	movs	r2, #16
10008826:	21ff      	movs	r1, #255	@ 0xff
10008828:	1d28      	adds	r0, r5, #4
1000882a:	f7fc ff95 	bl	10005758 <__wrap_memset>
1000882e:	0028      	movs	r0, r5
10008830:	2220      	movs	r2, #32
10008832:	21ff      	movs	r1, #255	@ 0xff
10008834:	3014      	adds	r0, #20
10008836:	f7fc ff8f 	bl	10005758 <__wrap_memset>
1000883a:	9b03      	ldr	r3, [sp, #12]
1000883c:	70ab      	strb	r3, [r5, #2]
1000883e:	e657      	b.n	100084f0 <tud_task_ext+0x40c>
10008840:	4655      	mov	r5, sl
10008842:	e7fa      	b.n	1000883a <tud_task_ext+0x756>
10008844:	f7fe feaa 	bl	1000759c <tud_descriptor_bos_cb>
10008848:	1e02      	subs	r2, r0, #0
1000884a:	d100      	bne.n	1000884e <tud_task_ext+0x76a>
1000884c:	e5cc      	b.n	100083e8 <tud_task_ext+0x304>
1000884e:	78d3      	ldrb	r3, [r2, #3]
10008850:	7891      	ldrb	r1, [r2, #2]
10008852:	021b      	lsls	r3, r3, #8
10008854:	430b      	orrs	r3, r1
10008856:	4658      	mov	r0, fp
10008858:	a90e      	add	r1, sp, #56	@ 0x38
1000885a:	f000 f90f 	bl	10008a7c <tud_control_xfer>
1000885e:	e5d4      	b.n	1000840a <tud_task_ext+0x326>
10008860:	4665      	mov	r5, ip
10008862:	003b      	movs	r3, r7
10008864:	002a      	movs	r2, r5
10008866:	0031      	movs	r1, r6
10008868:	980a      	ldr	r0, [sp, #40]	@ 0x28
1000886a:	f000 fe7f 	bl	1000956c <tu_edpt_bind_driver>
1000886e:	46ac      	mov	ip, r5
10008870:	9b04      	ldr	r3, [sp, #16]
10008872:	9a03      	ldr	r2, [sp, #12]
10008874:	781b      	ldrb	r3, [r3, #0]
10008876:	4466      	add	r6, ip
10008878:	3301      	adds	r3, #1
1000887a:	4293      	cmp	r3, r2
1000887c:	db00      	blt.n	10008880 <tud_task_ext+0x79c>
1000887e:	e66c      	b.n	1000855a <tud_task_ext+0x476>
10008880:	e7bf      	b.n	10008802 <tud_task_ext+0x71e>
10008882:	4b17      	ldr	r3, [pc, #92]	@ (100088e0 <tud_task_ext+0x7fc>)
10008884:	6929      	ldr	r1, [r5, #16]
10008886:	4299      	cmp	r1, r3
10008888:	d1ad      	bne.n	100087e6 <tud_task_ext+0x702>
1000888a:	9a07      	ldr	r2, [sp, #28]
1000888c:	e7ab      	b.n	100087e6 <tud_task_ext+0x702>
1000888e:	f7ff fb93 	bl	10007fb8 <tud_descriptor_device_qualifier_cb>
10008892:	1e02      	subs	r2, r0, #0
10008894:	d100      	bne.n	10008898 <tud_task_ext+0x7b4>
10008896:	e5a7      	b.n	100083e8 <tud_task_ext+0x304>
10008898:	4658      	mov	r0, fp
1000889a:	7813      	ldrb	r3, [r2, #0]
1000889c:	a90e      	add	r1, sp, #56	@ 0x38
1000889e:	f000 f8ed 	bl	10008a7c <tud_control_xfer>
100088a2:	e5b2      	b.n	1000840a <tud_task_ext+0x326>
100088a4:	8921      	ldrh	r1, [r4, #8]
100088a6:	f7ff f8c3 	bl	10007a30 <tud_descriptor_string_cb>
100088aa:	1e02      	subs	r2, r0, #0
100088ac:	d1f4      	bne.n	10008898 <tud_task_ext+0x7b4>
100088ae:	e59b      	b.n	100083e8 <tud_task_ext+0x304>
100088b0:	2a02      	cmp	r2, #2
100088b2:	d00f      	beq.n	100088d4 <tud_task_ext+0x7f0>
100088b4:	f7ff fb82 	bl	10007fbc <tud_descriptor_other_speed_configuration_cb>
100088b8:	1e02      	subs	r2, r0, #0
100088ba:	d1c8      	bne.n	1000884e <tud_task_ext+0x76a>
100088bc:	e594      	b.n	100083e8 <tud_task_ext+0x304>
100088be:	f7ff f8af 	bl	10007a20 <tud_descriptor_device_cb>
100088c2:	1e02      	subs	r2, r0, #0
100088c4:	d100      	bne.n	100088c8 <tud_task_ext+0x7e4>
100088c6:	e58f      	b.n	100083e8 <tud_task_ext+0x304>
100088c8:	2312      	movs	r3, #18
100088ca:	4658      	mov	r0, fp
100088cc:	a90e      	add	r1, sp, #56	@ 0x38
100088ce:	f000 f8d5 	bl	10008a7c <tud_control_xfer>
100088d2:	e59a      	b.n	1000840a <tud_task_ext+0x326>
100088d4:	f7ff f8a8 	bl	10007a28 <tud_descriptor_configuration_cb>
100088d8:	1e02      	subs	r2, r0, #0
100088da:	d1b8      	bne.n	1000884e <tud_task_ext+0x76a>
100088dc:	e584      	b.n	100083e8 <tud_task_ext+0x304>
100088de:	46c0      	nop			@ (mov r8, r8)
100088e0:	10008f35 	.word	0x10008f35

100088e4 <usbd_open_edpt_pair>:
100088e4:	b5f8      	push	{r3, r4, r5, r6, r7, lr}
100088e6:	4657      	mov	r7, sl
100088e8:	464e      	mov	r6, r9
100088ea:	46de      	mov	lr, fp
100088ec:	4645      	mov	r5, r8
100088ee:	000c      	movs	r4, r1
100088f0:	b5e0      	push	{r5, r6, r7, lr}
100088f2:	0016      	movs	r6, r2
100088f4:	001f      	movs	r7, r3
100088f6:	2a00      	cmp	r2, #0
100088f8:	d03c      	beq.n	10008974 <usbd_open_edpt_pair+0x90>
100088fa:	2370      	movs	r3, #112	@ 0x70
100088fc:	4698      	mov	r8, r3
100088fe:	4b1e      	ldr	r3, [pc, #120]	@ (10008978 <usbd_open_edpt_pair+0x94>)
10008900:	2500      	movs	r5, #0
10008902:	469b      	mov	fp, r3
10008904:	4b1d      	ldr	r3, [pc, #116]	@ (1000897c <usbd_open_edpt_pair+0x98>)
10008906:	469a      	mov	sl, r3
10008908:	e01a      	b.n	10008940 <usbd_open_edpt_pair+0x5c>
1000890a:	465b      	mov	r3, fp
1000890c:	781b      	ldrb	r3, [r3, #0]
1000890e:	0020      	movs	r0, r4
10008910:	4699      	mov	r9, r3
10008912:	4653      	mov	r3, sl
10008914:	7899      	ldrb	r1, [r3, #2]
10008916:	f000 fdeb 	bl	100094f0 <tu_edpt_validate>
1000891a:	2800      	cmp	r0, #0
1000891c:	d01c      	beq.n	10008958 <usbd_open_edpt_pair+0x74>
1000891e:	0021      	movs	r1, r4
10008920:	4648      	mov	r0, r9
10008922:	f7ff fa2f 	bl	10007d84 <dcd_edpt_open>
10008926:	2800      	cmp	r0, #0
10008928:	d016      	beq.n	10008958 <usbd_open_edpt_pair+0x74>
1000892a:	78a3      	ldrb	r3, [r4, #2]
1000892c:	09da      	lsrs	r2, r3, #7
1000892e:	2a01      	cmp	r2, #1
10008930:	d019      	beq.n	10008966 <usbd_open_edpt_pair+0x82>
10008932:	9a0a      	ldr	r2, [sp, #40]	@ 0x28
10008934:	3501      	adds	r5, #1
10008936:	7013      	strb	r3, [r2, #0]
10008938:	7823      	ldrb	r3, [r4, #0]
1000893a:	18e4      	adds	r4, r4, r3
1000893c:	42b5      	cmp	r5, r6
1000893e:	da19      	bge.n	10008974 <usbd_open_edpt_pair+0x90>
10008940:	7863      	ldrb	r3, [r4, #1]
10008942:	2b05      	cmp	r3, #5
10008944:	d108      	bne.n	10008958 <usbd_open_edpt_pair+0x74>
10008946:	78e3      	ldrb	r3, [r4, #3]
10008948:	079b      	lsls	r3, r3, #30
1000894a:	0f9b      	lsrs	r3, r3, #30
1000894c:	42bb      	cmp	r3, r7
1000894e:	d103      	bne.n	10008958 <usbd_open_edpt_pair+0x74>
10008950:	4642      	mov	r2, r8
10008952:	78a3      	ldrb	r3, [r4, #2]
10008954:	421a      	tst	r2, r3
10008956:	d0d8      	beq.n	1000890a <usbd_open_edpt_pair+0x26>
10008958:	2000      	movs	r0, #0
1000895a:	bcf0      	pop	{r4, r5, r6, r7}
1000895c:	46bb      	mov	fp, r7
1000895e:	46b2      	mov	sl, r6
10008960:	46a9      	mov	r9, r5
10008962:	46a0      	mov	r8, r4
10008964:	bdf8      	pop	{r3, r4, r5, r6, r7, pc}
10008966:	9a0b      	ldr	r2, [sp, #44]	@ 0x2c
10008968:	3501      	adds	r5, #1
1000896a:	7013      	strb	r3, [r2, #0]
1000896c:	7823      	ldrb	r3, [r4, #0]
1000896e:	18e4      	adds	r4, r4, r3
10008970:	42b5      	cmp	r5, r6
10008972:	dbe5      	blt.n	10008940 <usbd_open_edpt_pair+0x5c>
10008974:	2001      	movs	r0, #1
10008976:	e7f0      	b.n	1000895a <usbd_open_edpt_pair+0x76>
10008978:	200036f4 	.word	0x200036f4
1000897c:	200047f8 	.word	0x200047f8

10008980 <usbd_edpt_open>:
10008980:	2270      	movs	r2, #112	@ 0x70
10008982:	b570      	push	{r4, r5, r6, lr}
10008984:	788b      	ldrb	r3, [r1, #2]
10008986:	000c      	movs	r4, r1
10008988:	421a      	tst	r2, r3
1000898a:	d001      	beq.n	10008990 <usbd_edpt_open+0x10>
1000898c:	2000      	movs	r0, #0
1000898e:	bd70      	pop	{r4, r5, r6, pc}
10008990:	4b06      	ldr	r3, [pc, #24]	@ (100089ac <usbd_edpt_open+0x2c>)
10008992:	0020      	movs	r0, r4
10008994:	781d      	ldrb	r5, [r3, #0]
10008996:	4b06      	ldr	r3, [pc, #24]	@ (100089b0 <usbd_edpt_open+0x30>)
10008998:	7899      	ldrb	r1, [r3, #2]
1000899a:	f000 fda9 	bl	100094f0 <tu_edpt_validate>
1000899e:	2800      	cmp	r0, #0
100089a0:	d0f4      	beq.n	1000898c <usbd_edpt_open+0xc>
100089a2:	0021      	movs	r1, r4
100089a4:	0028      	movs	r0, r5
100089a6:	f7ff f9ed 	bl	10007d84 <dcd_edpt_open>
100089aa:	e7f0      	b.n	1000898e <usbd_edpt_open+0xe>
100089ac:	200036f4 	.word	0x200036f4
100089b0:	200047f8 	.word	0x200047f8

100089b4 <usbd_edpt_claim>:
100089b4:	000b      	movs	r3, r1
100089b6:	207f      	movs	r0, #127	@ 0x7f
100089b8:	b510      	push	{r4, lr}
100089ba:	4018      	ands	r0, r3
100089bc:	09db      	lsrs	r3, r3, #7
100089be:	3334      	adds	r3, #52	@ 0x34
100089c0:	0040      	lsls	r0, r0, #1
100089c2:	4a04      	ldr	r2, [pc, #16]	@ (100089d4 <usbd_edpt_claim+0x20>)
100089c4:	18c0      	adds	r0, r0, r3
100089c6:	4b04      	ldr	r3, [pc, #16]	@ (100089d8 <usbd_edpt_claim+0x24>)
100089c8:	6811      	ldr	r1, [r2, #0]
100089ca:	18c0      	adds	r0, r0, r3
100089cc:	f000 fd4c 	bl	10009468 <tu_edpt_claim>
100089d0:	bd10      	pop	{r4, pc}
100089d2:	46c0      	nop			@ (mov r8, r8)
100089d4:	2000484c 	.word	0x2000484c
100089d8:	200047f8 	.word	0x200047f8

100089dc <usbd_edpt_release>:
100089dc:	000b      	movs	r3, r1
100089de:	207f      	movs	r0, #127	@ 0x7f
100089e0:	b510      	push	{r4, lr}
100089e2:	4018      	ands	r0, r3
100089e4:	09db      	lsrs	r3, r3, #7
100089e6:	3334      	adds	r3, #52	@ 0x34
100089e8:	0040      	lsls	r0, r0, #1
100089ea:	4a04      	ldr	r2, [pc, #16]	@ (100089fc <usbd_edpt_release+0x20>)
100089ec:	18c0      	adds	r0, r0, r3
100089ee:	4b04      	ldr	r3, [pc, #16]	@ (10008a00 <usbd_edpt_release+0x24>)
100089f0:	6811      	ldr	r1, [r2, #0]
100089f2:	18c0      	adds	r0, r0, r3
100089f4:	f000 fd60 	bl	100094b8 <tu_edpt_release>
100089f8:	bd10      	pop	{r4, pc}
100089fa:	46c0      	nop			@ (mov r8, r8)
100089fc:	2000484c 	.word	0x2000484c
10008a00:	200047f8 	.word	0x200047f8

10008a04 <usbd_edpt_xfer>:
10008a04:	b570      	push	{r4, r5, r6, lr}
10008a06:	247f      	movs	r4, #127	@ 0x7f
10008a08:	480f      	ldr	r0, [pc, #60]	@ (10008a48 <usbd_edpt_xfer+0x44>)
10008a0a:	400c      	ands	r4, r1
10008a0c:	0064      	lsls	r4, r4, #1
10008a0e:	1904      	adds	r4, r0, r4
10008a10:	09cd      	lsrs	r5, r1, #7
10008a12:	1964      	adds	r4, r4, r5
10008a14:	3430      	adds	r4, #48	@ 0x30
10008a16:	7920      	ldrb	r0, [r4, #4]
10008a18:	07c0      	lsls	r0, r0, #31
10008a1a:	d501      	bpl.n	10008a20 <usbd_edpt_xfer+0x1c>
10008a1c:	2000      	movs	r0, #0
10008a1e:	bd70      	pop	{r4, r5, r6, pc}
10008a20:	2601      	movs	r6, #1
10008a22:	7925      	ldrb	r5, [r4, #4]
10008a24:	4809      	ldr	r0, [pc, #36]	@ (10008a4c <usbd_edpt_xfer+0x48>)
10008a26:	4335      	orrs	r5, r6
10008a28:	7800      	ldrb	r0, [r0, #0]
10008a2a:	7125      	strb	r5, [r4, #4]
10008a2c:	f7ff fa38 	bl	10007ea0 <dcd_edpt_xfer>
10008a30:	2800      	cmp	r0, #0
10008a32:	d1f4      	bne.n	10008a1e <usbd_edpt_xfer+0x1a>
10008a34:	2201      	movs	r2, #1
10008a36:	7923      	ldrb	r3, [r4, #4]
10008a38:	4393      	bics	r3, r2
10008a3a:	7123      	strb	r3, [r4, #4]
10008a3c:	7923      	ldrb	r3, [r4, #4]
10008a3e:	3203      	adds	r2, #3
10008a40:	4393      	bics	r3, r2
10008a42:	7123      	strb	r3, [r4, #4]
10008a44:	e7ea      	b.n	10008a1c <usbd_edpt_xfer+0x18>
10008a46:	46c0      	nop			@ (mov r8, r8)
10008a48:	200047f8 	.word	0x200047f8
10008a4c:	200036f4 	.word	0x200036f4

10008a50 <tud_control_status>:
10008a50:	b570      	push	{r4, r5, r6, lr}
10008a52:	4c09      	ldr	r4, [pc, #36]	@ (10008a78 <tud_control_status+0x28>)
10008a54:	0006      	movs	r6, r0
10008a56:	2208      	movs	r2, #8
10008a58:	0020      	movs	r0, r4
10008a5a:	000d      	movs	r5, r1
10008a5c:	f7fc fe82 	bl	10005764 <__wrap___aeabi_memcpy>
10008a60:	2300      	movs	r3, #0
10008a62:	2180      	movs	r1, #128	@ 0x80
10008a64:	60e3      	str	r3, [r4, #12]
10008a66:	60a3      	str	r3, [r4, #8]
10008a68:	782b      	ldrb	r3, [r5, #0]
10008a6a:	0030      	movs	r0, r6
10008a6c:	4399      	bics	r1, r3
10008a6e:	2200      	movs	r2, #0
10008a70:	2300      	movs	r3, #0
10008a72:	f7ff ffc7 	bl	10008a04 <usbd_edpt_xfer>
10008a76:	bd70      	pop	{r4, r5, r6, pc}
10008a78:	200047d8 	.word	0x200047d8

10008a7c <tud_control_xfer>:
10008a7c:	b5f8      	push	{r3, r4, r5, r6, r7, lr}
10008a7e:	46ce      	mov	lr, r9
10008a80:	4647      	mov	r7, r8
10008a82:	4690      	mov	r8, r2
10008a84:	4e25      	ldr	r6, [pc, #148]	@ (10008b1c <tud_control_xfer+0xa0>)
10008a86:	b580      	push	{r7, lr}
10008a88:	4681      	mov	r9, r0
10008a8a:	2208      	movs	r2, #8
10008a8c:	0030      	movs	r0, r6
10008a8e:	000d      	movs	r5, r1
10008a90:	001f      	movs	r7, r3
10008a92:	f7fc fe67 	bl	10005764 <__wrap___aeabi_memcpy>
10008a96:	4643      	mov	r3, r8
10008a98:	60b3      	str	r3, [r6, #8]
10008a9a:	2300      	movs	r3, #0
10008a9c:	81f3      	strh	r3, [r6, #14]
10008a9e:	79ec      	ldrb	r4, [r5, #7]
10008aa0:	79ab      	ldrb	r3, [r5, #6]
10008aa2:	0224      	lsls	r4, r4, #8
10008aa4:	431c      	orrs	r4, r3
10008aa6:	1c23      	adds	r3, r4, #0
10008aa8:	42bc      	cmp	r4, r7
10008aaa:	d900      	bls.n	10008aae <tud_control_xfer+0x32>
10008aac:	1c3b      	adds	r3, r7, #0
10008aae:	b29f      	uxth	r7, r3
10008ab0:	81b3      	strh	r3, [r6, #12]
10008ab2:	2c00      	cmp	r4, #0
10008ab4:	d00d      	beq.n	10008ad2 <tud_control_xfer+0x56>
10008ab6:	2f00      	cmp	r7, #0
10008ab8:	d017      	beq.n	10008aea <tud_control_xfer+0x6e>
10008aba:	4642      	mov	r2, r8
10008abc:	2a00      	cmp	r2, #0
10008abe:	d02b      	beq.n	10008b18 <tud_control_xfer+0x9c>
10008ac0:	2f40      	cmp	r7, #64	@ 0x40
10008ac2:	d81b      	bhi.n	10008afc <tud_control_xfer+0x80>
10008ac4:	b29f      	uxth	r7, r3
10008ac6:	7833      	ldrb	r3, [r6, #0]
10008ac8:	2b7f      	cmp	r3, #127	@ 0x7f
10008aca:	d81c      	bhi.n	10008b06 <tud_control_xfer+0x8a>
10008acc:	2100      	movs	r1, #0
10008ace:	4a14      	ldr	r2, [pc, #80]	@ (10008b20 <tud_control_xfer+0xa4>)
10008ad0:	e00f      	b.n	10008af2 <tud_control_xfer+0x76>
10008ad2:	2180      	movs	r1, #128	@ 0x80
10008ad4:	782b      	ldrb	r3, [r5, #0]
10008ad6:	2200      	movs	r2, #0
10008ad8:	4399      	bics	r1, r3
10008ada:	4648      	mov	r0, r9
10008adc:	2300      	movs	r3, #0
10008ade:	f7ff ff91 	bl	10008a04 <usbd_edpt_xfer>
10008ae2:	bcc0      	pop	{r6, r7}
10008ae4:	46b9      	mov	r9, r7
10008ae6:	46b0      	mov	r8, r6
10008ae8:	bdf8      	pop	{r3, r4, r5, r6, r7, pc}
10008aea:	237f      	movs	r3, #127	@ 0x7f
10008aec:	2200      	movs	r2, #0
10008aee:	7831      	ldrb	r1, [r6, #0]
10008af0:	4399      	bics	r1, r3
10008af2:	003b      	movs	r3, r7
10008af4:	4648      	mov	r0, r9
10008af6:	f7ff ff85 	bl	10008a04 <usbd_edpt_xfer>
10008afa:	e7f2      	b.n	10008ae2 <tud_control_xfer+0x66>
10008afc:	2340      	movs	r3, #64	@ 0x40
10008afe:	b29f      	uxth	r7, r3
10008b00:	7833      	ldrb	r3, [r6, #0]
10008b02:	2b7f      	cmp	r3, #127	@ 0x7f
10008b04:	d9e2      	bls.n	10008acc <tud_control_xfer+0x50>
10008b06:	4c06      	ldr	r4, [pc, #24]	@ (10008b20 <tud_control_xfer+0xa4>)
10008b08:	003a      	movs	r2, r7
10008b0a:	4641      	mov	r1, r8
10008b0c:	0020      	movs	r0, r4
10008b0e:	f7fc fe29 	bl	10005764 <__wrap___aeabi_memcpy>
10008b12:	2180      	movs	r1, #128	@ 0x80
10008b14:	0022      	movs	r2, r4
10008b16:	e7ec      	b.n	10008af2 <tud_control_xfer+0x76>
10008b18:	2000      	movs	r0, #0
10008b1a:	e7e2      	b.n	10008ae2 <tud_control_xfer+0x66>
10008b1c:	200047d8 	.word	0x200047d8
10008b20:	20004798 	.word	0x20004798

10008b24 <usbd_control_reset>:
10008b24:	b510      	push	{r4, lr}
10008b26:	2214      	movs	r2, #20
10008b28:	2100      	movs	r1, #0
10008b2a:	4802      	ldr	r0, [pc, #8]	@ (10008b34 <usbd_control_reset+0x10>)
10008b2c:	f7fc fe14 	bl	10005758 <__wrap_memset>
10008b30:	bd10      	pop	{r4, pc}
10008b32:	46c0      	nop			@ (mov r8, r8)
10008b34:	200047d8 	.word	0x200047d8

10008b38 <usbd_control_set_complete_callback>:
10008b38:	4b01      	ldr	r3, [pc, #4]	@ (10008b40 <usbd_control_set_complete_callback+0x8>)
10008b3a:	6118      	str	r0, [r3, #16]
10008b3c:	4770      	bx	lr
10008b3e:	46c0      	nop			@ (mov r8, r8)
10008b40:	200047d8 	.word	0x200047d8

10008b44 <usbd_control_set_request>:
10008b44:	b510      	push	{r4, lr}
10008b46:	4c05      	ldr	r4, [pc, #20]	@ (10008b5c <usbd_control_set_request+0x18>)
10008b48:	0001      	movs	r1, r0
10008b4a:	2208      	movs	r2, #8
10008b4c:	0020      	movs	r0, r4
10008b4e:	f7fc fe09 	bl	10005764 <__wrap___aeabi_memcpy>
10008b52:	2300      	movs	r3, #0
10008b54:	60a3      	str	r3, [r4, #8]
10008b56:	60e3      	str	r3, [r4, #12]
10008b58:	bd10      	pop	{r4, pc}
10008b5a:	46c0      	nop			@ (mov r8, r8)
10008b5c:	200047d8 	.word	0x200047d8

10008b60 <usbd_control_xfer_cb>:
10008b60:	b570      	push	{r4, r5, r6, lr}
10008b62:	4c38      	ldr	r4, [pc, #224]	@ (10008c44 <usbd_control_xfer_cb+0xe4>)
10008b64:	001d      	movs	r5, r3
10008b66:	7823      	ldrb	r3, [r4, #0]
10008b68:	0006      	movs	r6, r0
10008b6a:	09da      	lsrs	r2, r3, #7
10008b6c:	09c9      	lsrs	r1, r1, #7
10008b6e:	428a      	cmp	r2, r1
10008b70:	d010      	beq.n	10008b94 <usbd_control_xfer_cb+0x34>
10008b72:	2000      	movs	r0, #0
10008b74:	2d00      	cmp	r5, #0
10008b76:	d000      	beq.n	10008b7a <usbd_control_xfer_cb+0x1a>
10008b78:	bd70      	pop	{r4, r5, r6, pc}
10008b7a:	0021      	movs	r1, r4
10008b7c:	0030      	movs	r0, r6
10008b7e:	f7ff f8f3 	bl	10007d68 <dcd_edpt0_status_complete>
10008b82:	6923      	ldr	r3, [r4, #16]
10008b84:	2b00      	cmp	r3, #0
10008b86:	d003      	beq.n	10008b90 <usbd_control_xfer_cb+0x30>
10008b88:	0022      	movs	r2, r4
10008b8a:	2103      	movs	r1, #3
10008b8c:	0030      	movs	r0, r6
10008b8e:	4798      	blx	r3
10008b90:	2001      	movs	r0, #1
10008b92:	e7f1      	b.n	10008b78 <usbd_control_xfer_cb+0x18>
10008b94:	2b7f      	cmp	r3, #127	@ 0x7f
10008b96:	d806      	bhi.n	10008ba6 <usbd_control_xfer_cb+0x46>
10008b98:	68a0      	ldr	r0, [r4, #8]
10008b9a:	2800      	cmp	r0, #0
10008b9c:	d034      	beq.n	10008c08 <usbd_control_xfer_cb+0xa8>
10008b9e:	002a      	movs	r2, r5
10008ba0:	4929      	ldr	r1, [pc, #164]	@ (10008c48 <usbd_control_xfer_cb+0xe8>)
10008ba2:	f7fc fddf 	bl	10005764 <__wrap___aeabi_memcpy>
10008ba6:	89e2      	ldrh	r2, [r4, #14]
10008ba8:	68a1      	ldr	r1, [r4, #8]
10008baa:	1952      	adds	r2, r2, r5
10008bac:	88e3      	ldrh	r3, [r4, #6]
10008bae:	b292      	uxth	r2, r2
10008bb0:	1949      	adds	r1, r1, r5
10008bb2:	81e2      	strh	r2, [r4, #14]
10008bb4:	60a1      	str	r1, [r4, #8]
10008bb6:	4293      	cmp	r3, r2
10008bb8:	d014      	beq.n	10008be4 <usbd_control_xfer_cb+0x84>
10008bba:	2d3f      	cmp	r5, #63	@ 0x3f
10008bbc:	d912      	bls.n	10008be4 <usbd_control_xfer_cb+0x84>
10008bbe:	89a3      	ldrh	r3, [r4, #12]
10008bc0:	1a98      	subs	r0, r3, r2
10008bc2:	1c05      	adds	r5, r0, #0
10008bc4:	b280      	uxth	r0, r0
10008bc6:	2840      	cmp	r0, #64	@ 0x40
10008bc8:	d82a      	bhi.n	10008c20 <usbd_control_xfer_cb+0xc0>
10008bca:	7820      	ldrb	r0, [r4, #0]
10008bcc:	b2ad      	uxth	r5, r5
10008bce:	287f      	cmp	r0, #127	@ 0x7f
10008bd0:	d828      	bhi.n	10008c24 <usbd_control_xfer_cb+0xc4>
10008bd2:	2100      	movs	r1, #0
10008bd4:	429a      	cmp	r2, r3
10008bd6:	d032      	beq.n	10008c3e <usbd_control_xfer_cb+0xde>
10008bd8:	4a1b      	ldr	r2, [pc, #108]	@ (10008c48 <usbd_control_xfer_cb+0xe8>)
10008bda:	002b      	movs	r3, r5
10008bdc:	0030      	movs	r0, r6
10008bde:	f7ff ff11 	bl	10008a04 <usbd_edpt_xfer>
10008be2:	e7c9      	b.n	10008b78 <usbd_control_xfer_cb+0x18>
10008be4:	6923      	ldr	r3, [r4, #16]
10008be6:	2b00      	cmp	r3, #0
10008be8:	d005      	beq.n	10008bf6 <usbd_control_xfer_cb+0x96>
10008bea:	0022      	movs	r2, r4
10008bec:	2102      	movs	r1, #2
10008bee:	0030      	movs	r0, r6
10008bf0:	4798      	blx	r3
10008bf2:	2800      	cmp	r0, #0
10008bf4:	d00a      	beq.n	10008c0c <usbd_control_xfer_cb+0xac>
10008bf6:	2180      	movs	r1, #128	@ 0x80
10008bf8:	7823      	ldrb	r3, [r4, #0]
10008bfa:	2200      	movs	r2, #0
10008bfc:	4399      	bics	r1, r3
10008bfe:	0030      	movs	r0, r6
10008c00:	2300      	movs	r3, #0
10008c02:	f7ff feff 	bl	10008a04 <usbd_edpt_xfer>
10008c06:	e7b7      	b.n	10008b78 <usbd_control_xfer_cb+0x18>
10008c08:	2000      	movs	r0, #0
10008c0a:	e7b5      	b.n	10008b78 <usbd_control_xfer_cb+0x18>
10008c0c:	2100      	movs	r1, #0
10008c0e:	0030      	movs	r0, r6
10008c10:	f7ff f958 	bl	10007ec4 <dcd_edpt_stall>
10008c14:	0030      	movs	r0, r6
10008c16:	2180      	movs	r1, #128	@ 0x80
10008c18:	f7ff f954 	bl	10007ec4 <dcd_edpt_stall>
10008c1c:	2001      	movs	r0, #1
10008c1e:	e7ab      	b.n	10008b78 <usbd_control_xfer_cb+0x18>
10008c20:	2540      	movs	r5, #64	@ 0x40
10008c22:	e7d2      	b.n	10008bca <usbd_control_xfer_cb+0x6a>
10008c24:	429a      	cmp	r2, r3
10008c26:	d007      	beq.n	10008c38 <usbd_control_xfer_cb+0xd8>
10008c28:	4c07      	ldr	r4, [pc, #28]	@ (10008c48 <usbd_control_xfer_cb+0xe8>)
10008c2a:	002a      	movs	r2, r5
10008c2c:	0020      	movs	r0, r4
10008c2e:	f7fc fd99 	bl	10005764 <__wrap___aeabi_memcpy>
10008c32:	2180      	movs	r1, #128	@ 0x80
10008c34:	0022      	movs	r2, r4
10008c36:	e7d0      	b.n	10008bda <usbd_control_xfer_cb+0x7a>
10008c38:	2180      	movs	r1, #128	@ 0x80
10008c3a:	2200      	movs	r2, #0
10008c3c:	e7cd      	b.n	10008bda <usbd_control_xfer_cb+0x7a>
10008c3e:	2200      	movs	r2, #0
10008c40:	e7cb      	b.n	10008bda <usbd_control_xfer_cb+0x7a>
10008c42:	46c0      	nop			@ (mov r8, r8)
10008c44:	200047d8 	.word	0x200047d8
10008c48:	20004798 	.word	0x20004798

10008c4c <_prep_out_transaction.isra.0>:
10008c4c:	b570      	push	{r4, r5, r6, lr}
10008c4e:	0004      	movs	r4, r0
10008c50:	f7ff f9be 	bl	10007fd0 <tud_mounted>
10008c54:	2800      	cmp	r0, #0
10008c56:	d100      	bne.n	10008c5a <_prep_out_transaction.isra.0+0xe>
10008c58:	bd70      	pop	{r4, r5, r6, pc}
10008c5a:	f7ff f9c1 	bl	10007fe0 <tud_suspended>
10008c5e:	2800      	cmp	r0, #0
10008c60:	d1fa      	bne.n	10008c58 <_prep_out_transaction.isra.0+0xc>
10008c62:	23c8      	movs	r3, #200	@ 0xc8
10008c64:	4363      	muls	r3, r4
10008c66:	4d12      	ldr	r5, [pc, #72]	@ (10008cb0 <_prep_out_transaction.isra.0+0x64>)
10008c68:	18ee      	adds	r6, r5, r3
10008c6a:	78f1      	ldrb	r1, [r6, #3]
10008c6c:	2900      	cmp	r1, #0
10008c6e:	d0f3      	beq.n	10008c58 <_prep_out_transaction.isra.0+0xc>
10008c70:	3310      	adds	r3, #16
10008c72:	195d      	adds	r5, r3, r5
10008c74:	0028      	movs	r0, r5
10008c76:	f000 fdf3 	bl	10009860 <tu_fifo_remaining>
10008c7a:	283f      	cmp	r0, #63	@ 0x3f
10008c7c:	d9ec      	bls.n	10008c58 <_prep_out_transaction.isra.0+0xc>
10008c7e:	2000      	movs	r0, #0
10008c80:	78f1      	ldrb	r1, [r6, #3]
10008c82:	f7ff fe97 	bl	100089b4 <usbd_edpt_claim>
10008c86:	2800      	cmp	r0, #0
10008c88:	d0e6      	beq.n	10008c58 <_prep_out_transaction.isra.0+0xc>
10008c8a:	0028      	movs	r0, r5
10008c8c:	f000 fde8 	bl	10009860 <tu_fifo_remaining>
10008c90:	78f1      	ldrb	r1, [r6, #3]
10008c92:	283f      	cmp	r0, #63	@ 0x3f
10008c94:	d907      	bls.n	10008ca6 <_prep_out_transaction.isra.0+0x5a>
10008c96:	4b07      	ldr	r3, [pc, #28]	@ (10008cb4 <_prep_out_transaction.isra.0+0x68>)
10008c98:	01e2      	lsls	r2, r4, #7
10008c9a:	18d2      	adds	r2, r2, r3
10008c9c:	2000      	movs	r0, #0
10008c9e:	2340      	movs	r3, #64	@ 0x40
10008ca0:	f7ff feb0 	bl	10008a04 <usbd_edpt_xfer>
10008ca4:	e7d8      	b.n	10008c58 <_prep_out_transaction.isra.0+0xc>
10008ca6:	2000      	movs	r0, #0
10008ca8:	f7ff fe98 	bl	100089dc <usbd_edpt_release>
10008cac:	e7d4      	b.n	10008c58 <_prep_out_transaction.isra.0+0xc>
10008cae:	46c0      	nop			@ (mov r8, r8)
10008cb0:	200046d0 	.word	0x200046d0
10008cb4:	2000464c 	.word	0x2000464c

10008cb8 <tud_cdc_n_connected>:
10008cb8:	b510      	push	{r4, lr}
10008cba:	0004      	movs	r4, r0
10008cbc:	f7ff f988 	bl	10007fd0 <tud_mounted>
10008cc0:	2800      	cmp	r0, #0
10008cc2:	d101      	bne.n	10008cc8 <tud_cdc_n_connected+0x10>
10008cc4:	2000      	movs	r0, #0
10008cc6:	bd10      	pop	{r4, pc}
10008cc8:	f7ff f98a 	bl	10007fe0 <tud_suspended>
10008ccc:	2800      	cmp	r0, #0
10008cce:	d1f9      	bne.n	10008cc4 <tud_cdc_n_connected+0xc>
10008cd0:	22c8      	movs	r2, #200	@ 0xc8
10008cd2:	4362      	muls	r2, r4
10008cd4:	4b02      	ldr	r3, [pc, #8]	@ (10008ce0 <tud_cdc_n_connected+0x28>)
10008cd6:	3001      	adds	r0, #1
10008cd8:	189b      	adds	r3, r3, r2
10008cda:	791b      	ldrb	r3, [r3, #4]
10008cdc:	4018      	ands	r0, r3
10008cde:	e7f2      	b.n	10008cc6 <tud_cdc_n_connected+0xe>
10008ce0:	200046d0 	.word	0x200046d0

10008ce4 <tud_cdc_n_available>:
10008ce4:	23c8      	movs	r3, #200	@ 0xc8
10008ce6:	b510      	push	{r4, lr}
10008ce8:	4343      	muls	r3, r0
10008cea:	4802      	ldr	r0, [pc, #8]	@ (10008cf4 <tud_cdc_n_available+0x10>)
10008cec:	1818      	adds	r0, r3, r0
10008cee:	f000 fd99 	bl	10009824 <tu_fifo_count>
10008cf2:	bd10      	pop	{r4, pc}
10008cf4:	200046e0 	.word	0x200046e0

10008cf8 <tud_cdc_n_read>:
10008cf8:	b5f8      	push	{r3, r4, r5, r6, r7, lr}
10008cfa:	24c8      	movs	r4, #200	@ 0xc8
10008cfc:	2380      	movs	r3, #128	@ 0x80
10008cfe:	4344      	muls	r4, r0
10008d00:	4f1c      	ldr	r7, [pc, #112]	@ (10008d74 <tud_cdc_n_read+0x7c>)
10008d02:	3410      	adds	r4, #16
10008d04:	0005      	movs	r5, r0
10008d06:	193c      	adds	r4, r7, r4
10008d08:	025b      	lsls	r3, r3, #9
10008d0a:	429a      	cmp	r2, r3
10008d0c:	d300      	bcc.n	10008d10 <tud_cdc_n_read+0x18>
10008d0e:	4a1a      	ldr	r2, [pc, #104]	@ (10008d78 <tud_cdc_n_read+0x80>)
10008d10:	0020      	movs	r0, r4
10008d12:	b292      	uxth	r2, r2
10008d14:	f000 fe08 	bl	10009928 <tu_fifo_read_n>
10008d18:	0006      	movs	r6, r0
10008d1a:	f7ff f959 	bl	10007fd0 <tud_mounted>
10008d1e:	2800      	cmp	r0, #0
10008d20:	d101      	bne.n	10008d26 <tud_cdc_n_read+0x2e>
10008d22:	0030      	movs	r0, r6
10008d24:	bdf8      	pop	{r3, r4, r5, r6, r7, pc}
10008d26:	f7ff f95b 	bl	10007fe0 <tud_suspended>
10008d2a:	2800      	cmp	r0, #0
10008d2c:	d1f9      	bne.n	10008d22 <tud_cdc_n_read+0x2a>
10008d2e:	23c8      	movs	r3, #200	@ 0xc8
10008d30:	436b      	muls	r3, r5
10008d32:	18ff      	adds	r7, r7, r3
10008d34:	78fb      	ldrb	r3, [r7, #3]
10008d36:	2b00      	cmp	r3, #0
10008d38:	d0f3      	beq.n	10008d22 <tud_cdc_n_read+0x2a>
10008d3a:	0020      	movs	r0, r4
10008d3c:	f000 fd90 	bl	10009860 <tu_fifo_remaining>
10008d40:	283f      	cmp	r0, #63	@ 0x3f
10008d42:	d9ee      	bls.n	10008d22 <tud_cdc_n_read+0x2a>
10008d44:	2000      	movs	r0, #0
10008d46:	78f9      	ldrb	r1, [r7, #3]
10008d48:	f7ff fe34 	bl	100089b4 <usbd_edpt_claim>
10008d4c:	2800      	cmp	r0, #0
10008d4e:	d0e8      	beq.n	10008d22 <tud_cdc_n_read+0x2a>
10008d50:	0020      	movs	r0, r4
10008d52:	f000 fd85 	bl	10009860 <tu_fifo_remaining>
10008d56:	78f9      	ldrb	r1, [r7, #3]
10008d58:	283f      	cmp	r0, #63	@ 0x3f
10008d5a:	d907      	bls.n	10008d6c <tud_cdc_n_read+0x74>
10008d5c:	4b07      	ldr	r3, [pc, #28]	@ (10008d7c <tud_cdc_n_read+0x84>)
10008d5e:	01ea      	lsls	r2, r5, #7
10008d60:	18d2      	adds	r2, r2, r3
10008d62:	2000      	movs	r0, #0
10008d64:	2340      	movs	r3, #64	@ 0x40
10008d66:	f7ff fe4d 	bl	10008a04 <usbd_edpt_xfer>
10008d6a:	e7da      	b.n	10008d22 <tud_cdc_n_read+0x2a>
10008d6c:	2000      	movs	r0, #0
10008d6e:	f7ff fe35 	bl	100089dc <usbd_edpt_release>
10008d72:	e7d6      	b.n	10008d22 <tud_cdc_n_read+0x2a>
10008d74:	200046d0 	.word	0x200046d0
10008d78:	0000ffff 	.word	0x0000ffff
10008d7c:	2000464c 	.word	0x2000464c

10008d80 <tud_cdc_n_write_flush>:
10008d80:	b5f8      	push	{r3, r4, r5, r6, r7, lr}
10008d82:	0004      	movs	r4, r0
10008d84:	f7ff f924 	bl	10007fd0 <tud_mounted>
10008d88:	2800      	cmp	r0, #0
10008d8a:	d101      	bne.n	10008d90 <tud_cdc_n_write_flush+0x10>
10008d8c:	2000      	movs	r0, #0
10008d8e:	bdf8      	pop	{r3, r4, r5, r6, r7, pc}
10008d90:	f7ff f926 	bl	10007fe0 <tud_suspended>
10008d94:	2800      	cmp	r0, #0
10008d96:	d1f9      	bne.n	10008d8c <tud_cdc_n_write_flush+0xc>
10008d98:	25c8      	movs	r5, #200	@ 0xc8
10008d9a:	4365      	muls	r5, r4
10008d9c:	002e      	movs	r6, r5
10008d9e:	4f13      	ldr	r7, [pc, #76]	@ (10008dec <tud_cdc_n_write_flush+0x6c>)
10008da0:	3624      	adds	r6, #36	@ 0x24
10008da2:	19f6      	adds	r6, r6, r7
10008da4:	0030      	movs	r0, r6
10008da6:	f000 fd3d 	bl	10009824 <tu_fifo_count>
10008daa:	2800      	cmp	r0, #0
10008dac:	d0ee      	beq.n	10008d8c <tud_cdc_n_write_flush+0xc>
10008dae:	197f      	adds	r7, r7, r5
10008db0:	2000      	movs	r0, #0
10008db2:	78b9      	ldrb	r1, [r7, #2]
10008db4:	f7ff fdfe 	bl	100089b4 <usbd_edpt_claim>
10008db8:	2800      	cmp	r0, #0
10008dba:	d0e7      	beq.n	10008d8c <tud_cdc_n_write_flush+0xc>
10008dbc:	4d0c      	ldr	r5, [pc, #48]	@ (10008df0 <tud_cdc_n_write_flush+0x70>)
10008dbe:	01e4      	lsls	r4, r4, #7
10008dc0:	1965      	adds	r5, r4, r5
10008dc2:	0029      	movs	r1, r5
10008dc4:	2240      	movs	r2, #64	@ 0x40
10008dc6:	0030      	movs	r0, r6
10008dc8:	f000 fdae 	bl	10009928 <tu_fifo_read_n>
10008dcc:	78b9      	ldrb	r1, [r7, #2]
10008dce:	1e04      	subs	r4, r0, #0
10008dd0:	d008      	beq.n	10008de4 <tud_cdc_n_write_flush+0x64>
10008dd2:	0003      	movs	r3, r0
10008dd4:	002a      	movs	r2, r5
10008dd6:	2000      	movs	r0, #0
10008dd8:	f7ff fe14 	bl	10008a04 <usbd_edpt_xfer>
10008ddc:	2800      	cmp	r0, #0
10008dde:	d0d5      	beq.n	10008d8c <tud_cdc_n_write_flush+0xc>
10008de0:	0020      	movs	r0, r4
10008de2:	e7d4      	b.n	10008d8e <tud_cdc_n_write_flush+0xe>
10008de4:	2000      	movs	r0, #0
10008de6:	f7ff fdf9 	bl	100089dc <usbd_edpt_release>
10008dea:	e7cf      	b.n	10008d8c <tud_cdc_n_write_flush+0xc>
10008dec:	200046d0 	.word	0x200046d0
10008df0:	2000468c 	.word	0x2000468c

10008df4 <tud_cdc_n_write>:
10008df4:	b570      	push	{r4, r5, r6, lr}
10008df6:	24c8      	movs	r4, #200	@ 0xc8
10008df8:	4344      	muls	r4, r0
10008dfa:	4b0c      	ldr	r3, [pc, #48]	@ (10008e2c <tud_cdc_n_write+0x38>)
10008dfc:	0005      	movs	r5, r0
10008dfe:	18e4      	adds	r4, r4, r3
10008e00:	2380      	movs	r3, #128	@ 0x80
10008e02:	025b      	lsls	r3, r3, #9
10008e04:	429a      	cmp	r2, r3
10008e06:	d300      	bcc.n	10008e0a <tud_cdc_n_write+0x16>
10008e08:	4a09      	ldr	r2, [pc, #36]	@ (10008e30 <tud_cdc_n_write+0x3c>)
10008e0a:	0020      	movs	r0, r4
10008e0c:	b292      	uxth	r2, r2
10008e0e:	f000 fe51 	bl	10009ab4 <tu_fifo_write_n>
10008e12:	0006      	movs	r6, r0
10008e14:	0020      	movs	r0, r4
10008e16:	f000 fd05 	bl	10009824 <tu_fifo_count>
10008e1a:	283f      	cmp	r0, #63	@ 0x3f
10008e1c:	d801      	bhi.n	10008e22 <tud_cdc_n_write+0x2e>
10008e1e:	0030      	movs	r0, r6
10008e20:	bd70      	pop	{r4, r5, r6, pc}
10008e22:	0028      	movs	r0, r5
10008e24:	f7ff ffac 	bl	10008d80 <tud_cdc_n_write_flush>
10008e28:	e7f9      	b.n	10008e1e <tud_cdc_n_write+0x2a>
10008e2a:	46c0      	nop			@ (mov r8, r8)
10008e2c:	200046f4 	.word	0x200046f4
10008e30:	0000ffff 	.word	0x0000ffff

10008e34 <tud_cdc_n_write_available>:
10008e34:	23c8      	movs	r3, #200	@ 0xc8
10008e36:	b510      	push	{r4, lr}
10008e38:	4343      	muls	r3, r0
10008e3a:	4802      	ldr	r0, [pc, #8]	@ (10008e44 <tud_cdc_n_write_available+0x10>)
10008e3c:	1818      	adds	r0, r3, r0
10008e3e:	f000 fd0f 	bl	10009860 <tu_fifo_remaining>
10008e42:	bd10      	pop	{r4, pc}
10008e44:	200046f4 	.word	0x200046f4

10008e48 <cdcd_init>:
10008e48:	b5f0      	push	{r4, r5, r6, r7, lr}
10008e4a:	2500      	movs	r5, #0
10008e4c:	4c18      	ldr	r4, [pc, #96]	@ (10008eb0 <cdcd_init+0x68>)
10008e4e:	b083      	sub	sp, #12
10008e50:	22c8      	movs	r2, #200	@ 0xc8
10008e52:	2100      	movs	r1, #0
10008e54:	0020      	movs	r0, r4
10008e56:	f7fc fc7f 	bl	10005758 <__wrap_memset>
10008e5a:	4b16      	ldr	r3, [pc, #88]	@ (10008eb4 <cdcd_init+0x6c>)
10008e5c:	0021      	movs	r1, r4
10008e5e:	701d      	strb	r5, [r3, #0]
10008e60:	23ff      	movs	r3, #255	@ 0xff
10008e62:	7163      	strb	r3, [r4, #5]
10008e64:	23e1      	movs	r3, #225	@ 0xe1
10008e66:	025b      	lsls	r3, r3, #9
10008e68:	60a3      	str	r3, [r4, #8]
10008e6a:	0020      	movs	r0, r4
10008e6c:	2308      	movs	r3, #8
10008e6e:	2240      	movs	r2, #64	@ 0x40
10008e70:	73a3      	strb	r3, [r4, #14]
10008e72:	3138      	adds	r1, #56	@ 0x38
10008e74:	9500      	str	r5, [sp, #0]
10008e76:	3b07      	subs	r3, #7
10008e78:	3010      	adds	r0, #16
10008e7a:	f000 fc9d 	bl	100097b8 <tu_fifo_config>
10008e7e:	0027      	movs	r7, r4
10008e80:	2301      	movs	r3, #1
10008e82:	0021      	movs	r1, r4
10008e84:	0020      	movs	r0, r4
10008e86:	0026      	movs	r6, r4
10008e88:	2240      	movs	r2, #64	@ 0x40
10008e8a:	3178      	adds	r1, #120	@ 0x78
10008e8c:	9300      	str	r3, [sp, #0]
10008e8e:	37b8      	adds	r7, #184	@ 0xb8
10008e90:	3024      	adds	r0, #36	@ 0x24
10008e92:	f000 fc91 	bl	100097b8 <tu_fifo_config>
10008e96:	36c0      	adds	r6, #192	@ 0xc0
10008e98:	0038      	movs	r0, r7
10008e9a:	f7fa fe9f 	bl	10003bdc <mutex_init>
10008e9e:	0030      	movs	r0, r6
10008ea0:	f7fa fe9c 	bl	10003bdc <mutex_init>
10008ea4:	61e5      	str	r5, [r4, #28]
10008ea6:	6227      	str	r7, [r4, #32]
10008ea8:	6326      	str	r6, [r4, #48]	@ 0x30
10008eaa:	6365      	str	r5, [r4, #52]	@ 0x34
10008eac:	b003      	add	sp, #12
10008eae:	bdf0      	pop	{r4, r5, r6, r7, pc}
10008eb0:	200046d0 	.word	0x200046d0
10008eb4:	200046cc 	.word	0x200046cc

10008eb8 <cdcd_deinit>:
10008eb8:	4a0a      	ldr	r2, [pc, #40]	@ (10008ee4 <cdcd_deinit+0x2c>)
10008eba:	6b11      	ldr	r1, [r2, #48]	@ 0x30
10008ebc:	6a13      	ldr	r3, [r2, #32]
10008ebe:	2900      	cmp	r1, #0
10008ec0:	d00c      	beq.n	10008edc <cdcd_deinit+0x24>
10008ec2:	2b00      	cmp	r3, #0
10008ec4:	d007      	beq.n	10008ed6 <cdcd_deinit+0x1e>
10008ec6:	2300      	movs	r3, #0
10008ec8:	61d3      	str	r3, [r2, #28]
10008eca:	6353      	str	r3, [r2, #52]	@ 0x34
10008ecc:	6313      	str	r3, [r2, #48]	@ 0x30
10008ece:	2300      	movs	r3, #0
10008ed0:	6213      	str	r3, [r2, #32]
10008ed2:	2001      	movs	r0, #1
10008ed4:	4770      	bx	lr
10008ed6:	6353      	str	r3, [r2, #52]	@ 0x34
10008ed8:	6313      	str	r3, [r2, #48]	@ 0x30
10008eda:	e7fa      	b.n	10008ed2 <cdcd_deinit+0x1a>
10008edc:	2b00      	cmp	r3, #0
10008ede:	d0f8      	beq.n	10008ed2 <cdcd_deinit+0x1a>
10008ee0:	61d1      	str	r1, [r2, #28]
10008ee2:	e7f4      	b.n	10008ece <cdcd_deinit+0x16>
10008ee4:	200046d0 	.word	0x200046d0

10008ee8 <cdcd_reset>:
10008ee8:	b570      	push	{r4, r5, r6, lr}
10008eea:	4c0f      	ldr	r4, [pc, #60]	@ (10008f28 <cdcd_reset+0x40>)
10008eec:	2205      	movs	r2, #5
10008eee:	2100      	movs	r1, #0
10008ef0:	0020      	movs	r0, r4
10008ef2:	f7fc fc31 	bl	10005758 <__wrap_memset>
10008ef6:	4d0d      	ldr	r5, [pc, #52]	@ (10008f2c <cdcd_reset+0x44>)
10008ef8:	782b      	ldrb	r3, [r5, #0]
10008efa:	07da      	lsls	r2, r3, #31
10008efc:	d507      	bpl.n	10008f0e <cdcd_reset+0x26>
10008efe:	4c0c      	ldr	r4, [pc, #48]	@ (10008f30 <cdcd_reset+0x48>)
10008f00:	079b      	lsls	r3, r3, #30
10008f02:	d50c      	bpl.n	10008f1e <cdcd_reset+0x36>
10008f04:	2101      	movs	r1, #1
10008f06:	0020      	movs	r0, r4
10008f08:	f000 feb0 	bl	10009c6c <tu_fifo_set_overwritable>
10008f0c:	bd70      	pop	{r4, r5, r6, pc}
10008f0e:	0020      	movs	r0, r4
10008f10:	3010      	adds	r0, #16
10008f12:	f000 fe8b 	bl	10009c2c <tu_fifo_clear>
10008f16:	782b      	ldrb	r3, [r5, #0]
10008f18:	4c05      	ldr	r4, [pc, #20]	@ (10008f30 <cdcd_reset+0x48>)
10008f1a:	079b      	lsls	r3, r3, #30
10008f1c:	d4f2      	bmi.n	10008f04 <cdcd_reset+0x1c>
10008f1e:	0020      	movs	r0, r4
10008f20:	f000 fe84 	bl	10009c2c <tu_fifo_clear>
10008f24:	e7ee      	b.n	10008f04 <cdcd_reset+0x1c>
10008f26:	46c0      	nop			@ (mov r8, r8)
10008f28:	200046d0 	.word	0x200046d0
10008f2c:	200046cc 	.word	0x200046cc
10008f30:	200046f4 	.word	0x200046f4

10008f34 <cdcd_open>:
10008f34:	b5f0      	push	{r4, r5, r6, r7, lr}
10008f36:	794b      	ldrb	r3, [r1, #5]
10008f38:	0006      	movs	r6, r0
10008f3a:	b083      	sub	sp, #12
10008f3c:	2b02      	cmp	r3, #2
10008f3e:	d102      	bne.n	10008f46 <cdcd_open+0x12>
10008f40:	798b      	ldrb	r3, [r1, #6]
10008f42:	2b02      	cmp	r3, #2
10008f44:	d003      	beq.n	10008f4e <cdcd_open+0x1a>
10008f46:	2500      	movs	r5, #0
10008f48:	0028      	movs	r0, r5
10008f4a:	b003      	add	sp, #12
10008f4c:	bdf0      	pop	{r4, r5, r6, r7, pc}
10008f4e:	4f20      	ldr	r7, [pc, #128]	@ (10008fd0 <cdcd_open+0x9c>)
10008f50:	78bb      	ldrb	r3, [r7, #2]
10008f52:	2b00      	cmp	r3, #0
10008f54:	d1f7      	bne.n	10008f46 <cdcd_open+0x12>
10008f56:	788b      	ldrb	r3, [r1, #2]
10008f58:	2509      	movs	r5, #9
10008f5a:	703b      	strb	r3, [r7, #0]
10008f5c:	780c      	ldrb	r4, [r1, #0]
10008f5e:	190c      	adds	r4, r1, r4
10008f60:	7863      	ldrb	r3, [r4, #1]
10008f62:	2b24      	cmp	r3, #36	@ 0x24
10008f64:	d007      	beq.n	10008f76 <cdcd_open+0x42>
10008f66:	e00c      	b.n	10008f82 <cdcd_open+0x4e>
10008f68:	7823      	ldrb	r3, [r4, #0]
10008f6a:	18e4      	adds	r4, r4, r3
10008f6c:	195d      	adds	r5, r3, r5
10008f6e:	7863      	ldrb	r3, [r4, #1]
10008f70:	b2ad      	uxth	r5, r5
10008f72:	2b24      	cmp	r3, #36	@ 0x24
10008f74:	d105      	bne.n	10008f82 <cdcd_open+0x4e>
10008f76:	4295      	cmp	r5, r2
10008f78:	d9f6      	bls.n	10008f68 <cdcd_open+0x34>
10008f7a:	2000      	movs	r0, #0
10008f7c:	f7ff fe66 	bl	10008c4c <_prep_out_transaction.isra.0>
10008f80:	e7e2      	b.n	10008f48 <cdcd_open+0x14>
10008f82:	001a      	movs	r2, r3
10008f84:	2b05      	cmp	r3, #5
10008f86:	d015      	beq.n	10008fb4 <cdcd_open+0x80>
10008f88:	2a04      	cmp	r2, #4
10008f8a:	d1f6      	bne.n	10008f7a <cdcd_open+0x46>
10008f8c:	7963      	ldrb	r3, [r4, #5]
10008f8e:	2b0a      	cmp	r3, #10
10008f90:	d1f3      	bne.n	10008f7a <cdcd_open+0x46>
10008f92:	4b10      	ldr	r3, [pc, #64]	@ (10008fd4 <cdcd_open+0xa0>)
10008f94:	7827      	ldrb	r7, [r4, #0]
10008f96:	9301      	str	r3, [sp, #4]
10008f98:	3301      	adds	r3, #1
10008f9a:	9300      	str	r3, [sp, #0]
10008f9c:	0030      	movs	r0, r6
10008f9e:	2302      	movs	r3, #2
10008fa0:	19e1      	adds	r1, r4, r7
10008fa2:	3a02      	subs	r2, #2
10008fa4:	f7ff fc9e 	bl	100088e4 <usbd_open_edpt_pair>
10008fa8:	2800      	cmp	r0, #0
10008faa:	d0cc      	beq.n	10008f46 <cdcd_open+0x12>
10008fac:	350e      	adds	r5, #14
10008fae:	19ed      	adds	r5, r5, r7
10008fb0:	b2ad      	uxth	r5, r5
10008fb2:	e7e2      	b.n	10008f7a <cdcd_open+0x46>
10008fb4:	0021      	movs	r1, r4
10008fb6:	0030      	movs	r0, r6
10008fb8:	f7ff fce2 	bl	10008980 <usbd_edpt_open>
10008fbc:	2800      	cmp	r0, #0
10008fbe:	d0c2      	beq.n	10008f46 <cdcd_open+0x12>
10008fc0:	78a3      	ldrb	r3, [r4, #2]
10008fc2:	707b      	strb	r3, [r7, #1]
10008fc4:	7823      	ldrb	r3, [r4, #0]
10008fc6:	195d      	adds	r5, r3, r5
10008fc8:	18e4      	adds	r4, r4, r3
10008fca:	7862      	ldrb	r2, [r4, #1]
10008fcc:	b2ad      	uxth	r5, r5
10008fce:	e7db      	b.n	10008f88 <cdcd_open+0x54>
10008fd0:	200046d0 	.word	0x200046d0
10008fd4:	200046d2 	.word	0x200046d2

10008fd8 <cdcd_control_xfer_cb>:
10008fd8:	b5f8      	push	{r3, r4, r5, r6, r7, lr}
10008fda:	2360      	movs	r3, #96	@ 0x60
10008fdc:	0014      	movs	r4, r2
10008fde:	7812      	ldrb	r2, [r2, #0]
10008fe0:	0005      	movs	r5, r0
10008fe2:	4013      	ands	r3, r2
10008fe4:	2000      	movs	r0, #0
10008fe6:	2b20      	cmp	r3, #32
10008fe8:	d107      	bne.n	10008ffa <cdcd_control_xfer_cb+0x22>
10008fea:	4a30      	ldr	r2, [pc, #192]	@ (100090ac <cdcd_control_xfer_cb+0xd4>)
10008fec:	7963      	ldrb	r3, [r4, #5]
10008fee:	7927      	ldrb	r7, [r4, #4]
10008ff0:	7816      	ldrb	r6, [r2, #0]
10008ff2:	021b      	lsls	r3, r3, #8
10008ff4:	433b      	orrs	r3, r7
10008ff6:	429e      	cmp	r6, r3
10008ff8:	d000      	beq.n	10008ffc <cdcd_control_xfer_cb+0x24>
10008ffa:	bdf8      	pop	{r3, r4, r5, r6, r7, pc}
10008ffc:	7863      	ldrb	r3, [r4, #1]
10008ffe:	2b22      	cmp	r3, #34	@ 0x22
10009000:	d01a      	beq.n	10009038 <cdcd_control_xfer_cb+0x60>
10009002:	d807      	bhi.n	10009014 <cdcd_control_xfer_cb+0x3c>
10009004:	2b20      	cmp	r3, #32
10009006:	d034      	beq.n	10009072 <cdcd_control_xfer_cb+0x9a>
10009008:	2b21      	cmp	r3, #33	@ 0x21
1000900a:	d1f6      	bne.n	10008ffa <cdcd_control_xfer_cb+0x22>
1000900c:	2901      	cmp	r1, #1
1000900e:	d03e      	beq.n	1000908e <cdcd_control_xfer_cb+0xb6>
10009010:	2001      	movs	r0, #1
10009012:	e7f2      	b.n	10008ffa <cdcd_control_xfer_cb+0x22>
10009014:	2b23      	cmp	r3, #35	@ 0x23
10009016:	d1f0      	bne.n	10008ffa <cdcd_control_xfer_cb+0x22>
10009018:	2901      	cmp	r1, #1
1000901a:	d040      	beq.n	1000909e <cdcd_control_xfer_cb+0xc6>
1000901c:	2903      	cmp	r1, #3
1000901e:	d1f7      	bne.n	10009010 <cdcd_control_xfer_cb+0x38>
10009020:	4b23      	ldr	r3, [pc, #140]	@ (100090b0 <cdcd_control_xfer_cb+0xd8>)
10009022:	2b00      	cmp	r3, #0
10009024:	d0f4      	beq.n	10009010 <cdcd_control_xfer_cb+0x38>
10009026:	78e1      	ldrb	r1, [r4, #3]
10009028:	78a3      	ldrb	r3, [r4, #2]
1000902a:	0209      	lsls	r1, r1, #8
1000902c:	2000      	movs	r0, #0
1000902e:	4319      	orrs	r1, r3
10009030:	e000      	b.n	10009034 <cdcd_control_xfer_cb+0x5c>
10009032:	bf00      	nop
10009034:	2001      	movs	r0, #1
10009036:	e7e0      	b.n	10008ffa <cdcd_control_xfer_cb+0x22>
10009038:	2901      	cmp	r1, #1
1000903a:	d030      	beq.n	1000909e <cdcd_control_xfer_cb+0xc6>
1000903c:	2903      	cmp	r1, #3
1000903e:	d1e7      	bne.n	10009010 <cdcd_control_xfer_cb+0x38>
10009040:	2501      	movs	r5, #1
10009042:	002e      	movs	r6, r5
10009044:	78a3      	ldrb	r3, [r4, #2]
10009046:	78e4      	ldrb	r4, [r4, #3]
10009048:	3902      	subs	r1, #2
1000904a:	0224      	lsls	r4, r4, #8
1000904c:	431c      	orrs	r4, r3
1000904e:	7114      	strb	r4, [r2, #4]
10009050:	4026      	ands	r6, r4
10009052:	3224      	adds	r2, #36	@ 0x24
10009054:	0010      	movs	r0, r2
10009056:	4071      	eors	r1, r6
10009058:	f000 fe08 	bl	10009c6c <tu_fifo_set_overwritable>
1000905c:	4b15      	ldr	r3, [pc, #84]	@ (100090b4 <cdcd_control_xfer_cb+0xdc>)
1000905e:	2b00      	cmp	r3, #0
10009060:	d0d6      	beq.n	10009010 <cdcd_control_xfer_cb+0x38>
10009062:	0862      	lsrs	r2, r4, #1
10009064:	2000      	movs	r0, #0
10009066:	0031      	movs	r1, r6
10009068:	402a      	ands	r2, r5
1000906a:	e000      	b.n	1000906e <cdcd_control_xfer_cb+0x96>
1000906c:	bf00      	nop
1000906e:	2001      	movs	r0, #1
10009070:	e7c3      	b.n	10008ffa <cdcd_control_xfer_cb+0x22>
10009072:	2901      	cmp	r1, #1
10009074:	d00b      	beq.n	1000908e <cdcd_control_xfer_cb+0xb6>
10009076:	2903      	cmp	r1, #3
10009078:	d1ca      	bne.n	10009010 <cdcd_control_xfer_cb+0x38>
1000907a:	4b0f      	ldr	r3, [pc, #60]	@ (100090b8 <cdcd_control_xfer_cb+0xe0>)
1000907c:	2b00      	cmp	r3, #0
1000907e:	d0c7      	beq.n	10009010 <cdcd_control_xfer_cb+0x38>
10009080:	3208      	adds	r2, #8
10009082:	2000      	movs	r0, #0
10009084:	0011      	movs	r1, r2
10009086:	f7fe faad 	bl	100075e4 <tud_cdc_line_coding_cb>
1000908a:	2001      	movs	r0, #1
1000908c:	e7b5      	b.n	10008ffa <cdcd_control_xfer_cb+0x22>
1000908e:	2307      	movs	r3, #7
10009090:	0021      	movs	r1, r4
10009092:	0028      	movs	r0, r5
10009094:	4a09      	ldr	r2, [pc, #36]	@ (100090bc <cdcd_control_xfer_cb+0xe4>)
10009096:	f7ff fcf1 	bl	10008a7c <tud_control_xfer>
1000909a:	2001      	movs	r0, #1
1000909c:	e7ad      	b.n	10008ffa <cdcd_control_xfer_cb+0x22>
1000909e:	0021      	movs	r1, r4
100090a0:	0028      	movs	r0, r5
100090a2:	f7ff fcd5 	bl	10008a50 <tud_control_status>
100090a6:	2001      	movs	r0, #1
100090a8:	e7a7      	b.n	10008ffa <cdcd_control_xfer_cb+0x22>
100090aa:	46c0      	nop			@ (mov r8, r8)
100090ac:	200046d0 	.word	0x200046d0
	...
100090b8:	100075e5 	.word	0x100075e5
100090bc:	200046d8 	.word	0x200046d8

100090c0 <cdcd_xfer_cb>:
100090c0:	b5f0      	push	{r4, r5, r6, r7, lr}
100090c2:	464f      	mov	r7, r9
100090c4:	4646      	mov	r6, r8
100090c6:	46d6      	mov	lr, sl
100090c8:	b5c0      	push	{r6, r7, lr}
100090ca:	4d36      	ldr	r5, [pc, #216]	@ (100091a4 <cdcd_xfer_cb+0xe4>)
100090cc:	4680      	mov	r8, r0
100090ce:	78ea      	ldrb	r2, [r5, #3]
100090d0:	000c      	movs	r4, r1
100090d2:	001f      	movs	r7, r3
100090d4:	428a      	cmp	r2, r1
100090d6:	d03c      	beq.n	10009152 <cdcd_xfer_cb+0x92>
100090d8:	78ab      	ldrb	r3, [r5, #2]
100090da:	428b      	cmp	r3, r1
100090dc:	d010      	beq.n	10009100 <cdcd_xfer_cb+0x40>
100090de:	2000      	movs	r0, #0
100090e0:	bce0      	pop	{r5, r6, r7}
100090e2:	46ba      	mov	sl, r7
100090e4:	46b1      	mov	r9, r6
100090e6:	46a8      	mov	r8, r5
100090e8:	bdf0      	pop	{r4, r5, r6, r7, pc}
100090ea:	4b2f      	ldr	r3, [pc, #188]	@ (100091a8 <cdcd_xfer_cb+0xe8>)
100090ec:	2b00      	cmp	r3, #0
100090ee:	d004      	beq.n	100090fa <cdcd_xfer_cb+0x3a>
100090f0:	482e      	ldr	r0, [pc, #184]	@ (100091ac <cdcd_xfer_cb+0xec>)
100090f2:	f000 fbad 	bl	10009850 <tu_fifo_empty>
100090f6:	2800      	cmp	r0, #0
100090f8:	d051      	beq.n	1000919e <cdcd_xfer_cb+0xde>
100090fa:	2000      	movs	r0, #0
100090fc:	f7ff fda6 	bl	10008c4c <_prep_out_transaction.isra.0>
10009100:	78ab      	ldrb	r3, [r5, #2]
10009102:	42a3      	cmp	r3, r4
10009104:	d001      	beq.n	1000910a <cdcd_xfer_cb+0x4a>
10009106:	2001      	movs	r0, #1
10009108:	e7ea      	b.n	100090e0 <cdcd_xfer_cb+0x20>
1000910a:	4b29      	ldr	r3, [pc, #164]	@ (100091b0 <cdcd_xfer_cb+0xf0>)
1000910c:	2b00      	cmp	r3, #0
1000910e:	d002      	beq.n	10009116 <cdcd_xfer_cb+0x56>
10009110:	2000      	movs	r0, #0
10009112:	e000      	b.n	10009116 <cdcd_xfer_cb+0x56>
10009114:	bf00      	nop
10009116:	2000      	movs	r0, #0
10009118:	f7ff fe32 	bl	10008d80 <tud_cdc_n_write_flush>
1000911c:	2800      	cmp	r0, #0
1000911e:	d1f2      	bne.n	10009106 <cdcd_xfer_cb+0x46>
10009120:	4c24      	ldr	r4, [pc, #144]	@ (100091b4 <cdcd_xfer_cb+0xf4>)
10009122:	0020      	movs	r0, r4
10009124:	f000 fb7e 	bl	10009824 <tu_fifo_count>
10009128:	2800      	cmp	r0, #0
1000912a:	d1ec      	bne.n	10009106 <cdcd_xfer_cb+0x46>
1000912c:	2f00      	cmp	r7, #0
1000912e:	d0ea      	beq.n	10009106 <cdcd_xfer_cb+0x46>
10009130:	06bf      	lsls	r7, r7, #26
10009132:	d1e8      	bne.n	10009106 <cdcd_xfer_cb+0x46>
10009134:	3c24      	subs	r4, #36	@ 0x24
10009136:	4640      	mov	r0, r8
10009138:	78a1      	ldrb	r1, [r4, #2]
1000913a:	f7ff fc3b 	bl	100089b4 <usbd_edpt_claim>
1000913e:	2800      	cmp	r0, #0
10009140:	d0e1      	beq.n	10009106 <cdcd_xfer_cb+0x46>
10009142:	2300      	movs	r3, #0
10009144:	2200      	movs	r2, #0
10009146:	4640      	mov	r0, r8
10009148:	78a1      	ldrb	r1, [r4, #2]
1000914a:	f7ff fc5b 	bl	10008a04 <usbd_edpt_xfer>
1000914e:	2001      	movs	r0, #1
10009150:	e7c6      	b.n	100090e0 <cdcd_xfer_cb+0x20>
10009152:	b29a      	uxth	r2, r3
10009154:	2310      	movs	r3, #16
10009156:	469a      	mov	sl, r3
10009158:	4e17      	ldr	r6, [pc, #92]	@ (100091b8 <cdcd_xfer_cb+0xf8>)
1000915a:	44aa      	add	sl, r5
1000915c:	0031      	movs	r1, r6
1000915e:	4650      	mov	r0, sl
10009160:	f000 fca8 	bl	10009ab4 <tu_fifo_write_n>
10009164:	4b15      	ldr	r3, [pc, #84]	@ (100091bc <cdcd_xfer_cb+0xfc>)
10009166:	2b00      	cmp	r3, #0
10009168:	d0bf      	beq.n	100090ea <cdcd_xfer_cb+0x2a>
1000916a:	796b      	ldrb	r3, [r5, #5]
1000916c:	2bff      	cmp	r3, #255	@ 0xff
1000916e:	d0bc      	beq.n	100090ea <cdcd_xfer_cb+0x2a>
10009170:	2f00      	cmp	r7, #0
10009172:	d0ba      	beq.n	100090ea <cdcd_xfer_cb+0x2a>
10009174:	19f2      	adds	r2, r6, r7
10009176:	4691      	mov	r9, r2
10009178:	e003      	b.n	10009182 <cdcd_xfer_cb+0xc2>
1000917a:	3601      	adds	r6, #1
1000917c:	454e      	cmp	r6, r9
1000917e:	d0b4      	beq.n	100090ea <cdcd_xfer_cb+0x2a>
10009180:	796b      	ldrb	r3, [r5, #5]
10009182:	7832      	ldrb	r2, [r6, #0]
10009184:	429a      	cmp	r2, r3
10009186:	d1f8      	bne.n	1000917a <cdcd_xfer_cb+0xba>
10009188:	4650      	mov	r0, sl
1000918a:	f000 fb61 	bl	10009850 <tu_fifo_empty>
1000918e:	2800      	cmp	r0, #0
10009190:	d1f3      	bne.n	1000917a <cdcd_xfer_cb+0xba>
10009192:	4653      	mov	r3, sl
10009194:	3b10      	subs	r3, #16
10009196:	7959      	ldrb	r1, [r3, #5]
10009198:	e000      	b.n	1000919c <cdcd_xfer_cb+0xdc>
1000919a:	bf00      	nop
1000919c:	e7ed      	b.n	1000917a <cdcd_xfer_cb+0xba>
1000919e:	e000      	b.n	100091a2 <cdcd_xfer_cb+0xe2>
100091a0:	bf00      	nop
100091a2:	e7aa      	b.n	100090fa <cdcd_xfer_cb+0x3a>
100091a4:	200046d0 	.word	0x200046d0
100091a8:	00000000 	.word	0x00000000
100091ac:	200046e0 	.word	0x200046e0
100091b0:	00000000 	.word	0x00000000
100091b4:	200046f4 	.word	0x200046f4
100091b8:	2000464c 	.word	0x2000464c
100091bc:	00000000 	.word	0x00000000

100091c0 <vendord_init>:
100091c0:	2293      	movs	r2, #147	@ 0x93
100091c2:	b5f0      	push	{r4, r5, r6, r7, lr}
100091c4:	4c13      	ldr	r4, [pc, #76]	@ (10009214 <vendord_init+0x54>)
100091c6:	b085      	sub	sp, #20
100091c8:	2100      	movs	r1, #0
100091ca:	0020      	movs	r0, r4
100091cc:	0092      	lsls	r2, r2, #2
100091ce:	f7fc fac3 	bl	10005758 <__wrap_memset>
100091d2:	0023      	movs	r3, r4
100091d4:	0020      	movs	r0, r4
100091d6:	2680      	movs	r6, #128	@ 0x80
100091d8:	2740      	movs	r7, #64	@ 0x40
100091da:	4d0f      	ldr	r5, [pc, #60]	@ (10009218 <vendord_init+0x58>)
100091dc:	334d      	adds	r3, #77	@ 0x4d
100091de:	0076      	lsls	r6, r6, #1
100091e0:	33ff      	adds	r3, #255	@ 0xff
100091e2:	3029      	adds	r0, #41	@ 0x29
100091e4:	9502      	str	r5, [sp, #8]
100091e6:	9300      	str	r3, [sp, #0]
100091e8:	2200      	movs	r2, #0
100091ea:	2300      	movs	r3, #0
100091ec:	2100      	movs	r1, #0
100091ee:	9703      	str	r7, [sp, #12]
100091f0:	9601      	str	r6, [sp, #4]
100091f2:	30ff      	adds	r0, #255	@ 0xff
100091f4:	f000 f9d4 	bl	100095a0 <tu_edpt_stream_init>
100091f8:	3540      	adds	r5, #64	@ 0x40
100091fa:	1d20      	adds	r0, r4, #4
100091fc:	3428      	adds	r4, #40	@ 0x28
100091fe:	2300      	movs	r3, #0
10009200:	2201      	movs	r2, #1
10009202:	2100      	movs	r1, #0
10009204:	9703      	str	r7, [sp, #12]
10009206:	9502      	str	r5, [sp, #8]
10009208:	9601      	str	r6, [sp, #4]
1000920a:	9400      	str	r4, [sp, #0]
1000920c:	f000 f9c8 	bl	100095a0 <tu_edpt_stream_init>
10009210:	b005      	add	sp, #20
10009212:	bdf0      	pop	{r4, r5, r6, r7, pc}
10009214:	2000499c 	.word	0x2000499c
10009218:	2000491c 	.word	0x2000491c

1000921c <vendord_deinit>:
1000921c:	b510      	push	{r4, lr}
1000921e:	4c05      	ldr	r4, [pc, #20]	@ (10009234 <vendord_deinit+0x18>)
10009220:	0020      	movs	r0, r4
10009222:	f000 f9f3 	bl	1000960c <tu_edpt_stream_deinit>
10009226:	0020      	movs	r0, r4
10009228:	3825      	subs	r0, #37	@ 0x25
1000922a:	38ff      	subs	r0, #255	@ 0xff
1000922c:	f000 f9ee 	bl	1000960c <tu_edpt_stream_deinit>
10009230:	2001      	movs	r0, #1
10009232:	bd10      	pop	{r4, pc}
10009234:	20004ac4 	.word	0x20004ac4

10009238 <vendord_reset>:
10009238:	b570      	push	{r4, r5, r6, lr}
1000923a:	4c08      	ldr	r4, [pc, #32]	@ (1000925c <vendord_reset+0x24>)
1000923c:	2500      	movs	r5, #0
1000923e:	0020      	movs	r0, r4
10009240:	3031      	adds	r0, #49	@ 0x31
10009242:	30ff      	adds	r0, #255	@ 0xff
10009244:	7025      	strb	r5, [r4, #0]
10009246:	f000 fcf1 	bl	10009c2c <tu_fifo_clear>
1000924a:	0020      	movs	r0, r4
1000924c:	300c      	adds	r0, #12
1000924e:	f000 fced 	bl	10009c2c <tu_fifo_clear>
10009252:	232a      	movs	r3, #42	@ 0x2a
10009254:	33ff      	adds	r3, #255	@ 0xff
10009256:	54e5      	strb	r5, [r4, r3]
10009258:	7165      	strb	r5, [r4, #5]
1000925a:	bd70      	pop	{r4, r5, r6, pc}
1000925c:	2000499c 	.word	0x2000499c

10009260 <vendord_open>:
10009260:	b5f8      	push	{r3, r4, r5, r6, r7, lr}
10009262:	4657      	mov	r7, sl
10009264:	4645      	mov	r5, r8
10009266:	46de      	mov	lr, fp
10009268:	464e      	mov	r6, r9
1000926a:	b5e0      	push	{r5, r6, r7, lr}
1000926c:	794b      	ldrb	r3, [r1, #5]
1000926e:	4680      	mov	r8, r0
10009270:	000f      	movs	r7, r1
10009272:	2bff      	cmp	r3, #255	@ 0xff
10009274:	d15b      	bne.n	1000932e <vendord_open+0xce>
10009276:	4b40      	ldr	r3, [pc, #256]	@ (10009378 <vendord_open+0x118>)
10009278:	4699      	mov	r9, r3
1000927a:	232a      	movs	r3, #42	@ 0x2a
1000927c:	4649      	mov	r1, r9
1000927e:	33ff      	adds	r3, #255	@ 0xff
10009280:	5ccb      	ldrb	r3, [r1, r3]
10009282:	2b00      	cmp	r3, #0
10009284:	d153      	bne.n	1000932e <vendord_open+0xce>
10009286:	794e      	ldrb	r6, [r1, #5]
10009288:	2e00      	cmp	r6, #0
1000928a:	d150      	bne.n	1000932e <vendord_open+0xce>
1000928c:	78bb      	ldrb	r3, [r7, #2]
1000928e:	783c      	ldrb	r4, [r7, #0]
10009290:	700b      	strb	r3, [r1, #0]
10009292:	793b      	ldrb	r3, [r7, #4]
10009294:	193c      	adds	r4, r7, r4
10009296:	2b00      	cmp	r3, #0
10009298:	d046      	beq.n	10009328 <vendord_open+0xc8>
1000929a:	2398      	movs	r3, #152	@ 0x98
1000929c:	005b      	lsls	r3, r3, #1
1000929e:	444b      	add	r3, r9
100092a0:	469a      	mov	sl, r3
100092a2:	230c      	movs	r3, #12
100092a4:	444b      	add	r3, r9
100092a6:	469b      	mov	fp, r3
100092a8:	18a5      	adds	r5, r4, r2
100092aa:	e003      	b.n	100092b4 <vendord_open+0x54>
100092ac:	42ac      	cmp	r4, r5
100092ae:	d23b      	bcs.n	10009328 <vendord_open+0xc8>
100092b0:	7823      	ldrb	r3, [r4, #0]
100092b2:	18e4      	adds	r4, r4, r3
100092b4:	7863      	ldrb	r3, [r4, #1]
100092b6:	2b05      	cmp	r3, #5
100092b8:	d1f8      	bne.n	100092ac <vendord_open+0x4c>
100092ba:	42ac      	cmp	r4, r5
100092bc:	d234      	bcs.n	10009328 <vendord_open+0xc8>
100092be:	0021      	movs	r1, r4
100092c0:	4640      	mov	r0, r8
100092c2:	f7ff fb5d 	bl	10008980 <usbd_edpt_open>
100092c6:	2800      	cmp	r0, #0
100092c8:	d031      	beq.n	1000932e <vendord_open+0xce>
100092ca:	78a3      	ldrb	r3, [r4, #2]
100092cc:	3601      	adds	r6, #1
100092ce:	b2f6      	uxtb	r6, r6
100092d0:	09db      	lsrs	r3, r3, #7
100092d2:	2b01      	cmp	r3, #1
100092d4:	d032      	beq.n	1000933c <vendord_open+0xdc>
100092d6:	4650      	mov	r0, sl
100092d8:	f000 fca8 	bl	10009c2c <tu_fifo_clear>
100092dc:	232a      	movs	r3, #42	@ 0x2a
100092de:	4649      	mov	r1, r9
100092e0:	78a2      	ldrb	r2, [r4, #2]
100092e2:	33ff      	adds	r3, #255	@ 0xff
100092e4:	54ca      	strb	r2, [r1, r3]
100092e6:	7963      	ldrb	r3, [r4, #5]
100092e8:	7922      	ldrb	r2, [r4, #4]
100092ea:	021b      	lsls	r3, r3, #8
100092ec:	4313      	orrs	r3, r2
100092ee:	4a23      	ldr	r2, [pc, #140]	@ (1000937c <vendord_open+0x11c>)
100092f0:	055b      	lsls	r3, r3, #21
100092f2:	4694      	mov	ip, r2
100092f4:	0d5b      	lsrs	r3, r3, #21
100092f6:	2194      	movs	r1, #148	@ 0x94
100092f8:	4463      	add	r3, ip
100092fa:	425a      	negs	r2, r3
100092fc:	4153      	adcs	r3, r2
100092fe:	464a      	mov	r2, r9
10009300:	2002      	movs	r0, #2
10009302:	0049      	lsls	r1, r1, #1
10009304:	5c52      	ldrb	r2, [r2, r1]
10009306:	005b      	lsls	r3, r3, #1
10009308:	4382      	bics	r2, r0
1000930a:	4313      	orrs	r3, r2
1000930c:	464a      	mov	r2, r9
1000930e:	5453      	strb	r3, [r2, r1]
10009310:	4651      	mov	r1, sl
10009312:	4640      	mov	r0, r8
10009314:	3908      	subs	r1, #8
10009316:	f000 f9e3 	bl	100096e0 <tu_edpt_stream_read_xfer>
1000931a:	2800      	cmp	r0, #0
1000931c:	d007      	beq.n	1000932e <vendord_open+0xce>
1000931e:	7823      	ldrb	r3, [r4, #0]
10009320:	18e4      	adds	r4, r4, r3
10009322:	793b      	ldrb	r3, [r7, #4]
10009324:	42b3      	cmp	r3, r6
10009326:	d8c5      	bhi.n	100092b4 <vendord_open+0x54>
10009328:	1be0      	subs	r0, r4, r7
1000932a:	b280      	uxth	r0, r0
1000932c:	e000      	b.n	10009330 <vendord_open+0xd0>
1000932e:	2000      	movs	r0, #0
10009330:	bcf0      	pop	{r4, r5, r6, r7}
10009332:	46bb      	mov	fp, r7
10009334:	46b2      	mov	sl, r6
10009336:	46a9      	mov	r9, r5
10009338:	46a0      	mov	r8, r4
1000933a:	bdf8      	pop	{r3, r4, r5, r6, r7, pc}
1000933c:	4658      	mov	r0, fp
1000933e:	f000 fc75 	bl	10009c2c <tu_fifo_clear>
10009342:	465a      	mov	r2, fp
10009344:	78a3      	ldrb	r3, [r4, #2]
10009346:	3a0c      	subs	r2, #12
10009348:	7153      	strb	r3, [r2, #5]
1000934a:	7963      	ldrb	r3, [r4, #5]
1000934c:	7921      	ldrb	r1, [r4, #4]
1000934e:	021b      	lsls	r3, r3, #8
10009350:	430b      	orrs	r3, r1
10009352:	490a      	ldr	r1, [pc, #40]	@ (1000937c <vendord_open+0x11c>)
10009354:	055b      	lsls	r3, r3, #21
10009356:	468c      	mov	ip, r1
10009358:	0d5b      	lsrs	r3, r3, #21
1000935a:	4463      	add	r3, ip
1000935c:	4259      	negs	r1, r3
1000935e:	414b      	adcs	r3, r1
10009360:	2002      	movs	r0, #2
10009362:	7911      	ldrb	r1, [r2, #4]
10009364:	005b      	lsls	r3, r3, #1
10009366:	4381      	bics	r1, r0
10009368:	430b      	orrs	r3, r1
1000936a:	4659      	mov	r1, fp
1000936c:	2000      	movs	r0, #0
1000936e:	3908      	subs	r1, #8
10009370:	7113      	strb	r3, [r2, #4]
10009372:	f000 f981 	bl	10009678 <tu_edpt_stream_write_xfer>
10009376:	e7d2      	b.n	1000931e <vendord_open+0xbe>
10009378:	2000499c 	.word	0x2000499c
1000937c:	fffffe00 	.word	0xfffffe00

10009380 <vendord_xfer_cb>:
10009380:	b5f8      	push	{r3, r4, r5, r6, r7, lr}
10009382:	252a      	movs	r5, #42	@ 0x2a
10009384:	0006      	movs	r6, r0
10009386:	481f      	ldr	r0, [pc, #124]	@ (10009404 <vendord_xfer_cb+0x84>)
10009388:	35ff      	adds	r5, #255	@ 0xff
1000938a:	5d45      	ldrb	r5, [r0, r5]
1000938c:	001f      	movs	r7, r3
1000938e:	428d      	cmp	r5, r1
10009390:	d015      	beq.n	100093be <vendord_xfer_cb+0x3e>
10009392:	7943      	ldrb	r3, [r0, #5]
10009394:	428b      	cmp	r3, r1
10009396:	d001      	beq.n	1000939c <vendord_xfer_cb+0x1c>
10009398:	2000      	movs	r0, #0
1000939a:	bdf8      	pop	{r3, r4, r5, r6, r7, pc}
1000939c:	4b1a      	ldr	r3, [pc, #104]	@ (10009408 <vendord_xfer_cb+0x88>)
1000939e:	2b00      	cmp	r3, #0
100093a0:	d004      	beq.n	100093ac <vendord_xfer_cb+0x2c>
100093a2:	0439      	lsls	r1, r7, #16
100093a4:	2000      	movs	r0, #0
100093a6:	0c09      	lsrs	r1, r1, #16
100093a8:	e000      	b.n	100093ac <vendord_xfer_cb+0x2c>
100093aa:	bf00      	nop
100093ac:	4c17      	ldr	r4, [pc, #92]	@ (1000940c <vendord_xfer_cb+0x8c>)
100093ae:	0030      	movs	r0, r6
100093b0:	0021      	movs	r1, r4
100093b2:	f000 f961 	bl	10009678 <tu_edpt_stream_write_xfer>
100093b6:	2800      	cmp	r0, #0
100093b8:	d01d      	beq.n	100093f6 <vendord_xfer_cb+0x76>
100093ba:	2001      	movs	r0, #1
100093bc:	e7ed      	b.n	1000939a <vendord_xfer_cb+0x1a>
100093be:	239a      	movs	r3, #154	@ 0x9a
100093c0:	005b      	lsls	r3, r3, #1
100093c2:	5ac3      	ldrh	r3, [r0, r3]
100093c4:	2b00      	cmp	r3, #0
100093c6:	d10d      	bne.n	100093e4 <vendord_xfer_cb+0x64>
100093c8:	4b11      	ldr	r3, [pc, #68]	@ (10009410 <vendord_xfer_cb+0x90>)
100093ca:	2b00      	cmp	r3, #0
100093cc:	d004      	beq.n	100093d8 <vendord_xfer_cb+0x58>
100093ce:	2000      	movs	r0, #0
100093d0:	4910      	ldr	r1, [pc, #64]	@ (10009414 <vendord_xfer_cb+0x94>)
100093d2:	b2ba      	uxth	r2, r7
100093d4:	e000      	b.n	100093d8 <vendord_xfer_cb+0x58>
100093d6:	bf00      	nop
100093d8:	0030      	movs	r0, r6
100093da:	490f      	ldr	r1, [pc, #60]	@ (10009418 <vendord_xfer_cb+0x98>)
100093dc:	f000 f980 	bl	100096e0 <tu_edpt_stream_read_xfer>
100093e0:	2001      	movs	r0, #1
100093e2:	e7da      	b.n	1000939a <vendord_xfer_cb+0x1a>
100093e4:	2396      	movs	r3, #150	@ 0x96
100093e6:	005b      	lsls	r3, r3, #1
100093e8:	58c1      	ldr	r1, [r0, r3]
100093ea:	3031      	adds	r0, #49	@ 0x31
100093ec:	b2ba      	uxth	r2, r7
100093ee:	30ff      	adds	r0, #255	@ 0xff
100093f0:	f000 fb60 	bl	10009ab4 <tu_fifo_write_n>
100093f4:	e7e8      	b.n	100093c8 <vendord_xfer_cb+0x48>
100093f6:	003a      	movs	r2, r7
100093f8:	0021      	movs	r1, r4
100093fa:	0030      	movs	r0, r6
100093fc:	f000 f908 	bl	10009610 <tu_edpt_stream_write_zlp_if_needed>
10009400:	2001      	movs	r0, #1
10009402:	e7ca      	b.n	1000939a <vendord_xfer_cb+0x1a>
10009404:	2000499c 	.word	0x2000499c
10009408:	00000000 	.word	0x00000000
1000940c:	200049a0 	.word	0x200049a0
10009410:	00000000 	.word	0x00000000
10009414:	2000491c 	.word	0x2000491c
10009418:	20004ac4 	.word	0x20004ac4

1000941c <tusb_rhport_init>:
1000941c:	b500      	push	{lr}
1000941e:	0003      	movs	r3, r0
10009420:	b083      	sub	sp, #12
10009422:	2900      	cmp	r1, #0
10009424:	d010      	beq.n	10009448 <tusb_rhport_init+0x2c>
10009426:	2000      	movs	r0, #0
10009428:	2b01      	cmp	r3, #1
1000942a:	d807      	bhi.n	1000943c <tusb_rhport_init+0x20>
1000942c:	780a      	ldrb	r2, [r1, #0]
1000942e:	2a00      	cmp	r2, #0
10009430:	d004      	beq.n	1000943c <tusb_rhport_init+0x20>
10009432:	480c      	ldr	r0, [pc, #48]	@ (10009464 <tusb_rhport_init+0x48>)
10009434:	54c2      	strb	r2, [r0, r3]
10009436:	2001      	movs	r0, #1
10009438:	2a01      	cmp	r2, #1
1000943a:	d001      	beq.n	10009440 <tusb_rhport_init+0x24>
1000943c:	b003      	add	sp, #12
1000943e:	bd00      	pop	{pc}
10009440:	0018      	movs	r0, r3
10009442:	f7fe fdd5 	bl	10007ff0 <tud_rhport_init>
10009446:	e7f9      	b.n	1000943c <tusb_rhport_init+0x20>
10009448:	2301      	movs	r3, #1
1000944a:	466a      	mov	r2, sp
1000944c:	2000      	movs	r0, #0
1000944e:	a901      	add	r1, sp, #4
10009450:	8093      	strh	r3, [r2, #4]
10009452:	f7fe fdcd 	bl	10007ff0 <tud_rhport_init>
10009456:	2800      	cmp	r0, #0
10009458:	d0f0      	beq.n	1000943c <tusb_rhport_init+0x20>
1000945a:	2201      	movs	r2, #1
1000945c:	4b01      	ldr	r3, [pc, #4]	@ (10009464 <tusb_rhport_init+0x48>)
1000945e:	701a      	strb	r2, [r3, #0]
10009460:	e7ec      	b.n	1000943c <tusb_rhport_init+0x20>
10009462:	46c0      	nop			@ (mov r8, r8)
10009464:	200047ec 	.word	0x200047ec

10009468 <tu_edpt_claim>:
10009468:	7803      	ldrb	r3, [r0, #0]
1000946a:	b570      	push	{r4, r5, r6, lr}
1000946c:	07db      	lsls	r3, r3, #31
1000946e:	0004      	movs	r4, r0
10009470:	000e      	movs	r6, r1
10009472:	0fdd      	lsrs	r5, r3, #31
10009474:	2b00      	cmp	r3, #0
10009476:	d117      	bne.n	100094a8 <tu_edpt_claim+0x40>
10009478:	7803      	ldrb	r3, [r0, #0]
1000947a:	075b      	lsls	r3, r3, #29
1000947c:	d501      	bpl.n	10009482 <tu_edpt_claim+0x1a>
1000947e:	0028      	movs	r0, r5
10009480:	bd70      	pop	{r4, r5, r6, pc}
10009482:	2101      	movs	r1, #1
10009484:	0030      	movs	r0, r6
10009486:	4249      	negs	r1, r1
10009488:	f001 fbaa 	bl	1000abe0 <__mutex_enter_timeout_ms_veneer>
1000948c:	7823      	ldrb	r3, [r4, #0]
1000948e:	07db      	lsls	r3, r3, #31
10009490:	0fdd      	lsrs	r5, r3, #31
10009492:	2b00      	cmp	r3, #0
10009494:	d10a      	bne.n	100094ac <tu_edpt_claim+0x44>
10009496:	7823      	ldrb	r3, [r4, #0]
10009498:	075b      	lsls	r3, r3, #29
1000949a:	d408      	bmi.n	100094ae <tu_edpt_claim+0x46>
1000949c:	2204      	movs	r2, #4
1000949e:	7823      	ldrb	r3, [r4, #0]
100094a0:	2501      	movs	r5, #1
100094a2:	4313      	orrs	r3, r2
100094a4:	7023      	strb	r3, [r4, #0]
100094a6:	e002      	b.n	100094ae <tu_edpt_claim+0x46>
100094a8:	2500      	movs	r5, #0
100094aa:	e7e8      	b.n	1000947e <tu_edpt_claim+0x16>
100094ac:	2500      	movs	r5, #0
100094ae:	0030      	movs	r0, r6
100094b0:	f001 fb6e 	bl	1000ab90 <__mutex_exit_veneer>
100094b4:	e7e3      	b.n	1000947e <tu_edpt_claim+0x16>
100094b6:	46c0      	nop			@ (mov r8, r8)

100094b8 <tu_edpt_release>:
100094b8:	b570      	push	{r4, r5, r6, lr}
100094ba:	000c      	movs	r4, r1
100094bc:	2101      	movs	r1, #1
100094be:	0006      	movs	r6, r0
100094c0:	4249      	negs	r1, r1
100094c2:	0020      	movs	r0, r4
100094c4:	f001 fb8c 	bl	1000abe0 <__mutex_enter_timeout_ms_veneer>
100094c8:	7833      	ldrb	r3, [r6, #0]
100094ca:	075b      	lsls	r3, r3, #29
100094cc:	0fdd      	lsrs	r5, r3, #31
100094ce:	2b00      	cmp	r3, #0
100094d0:	db04      	blt.n	100094dc <tu_edpt_release+0x24>
100094d2:	0020      	movs	r0, r4
100094d4:	f001 fb5c 	bl	1000ab90 <__mutex_exit_veneer>
100094d8:	0028      	movs	r0, r5
100094da:	bd70      	pop	{r4, r5, r6, pc}
100094dc:	7833      	ldrb	r3, [r6, #0]
100094de:	07db      	lsls	r3, r3, #31
100094e0:	d404      	bmi.n	100094ec <tu_edpt_release+0x34>
100094e2:	2204      	movs	r2, #4
100094e4:	7833      	ldrb	r3, [r6, #0]
100094e6:	4393      	bics	r3, r2
100094e8:	7033      	strb	r3, [r6, #0]
100094ea:	e7f2      	b.n	100094d2 <tu_edpt_release+0x1a>
100094ec:	2500      	movs	r5, #0
100094ee:	e7f0      	b.n	100094d2 <tu_edpt_release+0x1a>

100094f0 <tu_edpt_validate>:
100094f0:	7943      	ldrb	r3, [r0, #5]
100094f2:	7902      	ldrb	r2, [r0, #4]
100094f4:	021b      	lsls	r3, r3, #8
100094f6:	4313      	orrs	r3, r2
100094f8:	78c2      	ldrb	r2, [r0, #3]
100094fa:	055b      	lsls	r3, r3, #21
100094fc:	0792      	lsls	r2, r2, #30
100094fe:	0d5b      	lsrs	r3, r3, #21
10009500:	0f92      	lsrs	r2, r2, #30
10009502:	2a02      	cmp	r2, #2
10009504:	d01d      	beq.n	10009542 <tu_edpt_validate+0x52>
10009506:	2a03      	cmp	r2, #3
10009508:	d00c      	beq.n	10009524 <tu_edpt_validate+0x34>
1000950a:	2000      	movs	r0, #0
1000950c:	2a01      	cmp	r2, #1
1000950e:	d108      	bne.n	10009522 <tu_edpt_validate+0x32>
10009510:	3902      	subs	r1, #2
10009512:	424a      	negs	r2, r1
10009514:	4151      	adcs	r1, r2
10009516:	4a12      	ldr	r2, [pc, #72]	@ (10009560 <tu_edpt_validate+0x70>)
10009518:	4694      	mov	ip, r2
1000951a:	4461      	add	r1, ip
1000951c:	4299      	cmp	r1, r3
1000951e:	4140      	adcs	r0, r0
10009520:	b2c0      	uxtb	r0, r0
10009522:	4770      	bx	lr
10009524:	3902      	subs	r1, #2
10009526:	1e4a      	subs	r2, r1, #1
10009528:	4191      	sbcs	r1, r2
1000952a:	4a0e      	ldr	r2, [pc, #56]	@ (10009564 <tu_edpt_validate+0x74>)
1000952c:	4249      	negs	r1, r1
1000952e:	4011      	ands	r1, r2
10009530:	2280      	movs	r2, #128	@ 0x80
10009532:	00d2      	lsls	r2, r2, #3
10009534:	4694      	mov	ip, r2
10009536:	2000      	movs	r0, #0
10009538:	4461      	add	r1, ip
1000953a:	4299      	cmp	r1, r3
1000953c:	4140      	adcs	r0, r0
1000953e:	b2c0      	uxtb	r0, r0
10009540:	e7ef      	b.n	10009522 <tu_edpt_validate+0x32>
10009542:	2902      	cmp	r1, #2
10009544:	d005      	beq.n	10009552 <tu_edpt_validate+0x62>
10009546:	2000      	movs	r0, #0
10009548:	2240      	movs	r2, #64	@ 0x40
1000954a:	429a      	cmp	r2, r3
1000954c:	4140      	adcs	r0, r0
1000954e:	b2c0      	uxtb	r0, r0
10009550:	e7e7      	b.n	10009522 <tu_edpt_validate+0x32>
10009552:	4a05      	ldr	r2, [pc, #20]	@ (10009568 <tu_edpt_validate+0x78>)
10009554:	1898      	adds	r0, r3, r2
10009556:	4243      	negs	r3, r0
10009558:	4158      	adcs	r0, r3
1000955a:	b2c0      	uxtb	r0, r0
1000955c:	e7e1      	b.n	10009522 <tu_edpt_validate+0x32>
1000955e:	46c0      	nop			@ (mov r8, r8)
10009560:	000003ff 	.word	0x000003ff
10009564:	fffffc40 	.word	0xfffffc40
10009568:	fffffe00 	.word	0xfffffe00

1000956c <tu_edpt_bind_driver>:
1000956c:	188a      	adds	r2, r1, r2
1000956e:	b570      	push	{r4, r5, r6, lr}
10009570:	4291      	cmp	r1, r2
10009572:	d207      	bcs.n	10009584 <tu_edpt_bind_driver+0x18>
10009574:	267f      	movs	r6, #127	@ 0x7f
10009576:	784c      	ldrb	r4, [r1, #1]
10009578:	2c05      	cmp	r4, #5
1000957a:	d004      	beq.n	10009586 <tu_edpt_bind_driver+0x1a>
1000957c:	780c      	ldrb	r4, [r1, #0]
1000957e:	1909      	adds	r1, r1, r4
10009580:	428a      	cmp	r2, r1
10009582:	d8f8      	bhi.n	10009576 <tu_edpt_bind_driver+0xa>
10009584:	bd70      	pop	{r4, r5, r6, pc}
10009586:	0034      	movs	r4, r6
10009588:	788d      	ldrb	r5, [r1, #2]
1000958a:	402c      	ands	r4, r5
1000958c:	0064      	lsls	r4, r4, #1
1000958e:	1904      	adds	r4, r0, r4
10009590:	09ed      	lsrs	r5, r5, #7
10009592:	5563      	strb	r3, [r4, r5]
10009594:	780c      	ldrb	r4, [r1, #0]
10009596:	1909      	adds	r1, r1, r4
10009598:	428a      	cmp	r2, r1
1000959a:	d8ec      	bhi.n	10009576 <tu_edpt_bind_driver+0xa>
1000959c:	e7f2      	b.n	10009584 <tu_edpt_bind_driver+0x18>
1000959e:	46c0      	nop			@ (mov r8, r8)

100095a0 <tu_edpt_stream_init>:
100095a0:	b5f0      	push	{r4, r5, r6, r7, lr}
100095a2:	46c6      	mov	lr, r8
100095a4:	b500      	push	{lr}
100095a6:	b082      	sub	sp, #8
100095a8:	0015      	movs	r5, r2
100095aa:	aa08      	add	r2, sp, #32
100095ac:	ca40      	ldmia	r2!, {r6}
100095ae:	0004      	movs	r4, r0
100095b0:	8817      	ldrh	r7, [r2, #0]
100095b2:	466a      	mov	r2, sp
100095b4:	8d92      	ldrh	r2, [r2, #44]	@ 0x2c
100095b6:	2001      	movs	r0, #1
100095b8:	4690      	mov	r8, r2
100095ba:	000a      	movs	r2, r1
100095bc:	7821      	ldrb	r1, [r4, #0]
100095be:	4002      	ands	r2, r0
100095c0:	4381      	bics	r1, r0
100095c2:	0020      	movs	r0, r4
100095c4:	4311      	orrs	r1, r2
100095c6:	7021      	strb	r1, [r4, #0]
100095c8:	003a      	movs	r2, r7
100095ca:	9300      	str	r3, [sp, #0]
100095cc:	0031      	movs	r1, r6
100095ce:	2301      	movs	r3, #1
100095d0:	3008      	adds	r0, #8
100095d2:	f000 f8f1 	bl	100097b8 <tu_fifo_config>
100095d6:	2e00      	cmp	r6, #0
100095d8:	d001      	beq.n	100095de <tu_edpt_stream_init+0x3e>
100095da:	2f00      	cmp	r7, #0
100095dc:	d108      	bne.n	100095f0 <tu_edpt_stream_init+0x50>
100095de:	9b0a      	ldr	r3, [sp, #40]	@ 0x28
100095e0:	2001      	movs	r0, #1
100095e2:	6063      	str	r3, [r4, #4]
100095e4:	4643      	mov	r3, r8
100095e6:	8063      	strh	r3, [r4, #2]
100095e8:	b002      	add	sp, #8
100095ea:	bc80      	pop	{r7}
100095ec:	46b8      	mov	r8, r7
100095ee:	bdf0      	pop	{r4, r5, r6, r7, pc}
100095f0:	0026      	movs	r6, r4
100095f2:	361c      	adds	r6, #28
100095f4:	0030      	movs	r0, r6
100095f6:	f7fa faf1 	bl	10003bdc <mutex_init>
100095fa:	2300      	movs	r3, #0
100095fc:	2d00      	cmp	r5, #0
100095fe:	d001      	beq.n	10009604 <tu_edpt_stream_init+0x64>
10009600:	0033      	movs	r3, r6
10009602:	2600      	movs	r6, #0
10009604:	6163      	str	r3, [r4, #20]
10009606:	61a6      	str	r6, [r4, #24]
10009608:	e7e9      	b.n	100095de <tu_edpt_stream_init+0x3e>
1000960a:	46c0      	nop			@ (mov r8, r8)

1000960c <tu_edpt_stream_deinit>:
1000960c:	2001      	movs	r0, #1
1000960e:	4770      	bx	lr

10009610 <tu_edpt_stream_write_zlp_if_needed>:
10009610:	b5f8      	push	{r3, r4, r5, r6, r7, lr}
10009612:	2402      	movs	r4, #2
10009614:	780b      	ldrb	r3, [r1, #0]
10009616:	0007      	movs	r7, r0
10009618:	401c      	ands	r4, r3
1000961a:	4263      	negs	r3, r4
1000961c:	415c      	adcs	r4, r3
1000961e:	4b14      	ldr	r3, [pc, #80]	@ (10009670 <tu_edpt_stream_write_zlp_if_needed+0x60>)
10009620:	4264      	negs	r4, r4
10009622:	401c      	ands	r4, r3
10009624:	4b13      	ldr	r3, [pc, #76]	@ (10009674 <tu_edpt_stream_write_zlp_if_needed+0x64>)
10009626:	0008      	movs	r0, r1
10009628:	469c      	mov	ip, r3
1000962a:	3008      	adds	r0, #8
1000962c:	000d      	movs	r5, r1
1000962e:	0016      	movs	r6, r2
10009630:	4464      	add	r4, ip
10009632:	f000 f8f7 	bl	10009824 <tu_fifo_count>
10009636:	2800      	cmp	r0, #0
10009638:	d107      	bne.n	1000964a <tu_edpt_stream_write_zlp_if_needed+0x3a>
1000963a:	2e00      	cmp	r6, #0
1000963c:	d005      	beq.n	1000964a <tu_edpt_stream_write_zlp_if_needed+0x3a>
1000963e:	4234      	tst	r4, r6
10009640:	d103      	bne.n	1000964a <tu_edpt_stream_write_zlp_if_needed+0x3a>
10009642:	2401      	movs	r4, #1
10009644:	782b      	ldrb	r3, [r5, #0]
10009646:	421c      	tst	r4, r3
10009648:	d001      	beq.n	1000964e <tu_edpt_stream_write_zlp_if_needed+0x3e>
1000964a:	2000      	movs	r0, #0
1000964c:	bdf8      	pop	{r3, r4, r5, r6, r7, pc}
1000964e:	0038      	movs	r0, r7
10009650:	7869      	ldrb	r1, [r5, #1]
10009652:	f7ff f9af 	bl	100089b4 <usbd_edpt_claim>
10009656:	2800      	cmp	r0, #0
10009658:	d0f7      	beq.n	1000964a <tu_edpt_stream_write_zlp_if_needed+0x3a>
1000965a:	782b      	ldrb	r3, [r5, #0]
1000965c:	421c      	tst	r4, r3
1000965e:	d1f4      	bne.n	1000964a <tu_edpt_stream_write_zlp_if_needed+0x3a>
10009660:	2300      	movs	r3, #0
10009662:	2200      	movs	r2, #0
10009664:	0038      	movs	r0, r7
10009666:	7869      	ldrb	r1, [r5, #1]
10009668:	f7ff f9cc 	bl	10008a04 <usbd_edpt_xfer>
1000966c:	e7ee      	b.n	1000964c <tu_edpt_stream_write_zlp_if_needed+0x3c>
1000966e:	46c0      	nop			@ (mov r8, r8)
10009670:	fffffe40 	.word	0xfffffe40
10009674:	000001ff 	.word	0x000001ff

10009678 <tu_edpt_stream_write_xfer>:
10009678:	b5f8      	push	{r3, r4, r5, r6, r7, lr}
1000967a:	000d      	movs	r5, r1
1000967c:	3508      	adds	r5, #8
1000967e:	0006      	movs	r6, r0
10009680:	0028      	movs	r0, r5
10009682:	000c      	movs	r4, r1
10009684:	f000 f8ce 	bl	10009824 <tu_fifo_count>
10009688:	2800      	cmp	r0, #0
1000968a:	d003      	beq.n	10009694 <tu_edpt_stream_write_xfer+0x1c>
1000968c:	2701      	movs	r7, #1
1000968e:	7823      	ldrb	r3, [r4, #0]
10009690:	421f      	tst	r7, r3
10009692:	d001      	beq.n	10009698 <tu_edpt_stream_write_xfer+0x20>
10009694:	2000      	movs	r0, #0
10009696:	bdf8      	pop	{r3, r4, r5, r6, r7, pc}
10009698:	0030      	movs	r0, r6
1000969a:	7861      	ldrb	r1, [r4, #1]
1000969c:	f7ff f98a 	bl	100089b4 <usbd_edpt_claim>
100096a0:	2800      	cmp	r0, #0
100096a2:	d0f7      	beq.n	10009694 <tu_edpt_stream_write_xfer+0x1c>
100096a4:	0028      	movs	r0, r5
100096a6:	8862      	ldrh	r2, [r4, #2]
100096a8:	6861      	ldr	r1, [r4, #4]
100096aa:	f000 f93d 	bl	10009928 <tu_fifo_read_n>
100096ae:	7823      	ldrb	r3, [r4, #0]
100096b0:	0005      	movs	r5, r0
100096b2:	401f      	ands	r7, r3
100096b4:	2800      	cmp	r0, #0
100096b6:	d00b      	beq.n	100096d0 <tu_edpt_stream_write_xfer+0x58>
100096b8:	2f00      	cmp	r7, #0
100096ba:	d1eb      	bne.n	10009694 <tu_edpt_stream_write_xfer+0x1c>
100096bc:	0003      	movs	r3, r0
100096be:	6862      	ldr	r2, [r4, #4]
100096c0:	0030      	movs	r0, r6
100096c2:	7861      	ldrb	r1, [r4, #1]
100096c4:	f7ff f99e 	bl	10008a04 <usbd_edpt_xfer>
100096c8:	2800      	cmp	r0, #0
100096ca:	d0e3      	beq.n	10009694 <tu_edpt_stream_write_xfer+0x1c>
100096cc:	0028      	movs	r0, r5
100096ce:	e7e2      	b.n	10009696 <tu_edpt_stream_write_xfer+0x1e>
100096d0:	2f00      	cmp	r7, #0
100096d2:	d1df      	bne.n	10009694 <tu_edpt_stream_write_xfer+0x1c>
100096d4:	0030      	movs	r0, r6
100096d6:	7861      	ldrb	r1, [r4, #1]
100096d8:	f7ff f980 	bl	100089dc <usbd_edpt_release>
100096dc:	e7da      	b.n	10009694 <tu_edpt_stream_write_xfer+0x1c>
100096de:	46c0      	nop			@ (mov r8, r8)

100096e0 <tu_edpt_stream_read_xfer>:
100096e0:	b5f8      	push	{r3, r4, r5, r6, r7, lr}
100096e2:	46ce      	mov	lr, r9
100096e4:	4647      	mov	r7, r8
100096e6:	b580      	push	{r7, lr}
100096e8:	898a      	ldrh	r2, [r1, #12]
100096ea:	0006      	movs	r6, r0
100096ec:	000c      	movs	r4, r1
100096ee:	780b      	ldrb	r3, [r1, #0]
100096f0:	2a00      	cmp	r2, #0
100096f2:	d107      	bne.n	10009704 <tu_edpt_stream_read_xfer+0x24>
100096f4:	2501      	movs	r5, #1
100096f6:	421d      	tst	r5, r3
100096f8:	d040      	beq.n	1000977c <tu_edpt_stream_read_xfer+0x9c>
100096fa:	2000      	movs	r0, #0
100096fc:	bcc0      	pop	{r6, r7}
100096fe:	46b9      	mov	r9, r7
10009700:	46b0      	mov	r8, r6
10009702:	bdf8      	pop	{r3, r4, r5, r6, r7, pc}
10009704:	079b      	lsls	r3, r3, #30
10009706:	d433      	bmi.n	10009770 <tu_edpt_stream_read_xfer+0x90>
10009708:	4b2a      	ldr	r3, [pc, #168]	@ (100097b4 <tu_edpt_stream_read_xfer+0xd4>)
1000970a:	2540      	movs	r5, #64	@ 0x40
1000970c:	4699      	mov	r9, r3
1000970e:	0027      	movs	r7, r4
10009710:	3708      	adds	r7, #8
10009712:	0038      	movs	r0, r7
10009714:	f000 f8a4 	bl	10009860 <tu_fifo_remaining>
10009718:	4285      	cmp	r5, r0
1000971a:	d8ee      	bhi.n	100096fa <tu_edpt_stream_read_xfer+0x1a>
1000971c:	2201      	movs	r2, #1
1000971e:	7823      	ldrb	r3, [r4, #0]
10009720:	4690      	mov	r8, r2
10009722:	421a      	tst	r2, r3
10009724:	d1e9      	bne.n	100096fa <tu_edpt_stream_read_xfer+0x1a>
10009726:	0030      	movs	r0, r6
10009728:	7861      	ldrb	r1, [r4, #1]
1000972a:	f7ff f943 	bl	100089b4 <usbd_edpt_claim>
1000972e:	2800      	cmp	r0, #0
10009730:	d0e3      	beq.n	100096fa <tu_edpt_stream_read_xfer+0x1a>
10009732:	0038      	movs	r0, r7
10009734:	f000 f894 	bl	10009860 <tu_fifo_remaining>
10009738:	4642      	mov	r2, r8
1000973a:	7823      	ldrb	r3, [r4, #0]
1000973c:	401a      	ands	r2, r3
1000973e:	4285      	cmp	r5, r0
10009740:	d831      	bhi.n	100097a6 <tu_edpt_stream_read_xfer+0xc6>
10009742:	2a00      	cmp	r2, #0
10009744:	d1d9      	bne.n	100096fa <tu_edpt_stream_read_xfer+0x1a>
10009746:	464a      	mov	r2, r9
10009748:	8863      	ldrh	r3, [r4, #2]
1000974a:	4002      	ands	r2, r0
1000974c:	1c1d      	adds	r5, r3, #0
1000974e:	4293      	cmp	r3, r2
10009750:	d900      	bls.n	10009754 <tu_edpt_stream_read_xfer+0x74>
10009752:	1c15      	adds	r5, r2, #0
10009754:	b2ad      	uxth	r5, r5
10009756:	2200      	movs	r2, #0
10009758:	7861      	ldrb	r1, [r4, #1]
1000975a:	2d00      	cmp	r5, #0
1000975c:	d000      	beq.n	10009760 <tu_edpt_stream_read_xfer+0x80>
1000975e:	6862      	ldr	r2, [r4, #4]
10009760:	002b      	movs	r3, r5
10009762:	0030      	movs	r0, r6
10009764:	f7ff f94e 	bl	10008a04 <usbd_edpt_xfer>
10009768:	2800      	cmp	r0, #0
1000976a:	d0c6      	beq.n	100096fa <tu_edpt_stream_read_xfer+0x1a>
1000976c:	0028      	movs	r0, r5
1000976e:	e7c5      	b.n	100096fc <tu_edpt_stream_read_xfer+0x1c>
10009770:	23fe      	movs	r3, #254	@ 0xfe
10009772:	2580      	movs	r5, #128	@ 0x80
10009774:	021b      	lsls	r3, r3, #8
10009776:	4699      	mov	r9, r3
10009778:	00ad      	lsls	r5, r5, #2
1000977a:	e7c8      	b.n	1000970e <tu_edpt_stream_read_xfer+0x2e>
1000977c:	7849      	ldrb	r1, [r1, #1]
1000977e:	f7ff f919 	bl	100089b4 <usbd_edpt_claim>
10009782:	2800      	cmp	r0, #0
10009784:	d0b9      	beq.n	100096fa <tu_edpt_stream_read_xfer+0x1a>
10009786:	7823      	ldrb	r3, [r4, #0]
10009788:	421d      	tst	r5, r3
1000978a:	d1b6      	bne.n	100096fa <tu_edpt_stream_read_xfer+0x1a>
1000978c:	8863      	ldrh	r3, [r4, #2]
1000978e:	2200      	movs	r2, #0
10009790:	7861      	ldrb	r1, [r4, #1]
10009792:	2b00      	cmp	r3, #0
10009794:	d000      	beq.n	10009798 <tu_edpt_stream_read_xfer+0xb8>
10009796:	6862      	ldr	r2, [r4, #4]
10009798:	0030      	movs	r0, r6
1000979a:	f7ff f933 	bl	10008a04 <usbd_edpt_xfer>
1000979e:	2800      	cmp	r0, #0
100097a0:	d0ab      	beq.n	100096fa <tu_edpt_stream_read_xfer+0x1a>
100097a2:	8860      	ldrh	r0, [r4, #2]
100097a4:	e7aa      	b.n	100096fc <tu_edpt_stream_read_xfer+0x1c>
100097a6:	2a00      	cmp	r2, #0
100097a8:	d1a7      	bne.n	100096fa <tu_edpt_stream_read_xfer+0x1a>
100097aa:	0030      	movs	r0, r6
100097ac:	7861      	ldrb	r1, [r4, #1]
100097ae:	f7ff f915 	bl	100089dc <usbd_edpt_release>
100097b2:	e7a2      	b.n	100096fa <tu_edpt_stream_read_xfer+0x1a>
100097b4:	0000ffc0 	.word	0x0000ffc0

100097b8 <tu_fifo_config>:
100097b8:	b5f0      	push	{r4, r5, r6, r7, lr}
100097ba:	46c6      	mov	lr, r8
100097bc:	b500      	push	{lr}
100097be:	0004      	movs	r4, r0
100097c0:	4668      	mov	r0, sp
100097c2:	7e05      	ldrb	r5, [r0, #24]
100097c4:	2080      	movs	r0, #128	@ 0x80
100097c6:	4688      	mov	r8, r1
100097c8:	0017      	movs	r7, r2
100097ca:	001e      	movs	r6, r3
100097cc:	0200      	lsls	r0, r0, #8
100097ce:	4282      	cmp	r2, r0
100097d0:	d826      	bhi.n	10009820 <tu_fifo_config+0x68>
100097d2:	68e0      	ldr	r0, [r4, #12]
100097d4:	2800      	cmp	r0, #0
100097d6:	d003      	beq.n	100097e0 <tu_fifo_config+0x28>
100097d8:	2101      	movs	r1, #1
100097da:	4249      	negs	r1, r1
100097dc:	f001 fa00 	bl	1000abe0 <__mutex_enter_timeout_ms_veneer>
100097e0:	6920      	ldr	r0, [r4, #16]
100097e2:	2800      	cmp	r0, #0
100097e4:	d003      	beq.n	100097ee <tu_fifo_config+0x36>
100097e6:	2101      	movs	r1, #1
100097e8:	4249      	negs	r1, r1
100097ea:	f001 f9f9 	bl	1000abe0 <__mutex_enter_timeout_ms_veneer>
100097ee:	4643      	mov	r3, r8
100097f0:	6023      	str	r3, [r4, #0]
100097f2:	0473      	lsls	r3, r6, #17
100097f4:	0c5b      	lsrs	r3, r3, #17
100097f6:	03ed      	lsls	r5, r5, #15
100097f8:	431d      	orrs	r5, r3
100097fa:	2300      	movs	r3, #0
100097fc:	68e0      	ldr	r0, [r4, #12]
100097fe:	8163      	strh	r3, [r4, #10]
10009800:	80a7      	strh	r7, [r4, #4]
10009802:	80e5      	strh	r5, [r4, #6]
10009804:	8123      	strh	r3, [r4, #8]
10009806:	2800      	cmp	r0, #0
10009808:	d001      	beq.n	1000980e <tu_fifo_config+0x56>
1000980a:	f001 f9c1 	bl	1000ab90 <__mutex_exit_veneer>
1000980e:	6920      	ldr	r0, [r4, #16]
10009810:	2800      	cmp	r0, #0
10009812:	d001      	beq.n	10009818 <tu_fifo_config+0x60>
10009814:	f001 f9bc 	bl	1000ab90 <__mutex_exit_veneer>
10009818:	2001      	movs	r0, #1
1000981a:	bc80      	pop	{r7}
1000981c:	46b8      	mov	r8, r7
1000981e:	bdf0      	pop	{r4, r5, r6, r7, pc}
10009820:	2000      	movs	r0, #0
10009822:	e7fa      	b.n	1000981a <tu_fifo_config+0x62>

10009824 <tu_fifo_count>:
10009824:	b510      	push	{r4, lr}
10009826:	8904      	ldrh	r4, [r0, #8]
10009828:	8941      	ldrh	r1, [r0, #10]
1000982a:	8882      	ldrh	r2, [r0, #4]
1000982c:	b2a3      	uxth	r3, r4
1000982e:	b288      	uxth	r0, r1
10009830:	428c      	cmp	r4, r1
10009832:	d307      	bcc.n	10009844 <tu_fifo_count+0x20>
10009834:	1a1b      	subs	r3, r3, r0
10009836:	b29b      	uxth	r3, r3
10009838:	1c10      	adds	r0, r2, #0
1000983a:	429a      	cmp	r2, r3
1000983c:	d900      	bls.n	10009840 <tu_fifo_count+0x1c>
1000983e:	1c18      	adds	r0, r3, #0
10009840:	b280      	uxth	r0, r0
10009842:	bd10      	pop	{r4, pc}
10009844:	0051      	lsls	r1, r2, #1
10009846:	1a09      	subs	r1, r1, r0
10009848:	185b      	adds	r3, r3, r1
1000984a:	b29b      	uxth	r3, r3
1000984c:	e7f4      	b.n	10009838 <tu_fifo_count+0x14>
1000984e:	46c0      	nop			@ (mov r8, r8)

10009850 <tu_fifo_empty>:
10009850:	8903      	ldrh	r3, [r0, #8]
10009852:	8940      	ldrh	r0, [r0, #10]
10009854:	1a18      	subs	r0, r3, r0
10009856:	4243      	negs	r3, r0
10009858:	4158      	adcs	r0, r3
1000985a:	b2c0      	uxtb	r0, r0
1000985c:	4770      	bx	lr
1000985e:	46c0      	nop			@ (mov r8, r8)

10009860 <tu_fifo_remaining>:
10009860:	b510      	push	{r4, lr}
10009862:	8904      	ldrh	r4, [r0, #8]
10009864:	8941      	ldrh	r1, [r0, #10]
10009866:	8882      	ldrh	r2, [r0, #4]
10009868:	b2a3      	uxth	r3, r4
1000986a:	b288      	uxth	r0, r1
1000986c:	428c      	cmp	r4, r1
1000986e:	d307      	bcc.n	10009880 <tu_fifo_remaining+0x20>
10009870:	1a1b      	subs	r3, r3, r0
10009872:	b29b      	uxth	r3, r3
10009874:	2000      	movs	r0, #0
10009876:	429a      	cmp	r2, r3
10009878:	d901      	bls.n	1000987e <tu_fifo_remaining+0x1e>
1000987a:	1ad2      	subs	r2, r2, r3
1000987c:	b290      	uxth	r0, r2
1000987e:	bd10      	pop	{r4, pc}
10009880:	0051      	lsls	r1, r2, #1
10009882:	1a09      	subs	r1, r1, r0
10009884:	185b      	adds	r3, r3, r1
10009886:	b29b      	uxth	r3, r3
10009888:	e7f4      	b.n	10009874 <tu_fifo_remaining+0x14>
1000988a:	46c0      	nop			@ (mov r8, r8)

1000988c <tu_fifo_read>:
1000988c:	b570      	push	{r4, r5, r6, lr}
1000988e:	0004      	movs	r4, r0
10009890:	6900      	ldr	r0, [r0, #16]
10009892:	000e      	movs	r6, r1
10009894:	2800      	cmp	r0, #0
10009896:	d003      	beq.n	100098a0 <tu_fifo_read+0x14>
10009898:	2101      	movs	r1, #1
1000989a:	4249      	negs	r1, r1
1000989c:	f001 f9a0 	bl	1000abe0 <__mutex_enter_timeout_ms_veneer>
100098a0:	8925      	ldrh	r5, [r4, #8]
100098a2:	8960      	ldrh	r0, [r4, #10]
100098a4:	88a2      	ldrh	r2, [r4, #4]
100098a6:	b2a9      	uxth	r1, r5
100098a8:	b283      	uxth	r3, r0
100098aa:	4285      	cmp	r5, r0
100098ac:	d332      	bcc.n	10009914 <tu_fifo_read+0x88>
100098ae:	1acd      	subs	r5, r1, r3
100098b0:	b2ad      	uxth	r5, r5
100098b2:	2d00      	cmp	r5, #0
100098b4:	d028      	beq.n	10009908 <tu_fifo_read+0x7c>
100098b6:	42aa      	cmp	r2, r5
100098b8:	d208      	bcs.n	100098cc <tu_fifo_read+0x40>
100098ba:	4291      	cmp	r1, r2
100098bc:	d32f      	bcc.n	1000991e <tu_fifo_read+0x92>
100098be:	1a89      	subs	r1, r1, r2
100098c0:	b28b      	uxth	r3, r1
100098c2:	8163      	strh	r3, [r4, #10]
100098c4:	429a      	cmp	r2, r3
100098c6:	d803      	bhi.n	100098d0 <tu_fifo_read+0x44>
100098c8:	1a9b      	subs	r3, r3, r2
100098ca:	b29b      	uxth	r3, r3
100098cc:	429a      	cmp	r2, r3
100098ce:	d9fb      	bls.n	100098c8 <tu_fifo_read+0x3c>
100098d0:	88e2      	ldrh	r2, [r4, #6]
100098d2:	6821      	ldr	r1, [r4, #0]
100098d4:	0452      	lsls	r2, r2, #17
100098d6:	0c52      	lsrs	r2, r2, #17
100098d8:	4353      	muls	r3, r2
100098da:	0030      	movs	r0, r6
100098dc:	18c9      	adds	r1, r1, r3
100098de:	f7fb ff41 	bl	10005764 <__wrap___aeabi_memcpy>
100098e2:	8963      	ldrh	r3, [r4, #10]
100098e4:	2501      	movs	r5, #1
100098e6:	1c59      	adds	r1, r3, #1
100098e8:	b289      	uxth	r1, r1
100098ea:	88a2      	ldrh	r2, [r4, #4]
100098ec:	428b      	cmp	r3, r1
100098ee:	d90d      	bls.n	1000990c <tu_fifo_read+0x80>
100098f0:	2100      	movs	r1, #0
100098f2:	0052      	lsls	r2, r2, #1
100098f4:	1a89      	subs	r1, r1, r2
100098f6:	b289      	uxth	r1, r1
100098f8:	6920      	ldr	r0, [r4, #16]
100098fa:	8161      	strh	r1, [r4, #10]
100098fc:	2800      	cmp	r0, #0
100098fe:	d001      	beq.n	10009904 <tu_fifo_read+0x78>
10009900:	f001 f946 	bl	1000ab90 <__mutex_exit_veneer>
10009904:	0028      	movs	r0, r5
10009906:	bd70      	pop	{r4, r5, r6, pc}
10009908:	8961      	ldrh	r1, [r4, #10]
1000990a:	b289      	uxth	r1, r1
1000990c:	0052      	lsls	r2, r2, #1
1000990e:	4291      	cmp	r1, r2
10009910:	dbf2      	blt.n	100098f8 <tu_fifo_read+0x6c>
10009912:	e7ef      	b.n	100098f4 <tu_fifo_read+0x68>
10009914:	0055      	lsls	r5, r2, #1
10009916:	1aed      	subs	r5, r5, r3
10009918:	194d      	adds	r5, r1, r5
1000991a:	b2ad      	uxth	r5, r5
1000991c:	e7c9      	b.n	100098b2 <tu_fifo_read+0x26>
1000991e:	1889      	adds	r1, r1, r2
10009920:	b28b      	uxth	r3, r1
10009922:	8163      	strh	r3, [r4, #10]
10009924:	e7ce      	b.n	100098c4 <tu_fifo_read+0x38>
10009926:	46c0      	nop			@ (mov r8, r8)

10009928 <tu_fifo_read_n>:
10009928:	b5f0      	push	{r4, r5, r6, r7, lr}
1000992a:	4646      	mov	r6, r8
1000992c:	464f      	mov	r7, r9
1000992e:	46d6      	mov	lr, sl
10009930:	b5c0      	push	{r6, r7, lr}
10009932:	0006      	movs	r6, r0
10009934:	6900      	ldr	r0, [r0, #16]
10009936:	4689      	mov	r9, r1
10009938:	4690      	mov	r8, r2
1000993a:	2800      	cmp	r0, #0
1000993c:	d003      	beq.n	10009946 <tu_fifo_read_n+0x1e>
1000993e:	2101      	movs	r1, #1
10009940:	4249      	negs	r1, r1
10009942:	f001 f94d 	bl	1000abe0 <__mutex_enter_timeout_ms_veneer>
10009946:	8931      	ldrh	r1, [r6, #8]
10009948:	8972      	ldrh	r2, [r6, #10]
1000994a:	88b5      	ldrh	r5, [r6, #4]
1000994c:	b28b      	uxth	r3, r1
1000994e:	b294      	uxth	r4, r2
10009950:	4291      	cmp	r1, r2
10009952:	d354      	bcc.n	100099fe <tu_fifo_read_n+0xd6>
10009954:	1b1f      	subs	r7, r3, r4
10009956:	b2bf      	uxth	r7, r7
10009958:	2f00      	cmp	r7, #0
1000995a:	d04a      	beq.n	100099f2 <tu_fifo_read_n+0xca>
1000995c:	42bd      	cmp	r5, r7
1000995e:	d205      	bcs.n	1000996c <tu_fifo_read_n+0x44>
10009960:	42ab      	cmp	r3, r5
10009962:	d251      	bcs.n	10009a08 <tu_fifo_read_n+0xe0>
10009964:	195b      	adds	r3, r3, r5
10009966:	b29c      	uxth	r4, r3
10009968:	002f      	movs	r7, r5
1000996a:	8174      	strh	r4, [r6, #10]
1000996c:	4643      	mov	r3, r8
1000996e:	45b8      	cmp	r8, r7
10009970:	d83d      	bhi.n	100099ee <tu_fifo_read_n+0xc6>
10009972:	b29f      	uxth	r7, r3
10009974:	42a5      	cmp	r5, r4
10009976:	d803      	bhi.n	10009980 <tu_fifo_read_n+0x58>
10009978:	1b64      	subs	r4, r4, r5
1000997a:	b2a4      	uxth	r4, r4
1000997c:	42a5      	cmp	r5, r4
1000997e:	d9fb      	bls.n	10009978 <tu_fifo_read_n+0x50>
10009980:	88f2      	ldrh	r2, [r6, #6]
10009982:	6831      	ldr	r1, [r6, #0]
10009984:	0452      	lsls	r2, r2, #17
10009986:	0c52      	lsrs	r2, r2, #17
10009988:	4690      	mov	r8, r2
1000998a:	4362      	muls	r2, r4
1000998c:	1b2b      	subs	r3, r5, r4
1000998e:	b29b      	uxth	r3, r3
10009990:	1889      	adds	r1, r1, r2
10009992:	4642      	mov	r2, r8
10009994:	429f      	cmp	r7, r3
10009996:	d925      	bls.n	100099e4 <tu_fifo_read_n+0xbc>
10009998:	4353      	muls	r3, r2
1000999a:	b29b      	uxth	r3, r3
1000999c:	001a      	movs	r2, r3
1000999e:	4648      	mov	r0, r9
100099a0:	469a      	mov	sl, r3
100099a2:	f7fb fedf 	bl	10005764 <__wrap___aeabi_memcpy>
100099a6:	4643      	mov	r3, r8
100099a8:	4648      	mov	r0, r9
100099aa:	1b7d      	subs	r5, r7, r5
100099ac:	1964      	adds	r4, r4, r5
100099ae:	435c      	muls	r4, r3
100099b0:	6831      	ldr	r1, [r6, #0]
100099b2:	4450      	add	r0, sl
100099b4:	b2a2      	uxth	r2, r4
100099b6:	f7fb fed5 	bl	10005764 <__wrap___aeabi_memcpy>
100099ba:	8971      	ldrh	r1, [r6, #10]
100099bc:	88b5      	ldrh	r5, [r6, #4]
100099be:	19cb      	adds	r3, r1, r7
100099c0:	b29b      	uxth	r3, r3
100099c2:	006a      	lsls	r2, r5, #1
100099c4:	4299      	cmp	r1, r3
100099c6:	d916      	bls.n	100099f6 <tu_fifo_read_n+0xce>
100099c8:	1a9b      	subs	r3, r3, r2
100099ca:	b29b      	uxth	r3, r3
100099cc:	6930      	ldr	r0, [r6, #16]
100099ce:	8173      	strh	r3, [r6, #10]
100099d0:	2800      	cmp	r0, #0
100099d2:	d001      	beq.n	100099d8 <tu_fifo_read_n+0xb0>
100099d4:	f001 f8dc 	bl	1000ab90 <__mutex_exit_veneer>
100099d8:	0038      	movs	r0, r7
100099da:	bce0      	pop	{r5, r6, r7}
100099dc:	46ba      	mov	sl, r7
100099de:	46b1      	mov	r9, r6
100099e0:	46a8      	mov	r8, r5
100099e2:	bdf0      	pop	{r4, r5, r6, r7, pc}
100099e4:	4648      	mov	r0, r9
100099e6:	437a      	muls	r2, r7
100099e8:	f7fb febc 	bl	10005764 <__wrap___aeabi_memcpy>
100099ec:	e7e5      	b.n	100099ba <tu_fifo_read_n+0x92>
100099ee:	1c3b      	adds	r3, r7, #0
100099f0:	e7bf      	b.n	10009972 <tu_fifo_read_n+0x4a>
100099f2:	8973      	ldrh	r3, [r6, #10]
100099f4:	b29b      	uxth	r3, r3
100099f6:	006a      	lsls	r2, r5, #1
100099f8:	4293      	cmp	r3, r2
100099fa:	dbe7      	blt.n	100099cc <tu_fifo_read_n+0xa4>
100099fc:	e7e4      	b.n	100099c8 <tu_fifo_read_n+0xa0>
100099fe:	006f      	lsls	r7, r5, #1
10009a00:	1b3f      	subs	r7, r7, r4
10009a02:	19df      	adds	r7, r3, r7
10009a04:	b2bf      	uxth	r7, r7
10009a06:	e7a7      	b.n	10009958 <tu_fifo_read_n+0x30>
10009a08:	1b5b      	subs	r3, r3, r5
10009a0a:	b29c      	uxth	r4, r3
10009a0c:	e7ac      	b.n	10009968 <tu_fifo_read_n+0x40>
10009a0e:	46c0      	nop			@ (mov r8, r8)

10009a10 <tu_fifo_write>:
10009a10:	b5f8      	push	{r3, r4, r5, r6, r7, lr}
10009a12:	0004      	movs	r4, r0
10009a14:	68c0      	ldr	r0, [r0, #12]
10009a16:	000e      	movs	r6, r1
10009a18:	2800      	cmp	r0, #0
10009a1a:	d003      	beq.n	10009a24 <tu_fifo_write+0x14>
10009a1c:	2101      	movs	r1, #1
10009a1e:	4249      	negs	r1, r1
10009a20:	f001 f8de 	bl	1000abe0 <__mutex_enter_timeout_ms_veneer>
10009a24:	8925      	ldrh	r5, [r4, #8]
10009a26:	8920      	ldrh	r0, [r4, #8]
10009a28:	8961      	ldrh	r1, [r4, #10]
10009a2a:	88a2      	ldrh	r2, [r4, #4]
10009a2c:	b2ad      	uxth	r5, r5
10009a2e:	b283      	uxth	r3, r0
10009a30:	b28f      	uxth	r7, r1
10009a32:	4288      	cmp	r0, r1
10009a34:	d329      	bcc.n	10009a8a <tu_fifo_write+0x7a>
10009a36:	1bdb      	subs	r3, r3, r7
10009a38:	b29b      	uxth	r3, r3
10009a3a:	429a      	cmp	r2, r3
10009a3c:	d809      	bhi.n	10009a52 <tu_fifo_write+0x42>
10009a3e:	79e7      	ldrb	r7, [r4, #7]
10009a40:	09ff      	lsrs	r7, r7, #7
10009a42:	d106      	bne.n	10009a52 <tu_fifo_write+0x42>
10009a44:	68e0      	ldr	r0, [r4, #12]
10009a46:	2800      	cmp	r0, #0
10009a48:	d001      	beq.n	10009a4e <tu_fifo_write+0x3e>
10009a4a:	f001 f8a1 	bl	1000ab90 <__mutex_exit_veneer>
10009a4e:	0038      	movs	r0, r7
10009a50:	bdf8      	pop	{r3, r4, r5, r6, r7, pc}
10009a52:	002b      	movs	r3, r5
10009a54:	4295      	cmp	r5, r2
10009a56:	d31d      	bcc.n	10009a94 <tu_fifo_write+0x84>
10009a58:	1a9b      	subs	r3, r3, r2
10009a5a:	b29b      	uxth	r3, r3
10009a5c:	4293      	cmp	r3, r2
10009a5e:	d2fb      	bcs.n	10009a58 <tu_fifo_write+0x48>
10009a60:	88e2      	ldrh	r2, [r4, #6]
10009a62:	6820      	ldr	r0, [r4, #0]
10009a64:	0452      	lsls	r2, r2, #17
10009a66:	0c52      	lsrs	r2, r2, #17
10009a68:	4353      	muls	r3, r2
10009a6a:	0031      	movs	r1, r6
10009a6c:	18c0      	adds	r0, r0, r3
10009a6e:	f7fb fe79 	bl	10005764 <__wrap___aeabi_memcpy>
10009a72:	1c6b      	adds	r3, r5, #1
10009a74:	b29b      	uxth	r3, r3
10009a76:	88a2      	ldrh	r2, [r4, #4]
10009a78:	429d      	cmp	r5, r3
10009a7a:	d917      	bls.n	10009aac <tu_fifo_write+0x9c>
10009a7c:	2300      	movs	r3, #0
10009a7e:	0052      	lsls	r2, r2, #1
10009a80:	1a9b      	subs	r3, r3, r2
10009a82:	b29b      	uxth	r3, r3
10009a84:	2701      	movs	r7, #1
10009a86:	8123      	strh	r3, [r4, #8]
10009a88:	e7dc      	b.n	10009a44 <tu_fifo_write+0x34>
10009a8a:	0051      	lsls	r1, r2, #1
10009a8c:	1bc9      	subs	r1, r1, r7
10009a8e:	185b      	adds	r3, r3, r1
10009a90:	b29b      	uxth	r3, r3
10009a92:	e7d2      	b.n	10009a3a <tu_fifo_write+0x2a>
10009a94:	88e2      	ldrh	r2, [r4, #6]
10009a96:	6820      	ldr	r0, [r4, #0]
10009a98:	0452      	lsls	r2, r2, #17
10009a9a:	0c52      	lsrs	r2, r2, #17
10009a9c:	4353      	muls	r3, r2
10009a9e:	0031      	movs	r1, r6
10009aa0:	18c0      	adds	r0, r0, r3
10009aa2:	f7fb fe5f 	bl	10005764 <__wrap___aeabi_memcpy>
10009aa6:	3501      	adds	r5, #1
10009aa8:	88a2      	ldrh	r2, [r4, #4]
10009aaa:	b2ab      	uxth	r3, r5
10009aac:	0052      	lsls	r2, r2, #1
10009aae:	4293      	cmp	r3, r2
10009ab0:	dbe8      	blt.n	10009a84 <tu_fifo_write+0x74>
10009ab2:	e7e5      	b.n	10009a80 <tu_fifo_write+0x70>

10009ab4 <tu_fifo_write_n>:
10009ab4:	b5f0      	push	{r4, r5, r6, r7, lr}
10009ab6:	464e      	mov	r6, r9
10009ab8:	4657      	mov	r7, sl
10009aba:	46de      	mov	lr, fp
10009abc:	4645      	mov	r5, r8
10009abe:	b5e0      	push	{r5, r6, r7, lr}
10009ac0:	4689      	mov	r9, r1
10009ac2:	0006      	movs	r6, r0
10009ac4:	0017      	movs	r7, r2
10009ac6:	b083      	sub	sp, #12
10009ac8:	2a00      	cmp	r2, #0
10009aca:	d067      	beq.n	10009b9c <tu_fifo_write_n+0xe8>
10009acc:	68c0      	ldr	r0, [r0, #12]
10009ace:	2800      	cmp	r0, #0
10009ad0:	d003      	beq.n	10009ada <tu_fifo_write_n+0x26>
10009ad2:	2101      	movs	r1, #1
10009ad4:	4249      	negs	r1, r1
10009ad6:	f001 f883 	bl	1000abe0 <__mutex_enter_timeout_ms_veneer>
10009ada:	8933      	ldrh	r3, [r6, #8]
10009adc:	79f2      	ldrb	r2, [r6, #7]
10009ade:	b29b      	uxth	r3, r3
10009ae0:	4698      	mov	r8, r3
10009ae2:	8973      	ldrh	r3, [r6, #10]
10009ae4:	88b5      	ldrh	r5, [r6, #4]
10009ae6:	b29b      	uxth	r3, r3
10009ae8:	09d2      	lsrs	r2, r2, #7
10009aea:	d140      	bne.n	10009b6e <tu_fifo_write_n+0xba>
10009aec:	4598      	cmp	r8, r3
10009aee:	d25e      	bcs.n	10009bae <tu_fifo_write_n+0xfa>
10009af0:	006a      	lsls	r2, r5, #1
10009af2:	1ad3      	subs	r3, r2, r3
10009af4:	4443      	add	r3, r8
10009af6:	b29b      	uxth	r3, r3
10009af8:	42ab      	cmp	r3, r5
10009afa:	d25d      	bcs.n	10009bb8 <tu_fifo_write_n+0x104>
10009afc:	1aeb      	subs	r3, r5, r3
10009afe:	1c1a      	adds	r2, r3, #0
10009b00:	b29b      	uxth	r3, r3
10009b02:	42bb      	cmp	r3, r7
10009b04:	d900      	bls.n	10009b08 <tu_fifo_write_n+0x54>
10009b06:	1c3a      	adds	r2, r7, #0
10009b08:	b297      	uxth	r7, r2
10009b0a:	1b7b      	subs	r3, r7, r5
10009b0c:	b29b      	uxth	r3, r3
10009b0e:	9301      	str	r3, [sp, #4]
10009b10:	88f3      	ldrh	r3, [r6, #6]
10009b12:	045b      	lsls	r3, r3, #17
10009b14:	0c5b      	lsrs	r3, r3, #17
10009b16:	469a      	mov	sl, r3
10009b18:	4643      	mov	r3, r8
10009b1a:	19db      	adds	r3, r3, r7
10009b1c:	b29b      	uxth	r3, r3
10009b1e:	469b      	mov	fp, r3
10009b20:	4644      	mov	r4, r8
10009b22:	45a8      	cmp	r8, r5
10009b24:	d303      	bcc.n	10009b2e <tu_fifo_write_n+0x7a>
10009b26:	1b64      	subs	r4, r4, r5
10009b28:	b2a4      	uxth	r4, r4
10009b2a:	42ac      	cmp	r4, r5
10009b2c:	d2fb      	bcs.n	10009b26 <tu_fifo_write_n+0x72>
10009b2e:	4653      	mov	r3, sl
10009b30:	4363      	muls	r3, r4
10009b32:	6830      	ldr	r0, [r6, #0]
10009b34:	1b2d      	subs	r5, r5, r4
10009b36:	b2ad      	uxth	r5, r5
10009b38:	18c0      	adds	r0, r0, r3
10009b3a:	42bd      	cmp	r5, r7
10009b3c:	d34b      	bcc.n	10009bd6 <tu_fifo_write_n+0x122>
10009b3e:	4652      	mov	r2, sl
10009b40:	4649      	mov	r1, r9
10009b42:	437a      	muls	r2, r7
10009b44:	f7fb fe0e 	bl	10005764 <__wrap___aeabi_memcpy>
10009b48:	88b3      	ldrh	r3, [r6, #4]
10009b4a:	005b      	lsls	r3, r3, #1
10009b4c:	45d8      	cmp	r8, fp
10009b4e:	d801      	bhi.n	10009b54 <tu_fifo_write_n+0xa0>
10009b50:	459b      	cmp	fp, r3
10009b52:	db03      	blt.n	10009b5c <tu_fifo_write_n+0xa8>
10009b54:	465a      	mov	r2, fp
10009b56:	1ad3      	subs	r3, r2, r3
10009b58:	b29b      	uxth	r3, r3
10009b5a:	469b      	mov	fp, r3
10009b5c:	465b      	mov	r3, fp
10009b5e:	003d      	movs	r5, r7
10009b60:	8133      	strh	r3, [r6, #8]
10009b62:	68f0      	ldr	r0, [r6, #12]
10009b64:	2800      	cmp	r0, #0
10009b66:	d01a      	beq.n	10009b9e <tu_fifo_write_n+0xea>
10009b68:	f001 f812 	bl	1000ab90 <__mutex_exit_veneer>
10009b6c:	e017      	b.n	10009b9e <tu_fifo_write_n+0xea>
10009b6e:	88f2      	ldrh	r2, [r6, #6]
10009b70:	0452      	lsls	r2, r2, #17
10009b72:	0c52      	lsrs	r2, r2, #17
10009b74:	4692      	mov	sl, r2
10009b76:	42af      	cmp	r7, r5
10009b78:	d220      	bcs.n	10009bbc <tu_fifo_write_n+0x108>
10009b7a:	4598      	cmp	r8, r3
10009b7c:	d34d      	bcc.n	10009c1a <tu_fifo_write_n+0x166>
10009b7e:	4642      	mov	r2, r8
10009b80:	1ad2      	subs	r2, r2, r3
10009b82:	b292      	uxth	r2, r2
10009b84:	0069      	lsls	r1, r5, #1
10009b86:	1b78      	subs	r0, r7, r5
10009b88:	b280      	uxth	r0, r0
10009b8a:	19d2      	adds	r2, r2, r7
10009b8c:	9001      	str	r0, [sp, #4]
10009b8e:	428a      	cmp	r2, r1
10009b90:	da33      	bge.n	10009bfa <tu_fifo_write_n+0x146>
10009b92:	4643      	mov	r3, r8
10009b94:	18fb      	adds	r3, r7, r3
10009b96:	b29b      	uxth	r3, r3
10009b98:	469b      	mov	fp, r3
10009b9a:	e7c1      	b.n	10009b20 <tu_fifo_write_n+0x6c>
10009b9c:	2500      	movs	r5, #0
10009b9e:	0028      	movs	r0, r5
10009ba0:	b003      	add	sp, #12
10009ba2:	bcf0      	pop	{r4, r5, r6, r7}
10009ba4:	46bb      	mov	fp, r7
10009ba6:	46b2      	mov	sl, r6
10009ba8:	46a9      	mov	r9, r5
10009baa:	46a0      	mov	r8, r4
10009bac:	bdf0      	pop	{r4, r5, r6, r7, pc}
10009bae:	4642      	mov	r2, r8
10009bb0:	1ad3      	subs	r3, r2, r3
10009bb2:	b29b      	uxth	r3, r3
10009bb4:	42ab      	cmp	r3, r5
10009bb6:	d3a1      	bcc.n	10009afc <tu_fifo_write_n+0x48>
10009bb8:	2500      	movs	r5, #0
10009bba:	e7d2      	b.n	10009b62 <tu_fifo_write_n+0xae>
10009bbc:	2d00      	cmp	r5, #0
10009bbe:	d0d0      	beq.n	10009b62 <tu_fifo_write_n+0xae>
10009bc0:	1b7f      	subs	r7, r7, r5
10009bc2:	4357      	muls	r7, r2
10009bc4:	4698      	mov	r8, r3
10009bc6:	195a      	adds	r2, r3, r5
10009bc8:	2300      	movs	r3, #0
10009bca:	b292      	uxth	r2, r2
10009bcc:	44b9      	add	r9, r7
10009bce:	4693      	mov	fp, r2
10009bd0:	002f      	movs	r7, r5
10009bd2:	9301      	str	r3, [sp, #4]
10009bd4:	e7a4      	b.n	10009b20 <tu_fifo_write_n+0x6c>
10009bd6:	4653      	mov	r3, sl
10009bd8:	435d      	muls	r5, r3
10009bda:	b2ad      	uxth	r5, r5
10009bdc:	002a      	movs	r2, r5
10009bde:	4649      	mov	r1, r9
10009be0:	f7fb fdc0 	bl	10005764 <__wrap___aeabi_memcpy>
10009be4:	9b01      	ldr	r3, [sp, #4]
10009be6:	0029      	movs	r1, r5
10009be8:	18e2      	adds	r2, r4, r3
10009bea:	4653      	mov	r3, sl
10009bec:	435a      	muls	r2, r3
10009bee:	6830      	ldr	r0, [r6, #0]
10009bf0:	b292      	uxth	r2, r2
10009bf2:	4449      	add	r1, r9
10009bf4:	f7fb fdb6 	bl	10005764 <__wrap___aeabi_memcpy>
10009bf8:	e7a6      	b.n	10009b48 <tu_fifo_write_n+0x94>
10009bfa:	195a      	adds	r2, r3, r5
10009bfc:	b292      	uxth	r2, r2
10009bfe:	4693      	mov	fp, r2
10009c00:	1bd2      	subs	r2, r2, r7
10009c02:	b292      	uxth	r2, r2
10009c04:	4690      	mov	r8, r2
10009c06:	4293      	cmp	r3, r2
10009c08:	d90c      	bls.n	10009c24 <tu_fifo_write_n+0x170>
10009c0a:	4643      	mov	r3, r8
10009c0c:	1a59      	subs	r1, r3, r1
10009c0e:	b28b      	uxth	r3, r1
10009c10:	4698      	mov	r8, r3
10009c12:	18fb      	adds	r3, r7, r3
10009c14:	b29b      	uxth	r3, r3
10009c16:	469b      	mov	fp, r3
10009c18:	e782      	b.n	10009b20 <tu_fifo_write_n+0x6c>
10009c1a:	0069      	lsls	r1, r5, #1
10009c1c:	1aca      	subs	r2, r1, r3
10009c1e:	4442      	add	r2, r8
10009c20:	b292      	uxth	r2, r2
10009c22:	e7b0      	b.n	10009b86 <tu_fifo_write_n+0xd2>
10009c24:	4291      	cmp	r1, r2
10009c26:	dd00      	ble.n	10009c2a <tu_fifo_write_n+0x176>
10009c28:	e77a      	b.n	10009b20 <tu_fifo_write_n+0x6c>
10009c2a:	e7ee      	b.n	10009c0a <tu_fifo_write_n+0x156>

10009c2c <tu_fifo_clear>:
10009c2c:	b510      	push	{r4, lr}
10009c2e:	0004      	movs	r4, r0
10009c30:	68c0      	ldr	r0, [r0, #12]
10009c32:	2800      	cmp	r0, #0
10009c34:	d003      	beq.n	10009c3e <tu_fifo_clear+0x12>
10009c36:	2101      	movs	r1, #1
10009c38:	4249      	negs	r1, r1
10009c3a:	f000 ffd1 	bl	1000abe0 <__mutex_enter_timeout_ms_veneer>
10009c3e:	6920      	ldr	r0, [r4, #16]
10009c40:	2800      	cmp	r0, #0
10009c42:	d003      	beq.n	10009c4c <tu_fifo_clear+0x20>
10009c44:	2101      	movs	r1, #1
10009c46:	4249      	negs	r1, r1
10009c48:	f000 ffca 	bl	1000abe0 <__mutex_enter_timeout_ms_veneer>
10009c4c:	2300      	movs	r3, #0
10009c4e:	68e0      	ldr	r0, [r4, #12]
10009c50:	8163      	strh	r3, [r4, #10]
10009c52:	8123      	strh	r3, [r4, #8]
10009c54:	2800      	cmp	r0, #0
10009c56:	d001      	beq.n	10009c5c <tu_fifo_clear+0x30>
10009c58:	f000 ff9a 	bl	1000ab90 <__mutex_exit_veneer>
10009c5c:	6920      	ldr	r0, [r4, #16]
10009c5e:	2800      	cmp	r0, #0
10009c60:	d001      	beq.n	10009c66 <tu_fifo_clear+0x3a>
10009c62:	f000 ff95 	bl	1000ab90 <__mutex_exit_veneer>
10009c66:	2001      	movs	r0, #1
10009c68:	bd10      	pop	{r4, pc}
10009c6a:	46c0      	nop			@ (mov r8, r8)

10009c6c <tu_fifo_set_overwritable>:
10009c6c:	b570      	push	{r4, r5, r6, lr}
10009c6e:	0004      	movs	r4, r0
10009c70:	68c0      	ldr	r0, [r0, #12]
10009c72:	000d      	movs	r5, r1
10009c74:	2800      	cmp	r0, #0
10009c76:	d003      	beq.n	10009c80 <tu_fifo_set_overwritable+0x14>
10009c78:	2101      	movs	r1, #1
10009c7a:	4249      	negs	r1, r1
10009c7c:	f000 ffb0 	bl	1000abe0 <__mutex_enter_timeout_ms_veneer>
10009c80:	6920      	ldr	r0, [r4, #16]
10009c82:	2800      	cmp	r0, #0
10009c84:	d003      	beq.n	10009c8e <tu_fifo_set_overwritable+0x22>
10009c86:	2101      	movs	r1, #1
10009c88:	4249      	negs	r1, r1
10009c8a:	f000 ffa9 	bl	1000abe0 <__mutex_enter_timeout_ms_veneer>
10009c8e:	217f      	movs	r1, #127	@ 0x7f
10009c90:	79e3      	ldrb	r3, [r4, #7]
10009c92:	01ed      	lsls	r5, r5, #7
10009c94:	4019      	ands	r1, r3
10009c96:	68e0      	ldr	r0, [r4, #12]
10009c98:	4329      	orrs	r1, r5
10009c9a:	71e1      	strb	r1, [r4, #7]
10009c9c:	2800      	cmp	r0, #0
10009c9e:	d001      	beq.n	10009ca4 <tu_fifo_set_overwritable+0x38>
10009ca0:	f000 ff76 	bl	1000ab90 <__mutex_exit_veneer>
10009ca4:	6920      	ldr	r0, [r4, #16]
10009ca6:	2800      	cmp	r0, #0
10009ca8:	d001      	beq.n	10009cae <tu_fifo_set_overwritable+0x42>
10009caa:	f000 ff71 	bl	1000ab90 <__mutex_exit_veneer>
10009cae:	2001      	movs	r0, #1
10009cb0:	bd70      	pop	{r4, r5, r6, pc}
10009cb2:	46c0      	nop			@ (mov r8, r8)

10009cb4 <pio_claim_unused_sm>:
10009cb4:	b510      	push	{r4, lr}
10009cb6:	4b0a      	ldr	r3, [pc, #40]	@ (10009ce0 <pio_claim_unused_sm+0x2c>)
10009cb8:	4a0a      	ldr	r2, [pc, #40]	@ (10009ce4 <pio_claim_unused_sm+0x30>)
10009cba:	18c4      	adds	r4, r0, r3
10009cbc:	0d24      	lsrs	r4, r4, #20
10009cbe:	00a4      	lsls	r4, r4, #2
10009cc0:	b082      	sub	sp, #8
10009cc2:	9200      	str	r2, [sp, #0]
10009cc4:	4808      	ldr	r0, [pc, #32]	@ (10009ce8 <pio_claim_unused_sm+0x34>)
10009cc6:	0022      	movs	r2, r4
10009cc8:	1ce3      	adds	r3, r4, #3
10009cca:	f7f9 fc1f 	bl	1000350c <hw_claim_unused_from_range>
10009cce:	4284      	cmp	r4, r0
10009cd0:	dc02      	bgt.n	10009cd8 <pio_claim_unused_sm+0x24>
10009cd2:	1b00      	subs	r0, r0, r4
10009cd4:	b002      	add	sp, #8
10009cd6:	bd10      	pop	{r4, pc}
10009cd8:	2001      	movs	r0, #1
10009cda:	4240      	negs	r0, r0
10009cdc:	e7fa      	b.n	10009cd4 <pio_claim_unused_sm+0x20>
10009cde:	46c0      	nop			@ (mov r8, r8)
10009ce0:	afe00000 	.word	0xafe00000
10009ce4:	1000b734 	.word	0x1000b734
10009ce8:	20004d00 	.word	0x20004d00

10009cec <pio_add_program>:
10009cec:	b5f0      	push	{r4, r5, r6, r7, lr}
10009cee:	4657      	mov	r7, sl
10009cf0:	4645      	mov	r5, r8
10009cf2:	46de      	mov	lr, fp
10009cf4:	464e      	mov	r6, r9
10009cf6:	4688      	mov	r8, r1
10009cf8:	b5e0      	push	{r5, r6, r7, lr}
10009cfa:	b083      	sub	sp, #12
10009cfc:	0006      	movs	r6, r0
10009cfe:	2505      	movs	r5, #5
10009d00:	f7f9 fbcc 	bl	1000349c <hw_claim_lock>
10009d04:	4643      	mov	r3, r8
10009d06:	4684      	mov	ip, r0
10009d08:	575d      	ldrsb	r5, [r3, r5]
10009d0a:	7918      	ldrb	r0, [r3, #4]
10009d0c:	4b33      	ldr	r3, [pc, #204]	@ (10009ddc <pio_add_program+0xf0>)
10009d0e:	4a34      	ldr	r2, [pc, #208]	@ (10009de0 <pio_add_program+0xf4>)
10009d10:	18f3      	adds	r3, r6, r3
10009d12:	0d1b      	lsrs	r3, r3, #20
10009d14:	009b      	lsls	r3, r3, #2
10009d16:	4692      	mov	sl, r2
10009d18:	58d7      	ldr	r7, [r2, r3]
10009d1a:	2201      	movs	r2, #1
10009d1c:	2420      	movs	r4, #32
10009d1e:	4082      	lsls	r2, r0
10009d20:	1a24      	subs	r4, r4, r0
10009d22:	3a01      	subs	r2, #1
10009d24:	2d00      	cmp	r5, #0
10009d26:	db41      	blt.n	10009dac <pio_add_program+0xc0>
10009d28:	42a5      	cmp	r5, r4
10009d2a:	dc32      	bgt.n	10009d92 <pio_add_program+0xa6>
10009d2c:	0011      	movs	r1, r2
10009d2e:	40a9      	lsls	r1, r5
10009d30:	420f      	tst	r7, r1
10009d32:	d12e      	bne.n	10009d92 <pio_add_program+0xa6>
10009d34:	4641      	mov	r1, r8
10009d36:	6809      	ldr	r1, [r1, #0]
10009d38:	4689      	mov	r9, r1
10009d3a:	4641      	mov	r1, r8
10009d3c:	7989      	ldrb	r1, [r1, #6]
10009d3e:	2900      	cmp	r1, #0
10009d40:	d145      	bne.n	10009dce <pio_add_program+0xe2>
10009d42:	002c      	movs	r4, r5
10009d44:	40aa      	lsls	r2, r5
10009d46:	4693      	mov	fp, r2
10009d48:	4659      	mov	r1, fp
10009d4a:	403a      	ands	r2, r7
10009d4c:	4239      	tst	r1, r7
10009d4e:	d141      	bne.n	10009dd4 <pio_add_program+0xe8>
10009d50:	2180      	movs	r1, #128	@ 0x80
10009d52:	0189      	lsls	r1, r1, #6
10009d54:	4688      	mov	r8, r1
10009d56:	2800      	cmp	r0, #0
10009d58:	d016      	beq.n	10009d88 <pio_add_program+0x9c>
10009d5a:	4661      	mov	r1, ip
10009d5c:	46a4      	mov	ip, r4
10009d5e:	0034      	movs	r4, r6
10009d60:	464e      	mov	r6, r9
10009d62:	4699      	mov	r9, r3
10009d64:	0003      	movs	r3, r0
10009d66:	9101      	str	r1, [sp, #4]
10009d68:	0051      	lsls	r1, r2, #1
10009d6a:	5a70      	ldrh	r0, [r6, r1]
10009d6c:	4540      	cmp	r0, r8
10009d6e:	d200      	bcs.n	10009d72 <pio_add_program+0x86>
10009d70:	1940      	adds	r0, r0, r5
10009d72:	18a9      	adds	r1, r5, r2
10009d74:	3112      	adds	r1, #18
10009d76:	0089      	lsls	r1, r1, #2
10009d78:	3201      	adds	r2, #1
10009d7a:	5108      	str	r0, [r1, r4]
10009d7c:	429a      	cmp	r2, r3
10009d7e:	d3f3      	bcc.n	10009d68 <pio_add_program+0x7c>
10009d80:	9b01      	ldr	r3, [sp, #4]
10009d82:	4664      	mov	r4, ip
10009d84:	469c      	mov	ip, r3
10009d86:	464b      	mov	r3, r9
10009d88:	465a      	mov	r2, fp
10009d8a:	4317      	orrs	r7, r2
10009d8c:	4652      	mov	r2, sl
10009d8e:	50d7      	str	r7, [r2, r3]
10009d90:	e001      	b.n	10009d96 <pio_add_program+0xaa>
10009d92:	2401      	movs	r4, #1
10009d94:	4264      	negs	r4, r4
10009d96:	4660      	mov	r0, ip
10009d98:	f7f9 fb8c 	bl	100034b4 <hw_claim_unlock>
10009d9c:	0020      	movs	r0, r4
10009d9e:	b003      	add	sp, #12
10009da0:	bcf0      	pop	{r4, r5, r6, r7}
10009da2:	46bb      	mov	fp, r7
10009da4:	46b2      	mov	sl, r6
10009da6:	46a9      	mov	r9, r5
10009da8:	46a0      	mov	r8, r4
10009daa:	bdf0      	pop	{r4, r5, r6, r7, pc}
10009dac:	2c00      	cmp	r4, #0
10009dae:	da02      	bge.n	10009db6 <pio_add_program+0xca>
10009db0:	e010      	b.n	10009dd4 <pio_add_program+0xe8>
10009db2:	3c01      	subs	r4, #1
10009db4:	d30e      	bcc.n	10009dd4 <pio_add_program+0xe8>
10009db6:	0011      	movs	r1, r2
10009db8:	40a1      	lsls	r1, r4
10009dba:	0025      	movs	r5, r4
10009dbc:	420f      	tst	r7, r1
10009dbe:	d1f8      	bne.n	10009db2 <pio_add_program+0xc6>
10009dc0:	4641      	mov	r1, r8
10009dc2:	6809      	ldr	r1, [r1, #0]
10009dc4:	4689      	mov	r9, r1
10009dc6:	4641      	mov	r1, r8
10009dc8:	7989      	ldrb	r1, [r1, #6]
10009dca:	2900      	cmp	r1, #0
10009dcc:	d0ba      	beq.n	10009d44 <pio_add_program+0x58>
10009dce:	2414      	movs	r4, #20
10009dd0:	4264      	negs	r4, r4
10009dd2:	e7e0      	b.n	10009d96 <pio_add_program+0xaa>
10009dd4:	2409      	movs	r4, #9
10009dd6:	4264      	negs	r4, r4
10009dd8:	e7dd      	b.n	10009d96 <pio_add_program+0xaa>
10009dda:	46c0      	nop			@ (mov r8, r8)
10009ddc:	afe00000 	.word	0xafe00000
10009de0:	20004914 	.word	0x20004914

10009de4 <pio_sm_set_consecutive_pindirs>:
10009de4:	b5f0      	push	{r4, r5, r6, r7, lr}
10009de6:	464e      	mov	r6, r9
10009de8:	4645      	mov	r5, r8
10009dea:	46de      	mov	lr, fp
10009dec:	4657      	mov	r7, sl
10009dee:	b5e0      	push	{r5, r6, r7, lr}
10009df0:	b083      	sub	sp, #12
10009df2:	4689      	mov	r9, r1
10009df4:	a90c      	add	r1, sp, #48	@ 0x30
10009df6:	4684      	mov	ip, r0
10009df8:	780d      	ldrb	r5, [r1, #0]
10009dfa:	2a1f      	cmp	r2, #31
10009dfc:	d845      	bhi.n	10009e8a <pio_sm_set_consecutive_pindirs+0xa6>
10009dfe:	4649      	mov	r1, r9
10009e00:	0049      	lsls	r1, r1, #1
10009e02:	4688      	mov	r8, r1
10009e04:	4449      	add	r1, r9
10009e06:	00c9      	lsls	r1, r1, #3
10009e08:	1846      	adds	r6, r0, r1
10009e0a:	0037      	movs	r7, r6
10009e0c:	0034      	movs	r4, r6
10009e0e:	37dc      	adds	r7, #220	@ 0xdc
10009e10:	6838      	ldr	r0, [r7, #0]
10009e12:	34cc      	adds	r4, #204	@ 0xcc
10009e14:	4683      	mov	fp, r0
10009e16:	6820      	ldr	r0, [r4, #0]
10009e18:	0031      	movs	r1, r6
10009e1a:	9001      	str	r0, [sp, #4]
10009e1c:	481c      	ldr	r0, [pc, #112]	@ (10009e90 <pio_sm_set_consecutive_pindirs+0xac>)
10009e1e:	2480      	movs	r4, #128	@ 0x80
10009e20:	4682      	mov	sl, r0
10009e22:	02a4      	lsls	r4, r4, #10
10009e24:	4451      	add	r1, sl
10009e26:	600c      	str	r4, [r1, #0]
10009e28:	4269      	negs	r1, r5
10009e2a:	414d      	adcs	r5, r1
10009e2c:	211e      	movs	r1, #30
10009e2e:	426d      	negs	r5, r5
10009e30:	438d      	bics	r5, r1
10009e32:	4918      	ldr	r1, [pc, #96]	@ (10009e94 <pio_sm_set_consecutive_pindirs+0xb0>)
10009e34:	468a      	mov	sl, r1
10009e36:	4455      	add	r5, sl
10009e38:	2b05      	cmp	r3, #5
10009e3a:	d90c      	bls.n	10009e56 <pio_sm_set_consecutive_pindirs+0x72>
10009e3c:	20a0      	movs	r0, #160	@ 0xa0
10009e3e:	211f      	movs	r1, #31
10009e40:	0540      	lsls	r0, r0, #21
10009e42:	36d8      	adds	r6, #216	@ 0xd8
10009e44:	0154      	lsls	r4, r2, #5
10009e46:	4304      	orrs	r4, r0
10009e48:	3205      	adds	r2, #5
10009e4a:	3b05      	subs	r3, #5
10009e4c:	603c      	str	r4, [r7, #0]
10009e4e:	400a      	ands	r2, r1
10009e50:	6035      	str	r5, [r6, #0]
10009e52:	2b05      	cmp	r3, #5
10009e54:	d8f6      	bhi.n	10009e44 <pio_sm_set_consecutive_pindirs+0x60>
10009e56:	0152      	lsls	r2, r2, #5
10009e58:	069b      	lsls	r3, r3, #26
10009e5a:	4313      	orrs	r3, r2
10009e5c:	4642      	mov	r2, r8
10009e5e:	444a      	add	r2, r9
10009e60:	00d2      	lsls	r2, r2, #3
10009e62:	4462      	add	r2, ip
10009e64:	0010      	movs	r0, r2
10009e66:	32dc      	adds	r2, #220	@ 0xdc
10009e68:	6013      	str	r3, [r2, #0]
10009e6a:	0003      	movs	r3, r0
10009e6c:	33d8      	adds	r3, #216	@ 0xd8
10009e6e:	601d      	str	r5, [r3, #0]
10009e70:	465b      	mov	r3, fp
10009e72:	6013      	str	r3, [r2, #0]
10009e74:	9b01      	ldr	r3, [sp, #4]
10009e76:	30cc      	adds	r0, #204	@ 0xcc
10009e78:	6003      	str	r3, [r0, #0]
10009e7a:	2000      	movs	r0, #0
10009e7c:	b003      	add	sp, #12
10009e7e:	bcf0      	pop	{r4, r5, r6, r7}
10009e80:	46bb      	mov	fp, r7
10009e82:	46b2      	mov	sl, r6
10009e84:	46a9      	mov	r9, r5
10009e86:	46a0      	mov	r8, r4
10009e88:	bdf0      	pop	{r4, r5, r6, r7, pc}
10009e8a:	2005      	movs	r0, #5
10009e8c:	4240      	negs	r0, r0
10009e8e:	e7f5      	b.n	10009e7c <pio_sm_set_consecutive_pindirs+0x98>
10009e90:	000030cc 	.word	0x000030cc
10009e94:	0000e09f 	.word	0x0000e09f

10009e98 <pio_sm_init>:
10009e98:	b5f0      	push	{r4, r5, r6, r7, lr}
10009e9a:	2501      	movs	r5, #1
10009e9c:	408d      	lsls	r5, r1
10009e9e:	6804      	ldr	r4, [r0, #0]
10009ea0:	43ac      	bics	r4, r5
10009ea2:	6004      	str	r4, [r0, #0]
10009ea4:	2b00      	cmp	r3, #0
10009ea6:	d02e      	beq.n	10009f06 <pio_sm_init+0x6e>
10009ea8:	004d      	lsls	r5, r1, #1
10009eaa:	186c      	adds	r4, r5, r1
10009eac:	00e4      	lsls	r4, r4, #3
10009eae:	1904      	adds	r4, r0, r4
10009eb0:	0026      	movs	r6, r4
10009eb2:	681f      	ldr	r7, [r3, #0]
10009eb4:	36c8      	adds	r6, #200	@ 0xc8
10009eb6:	6037      	str	r7, [r6, #0]
10009eb8:	689f      	ldr	r7, [r3, #8]
10009eba:	3604      	adds	r6, #4
10009ebc:	6077      	str	r7, [r6, #4]
10009ebe:	685f      	ldr	r7, [r3, #4]
10009ec0:	68db      	ldr	r3, [r3, #12]
10009ec2:	34dc      	adds	r4, #220	@ 0xdc
10009ec4:	6037      	str	r7, [r6, #0]
10009ec6:	6023      	str	r3, [r4, #0]
10009ec8:	186b      	adds	r3, r5, r1
10009eca:	4d18      	ldr	r5, [pc, #96]	@ (10009f2c <pio_sm_init+0x94>)
10009ecc:	00db      	lsls	r3, r3, #3
10009ece:	46ac      	mov	ip, r5
10009ed0:	2580      	movs	r5, #128	@ 0x80
10009ed2:	18c4      	adds	r4, r0, r3
10009ed4:	4464      	add	r4, ip
10009ed6:	062d      	lsls	r5, r5, #24
10009ed8:	6025      	str	r5, [r4, #0]
10009eda:	6025      	str	r5, [r4, #0]
10009edc:	4c14      	ldr	r4, [pc, #80]	@ (10009f30 <pio_sm_init+0x98>)
10009ede:	1d0d      	adds	r5, r1, #4
10009ee0:	408c      	lsls	r4, r1
10009ee2:	6084      	str	r4, [r0, #8]
10009ee4:	2401      	movs	r4, #1
10009ee6:	0026      	movs	r6, r4
10009ee8:	40ae      	lsls	r6, r5
10009eea:	2580      	movs	r5, #128	@ 0x80
10009eec:	3108      	adds	r1, #8
10009eee:	408c      	lsls	r4, r1
10009ef0:	211f      	movs	r1, #31
10009ef2:	01ad      	lsls	r5, r5, #6
10009ef4:	1945      	adds	r5, r0, r5
10009ef6:	18c0      	adds	r0, r0, r3
10009ef8:	400a      	ands	r2, r1
10009efa:	30d8      	adds	r0, #216	@ 0xd8
10009efc:	602e      	str	r6, [r5, #0]
10009efe:	602c      	str	r4, [r5, #0]
10009f00:	6002      	str	r2, [r0, #0]
10009f02:	2000      	movs	r0, #0
10009f04:	bdf0      	pop	{r4, r5, r6, r7, pc}
10009f06:	004d      	lsls	r5, r1, #1
10009f08:	186c      	adds	r4, r5, r1
10009f0a:	00e4      	lsls	r4, r4, #3
10009f0c:	1904      	adds	r4, r0, r4
10009f0e:	0026      	movs	r6, r4
10009f10:	2780      	movs	r7, #128	@ 0x80
10009f12:	36c8      	adds	r6, #200	@ 0xc8
10009f14:	027f      	lsls	r7, r7, #9
10009f16:	6037      	str	r7, [r6, #0]
10009f18:	27c0      	movs	r7, #192	@ 0xc0
10009f1a:	033f      	lsls	r7, r7, #12
10009f1c:	60b7      	str	r7, [r6, #8]
10009f1e:	27f8      	movs	r7, #248	@ 0xf8
10009f20:	3604      	adds	r6, #4
10009f22:	027f      	lsls	r7, r7, #9
10009f24:	34dc      	adds	r4, #220	@ 0xdc
10009f26:	6037      	str	r7, [r6, #0]
10009f28:	6023      	str	r3, [r4, #0]
10009f2a:	e7cd      	b.n	10009ec8 <pio_sm_init+0x30>
10009f2c:	000010d0 	.word	0x000010d0
10009f30:	01010101 	.word	0x01010101

10009f34 <adc_init>:
10009f34:	2301      	movs	r3, #1
10009f36:	2101      	movs	r1, #1
10009f38:	4a08      	ldr	r2, [pc, #32]	@ (10009f5c <adc_init+0x28>)
10009f3a:	6013      	str	r3, [r2, #0]
10009f3c:	4a08      	ldr	r2, [pc, #32]	@ (10009f60 <adc_init+0x2c>)
10009f3e:	6013      	str	r3, [r2, #0]
10009f40:	4a08      	ldr	r2, [pc, #32]	@ (10009f64 <adc_init+0x30>)
10009f42:	0008      	movs	r0, r1
10009f44:	6813      	ldr	r3, [r2, #0]
10009f46:	4398      	bics	r0, r3
10009f48:	d1fb      	bne.n	10009f42 <adc_init+0xe>
10009f4a:	4a07      	ldr	r2, [pc, #28]	@ (10009f68 <adc_init+0x34>)
10009f4c:	6011      	str	r1, [r2, #0]
10009f4e:	2180      	movs	r1, #128	@ 0x80
10009f50:	0049      	lsls	r1, r1, #1
10009f52:	6813      	ldr	r3, [r2, #0]
10009f54:	420b      	tst	r3, r1
10009f56:	d0fc      	beq.n	10009f52 <adc_init+0x1e>
10009f58:	4770      	bx	lr
10009f5a:	46c0      	nop			@ (mov r8, r8)
10009f5c:	4000e000 	.word	0x4000e000
10009f60:	4000f000 	.word	0x4000f000
10009f64:	4000c008 	.word	0x4000c008
10009f68:	4004c000 	.word	0x4004c000

10009f6c <i2c_write_blocking_internal.constprop.0>:
10009f6c:	b5f0      	push	{r4, r5, r6, r7, lr}
10009f6e:	46de      	mov	lr, fp
10009f70:	4657      	mov	r7, sl
10009f72:	464e      	mov	r6, r9
10009f74:	4645      	mov	r5, r8
10009f76:	4690      	mov	r8, r2
10009f78:	2200      	movs	r2, #0
10009f7a:	b5e0      	push	{r5, r6, r7, lr}
10009f7c:	b085      	sub	sp, #20
10009f7e:	001e      	movs	r6, r3
10009f80:	ab0e      	add	r3, sp, #56	@ 0x38
10009f82:	781b      	ldrb	r3, [r3, #0]
10009f84:	0007      	movs	r7, r0
10009f86:	469b      	mov	fp, r3
10009f88:	6803      	ldr	r3, [r0, #0]
10009f8a:	66da      	str	r2, [r3, #108]	@ 0x6c
10009f8c:	3201      	adds	r2, #1
10009f8e:	6059      	str	r1, [r3, #4]
10009f90:	66da      	str	r2, [r3, #108]	@ 0x6c
10009f92:	2e00      	cmp	r6, #0
10009f94:	dd60      	ble.n	1000a058 <i2c_write_blocking_internal.constprop.0+0xec>
10009f96:	7902      	ldrb	r2, [r0, #4]
10009f98:	4659      	mov	r1, fp
10009f9a:	0292      	lsls	r2, r2, #10
10009f9c:	4692      	mov	sl, r2
10009f9e:	2201      	movs	r2, #1
10009fa0:	404a      	eors	r2, r1
10009fa2:	0252      	lsls	r2, r2, #9
10009fa4:	4694      	mov	ip, r2
10009fa6:	2280      	movs	r2, #128	@ 0x80
10009fa8:	4691      	mov	r9, r2
10009faa:	465a      	mov	r2, fp
10009fac:	2480      	movs	r4, #128	@ 0x80
10009fae:	9203      	str	r2, [sp, #12]
10009fb0:	4662      	mov	r2, ip
10009fb2:	46bb      	mov	fp, r7
10009fb4:	2000      	movs	r0, #0
10009fb6:	2110      	movs	r1, #16
10009fb8:	4647      	mov	r7, r8
10009fba:	46b4      	mov	ip, r6
10009fbc:	1e75      	subs	r5, r6, #1
10009fbe:	00a4      	lsls	r4, r4, #2
10009fc0:	9201      	str	r2, [sp, #4]
10009fc2:	1b42      	subs	r2, r0, r5
10009fc4:	0016      	movs	r6, r2
10009fc6:	4272      	negs	r2, r6
10009fc8:	4172      	adcs	r2, r6
10009fca:	9e01      	ldr	r6, [sp, #4]
10009fcc:	4252      	negs	r2, r2
10009fce:	4016      	ands	r6, r2
10009fd0:	9602      	str	r6, [sp, #8]
10009fd2:	5c3e      	ldrb	r6, [r7, r0]
10009fd4:	46b0      	mov	r8, r6
10009fd6:	4656      	mov	r6, sl
10009fd8:	4642      	mov	r2, r8
10009fda:	4316      	orrs	r6, r2
10009fdc:	0032      	movs	r2, r6
10009fde:	9e02      	ldr	r6, [sp, #8]
10009fe0:	4316      	orrs	r6, r2
10009fe2:	611e      	str	r6, [r3, #16]
10009fe4:	9e01      	ldr	r6, [sp, #4]
10009fe6:	6b5a      	ldr	r2, [r3, #52]	@ 0x34
10009fe8:	4211      	tst	r1, r2
10009fea:	d0fc      	beq.n	10009fe6 <i2c_write_blocking_internal.constprop.0+0x7a>
10009fec:	464a      	mov	r2, r9
10009fee:	589a      	ldr	r2, [r3, r2]
10009ff0:	9601      	str	r6, [sp, #4]
10009ff2:	4692      	mov	sl, r2
10009ff4:	2a00      	cmp	r2, #0
10009ff6:	d10a      	bne.n	1000a00e <i2c_write_blocking_internal.constprop.0+0xa2>
10009ff8:	42a8      	cmp	r0, r5
10009ffa:	d028      	beq.n	1000a04e <i2c_write_blocking_internal.constprop.0+0xe2>
10009ffc:	2200      	movs	r2, #0
10009ffe:	3001      	adds	r0, #1
1000a000:	4692      	mov	sl, r2
1000a002:	4584      	cmp	ip, r0
1000a004:	d1dd      	bne.n	10009fc2 <i2c_write_blocking_internal.constprop.0+0x56>
1000a006:	9b03      	ldr	r3, [sp, #12]
1000a008:	465f      	mov	r7, fp
1000a00a:	469b      	mov	fp, r3
1000a00c:	e016      	b.n	1000a03c <i2c_write_blocking_internal.constprop.0+0xd0>
1000a00e:	6d5a      	ldr	r2, [r3, #84]	@ 0x54
1000a010:	2201      	movs	r2, #1
1000a012:	4690      	mov	r8, r2
1000a014:	6b5a      	ldr	r2, [r3, #52]	@ 0x34
1000a016:	4222      	tst	r2, r4
1000a018:	d0fc      	beq.n	1000a014 <i2c_write_blocking_internal.constprop.0+0xa8>
1000a01a:	6e1a      	ldr	r2, [r3, #96]	@ 0x60
1000a01c:	4642      	mov	r2, r8
1000a01e:	9601      	str	r6, [sp, #4]
1000a020:	2a00      	cmp	r2, #0
1000a022:	d0eb      	beq.n	10009ffc <i2c_write_blocking_internal.constprop.0+0x90>
1000a024:	9b03      	ldr	r3, [sp, #12]
1000a026:	465f      	mov	r7, fp
1000a028:	469b      	mov	fp, r3
1000a02a:	4653      	mov	r3, sl
1000a02c:	2b00      	cmp	r3, #0
1000a02e:	d015      	beq.n	1000a05c <i2c_write_blocking_internal.constprop.0+0xf0>
1000a030:	4653      	mov	r3, sl
1000a032:	07db      	lsls	r3, r3, #31
1000a034:	d412      	bmi.n	1000a05c <i2c_write_blocking_internal.constprop.0+0xf0>
1000a036:	4653      	mov	r3, sl
1000a038:	071b      	lsls	r3, r3, #28
1000a03a:	d50f      	bpl.n	1000a05c <i2c_write_blocking_internal.constprop.0+0xf0>
1000a03c:	465b      	mov	r3, fp
1000a03e:	713b      	strb	r3, [r7, #4]
1000a040:	b005      	add	sp, #20
1000a042:	bcf0      	pop	{r4, r5, r6, r7}
1000a044:	46bb      	mov	fp, r7
1000a046:	46b2      	mov	sl, r6
1000a048:	46a9      	mov	r9, r5
1000a04a:	46a0      	mov	r8, r4
1000a04c:	bdf0      	pop	{r4, r5, r6, r7, pc}
1000a04e:	9a03      	ldr	r2, [sp, #12]
1000a050:	2a00      	cmp	r2, #0
1000a052:	d1d3      	bne.n	10009ffc <i2c_write_blocking_internal.constprop.0+0x90>
1000a054:	4690      	mov	r8, r2
1000a056:	e7dd      	b.n	1000a014 <i2c_write_blocking_internal.constprop.0+0xa8>
1000a058:	2000      	movs	r0, #0
1000a05a:	e7ef      	b.n	1000a03c <i2c_write_blocking_internal.constprop.0+0xd0>
1000a05c:	2001      	movs	r0, #1
1000a05e:	4240      	negs	r0, r0
1000a060:	e7ec      	b.n	1000a03c <i2c_write_blocking_internal.constprop.0+0xd0>
1000a062:	46c0      	nop			@ (mov r8, r8)

1000a064 <i2c_set_baudrate>:
1000a064:	b5f8      	push	{r3, r4, r5, r6, r7, lr}
1000a066:	46de      	mov	lr, fp
1000a068:	4657      	mov	r7, sl
1000a06a:	464e      	mov	r6, r9
1000a06c:	4645      	mov	r5, r8
1000a06e:	4683      	mov	fp, r0
1000a070:	b5e0      	push	{r5, r6, r7, lr}
1000a072:	2005      	movs	r0, #5
1000a074:	000c      	movs	r4, r1
1000a076:	f7fa fafb 	bl	10004670 <clock_get_hz>
1000a07a:	0006      	movs	r6, r0
1000a07c:	0860      	lsrs	r0, r4, #1
1000a07e:	0021      	movs	r1, r4
1000a080:	1980      	adds	r0, r0, r6
1000a082:	f7fa ff23 	bl	10004ecc <__wrap___aeabi_uidiv>
1000a086:	0043      	lsls	r3, r0, #1
1000a088:	4698      	mov	r8, r3
1000a08a:	4480      	add	r8, r0
1000a08c:	0007      	movs	r7, r0
1000a08e:	2105      	movs	r1, #5
1000a090:	4640      	mov	r0, r8
1000a092:	f7fa ff1b 	bl	10004ecc <__wrap___aeabi_uidiv>
1000a096:	1a3b      	subs	r3, r7, r0
1000a098:	469a      	mov	sl, r3
1000a09a:	4b1e      	ldr	r3, [pc, #120]	@ (1000a114 <i2c_set_baudrate+0xb0>)
1000a09c:	4681      	mov	r9, r0
1000a09e:	0070      	lsls	r0, r6, #1
1000a0a0:	1980      	adds	r0, r0, r6
1000a0a2:	429c      	cmp	r4, r3
1000a0a4:	d831      	bhi.n	1000a10a <i2c_set_baudrate+0xa6>
1000a0a6:	491c      	ldr	r1, [pc, #112]	@ (1000a118 <i2c_set_baudrate+0xb4>)
1000a0a8:	f7fa ff10 	bl	10004ecc <__wrap___aeabi_uidiv>
1000a0ac:	1c45      	adds	r5, r0, #1
1000a0ae:	465b      	mov	r3, fp
1000a0b0:	681c      	ldr	r4, [r3, #0]
1000a0b2:	2300      	movs	r3, #0
1000a0b4:	66e3      	str	r3, [r4, #108]	@ 0x6c
1000a0b6:	6822      	ldr	r2, [r4, #0]
1000a0b8:	3304      	adds	r3, #4
1000a0ba:	405a      	eors	r2, r3
1000a0bc:	3302      	adds	r3, #2
1000a0be:	4013      	ands	r3, r2
1000a0c0:	2280      	movs	r2, #128	@ 0x80
1000a0c2:	0152      	lsls	r2, r2, #5
1000a0c4:	18a2      	adds	r2, r4, r2
1000a0c6:	6013      	str	r3, [r2, #0]
1000a0c8:	4653      	mov	r3, sl
1000a0ca:	61e3      	str	r3, [r4, #28]
1000a0cc:	464b      	mov	r3, r9
1000a0ce:	6223      	str	r3, [r4, #32]
1000a0d0:	4643      	mov	r3, r8
1000a0d2:	2001      	movs	r0, #1
1000a0d4:	2b4f      	cmp	r3, #79	@ 0x4f
1000a0d6:	d903      	bls.n	1000a0e0 <i2c_set_baudrate+0x7c>
1000a0d8:	2150      	movs	r1, #80	@ 0x50
1000a0da:	4640      	mov	r0, r8
1000a0dc:	f7fa fef6 	bl	10004ecc <__wrap___aeabi_uidiv>
1000a0e0:	23a0      	movs	r3, #160	@ 0xa0
1000a0e2:	50e0      	str	r0, [r4, r3]
1000a0e4:	6fe3      	ldr	r3, [r4, #124]	@ 0x7c
1000a0e6:	0039      	movs	r1, r7
1000a0e8:	405d      	eors	r5, r3
1000a0ea:	4b0c      	ldr	r3, [pc, #48]	@ (1000a11c <i2c_set_baudrate+0xb8>)
1000a0ec:	042d      	lsls	r5, r5, #16
1000a0ee:	0c2d      	lsrs	r5, r5, #16
1000a0f0:	18e3      	adds	r3, r4, r3
1000a0f2:	601d      	str	r5, [r3, #0]
1000a0f4:	2301      	movs	r3, #1
1000a0f6:	0030      	movs	r0, r6
1000a0f8:	66e3      	str	r3, [r4, #108]	@ 0x6c
1000a0fa:	f7fa fee7 	bl	10004ecc <__wrap___aeabi_uidiv>
1000a0fe:	bcf0      	pop	{r4, r5, r6, r7}
1000a100:	46bb      	mov	fp, r7
1000a102:	46b2      	mov	sl, r6
1000a104:	46a9      	mov	r9, r5
1000a106:	46a0      	mov	r8, r4
1000a108:	bdf8      	pop	{r3, r4, r5, r6, r7, pc}
1000a10a:	4905      	ldr	r1, [pc, #20]	@ (1000a120 <i2c_set_baudrate+0xbc>)
1000a10c:	f7fa fede 	bl	10004ecc <__wrap___aeabi_uidiv>
1000a110:	1c45      	adds	r5, r0, #1
1000a112:	e7cc      	b.n	1000a0ae <i2c_set_baudrate+0x4a>
1000a114:	000f423f 	.word	0x000f423f
1000a118:	00989680 	.word	0x00989680
1000a11c:	0000107c 	.word	0x0000107c
1000a120:	017d7840 	.word	0x017d7840

1000a124 <i2c_init>:
1000a124:	4a0f      	ldr	r2, [pc, #60]	@ (1000a164 <i2c_init+0x40>)
1000a126:	b570      	push	{r4, r5, r6, lr}
1000a128:	1a82      	subs	r2, r0, r2
1000a12a:	1e53      	subs	r3, r2, #1
1000a12c:	419a      	sbcs	r2, r3
1000a12e:	4b0e      	ldr	r3, [pc, #56]	@ (1000a168 <i2c_init+0x44>)
1000a130:	00d2      	lsls	r2, r2, #3
1000a132:	3208      	adds	r2, #8
1000a134:	601a      	str	r2, [r3, #0]
1000a136:	4b0d      	ldr	r3, [pc, #52]	@ (1000a16c <i2c_init+0x48>)
1000a138:	4c0d      	ldr	r4, [pc, #52]	@ (1000a170 <i2c_init+0x4c>)
1000a13a:	601a      	str	r2, [r3, #0]
1000a13c:	0015      	movs	r5, r2
1000a13e:	6823      	ldr	r3, [r4, #0]
1000a140:	439d      	bics	r5, r3
1000a142:	1e2b      	subs	r3, r5, #0
1000a144:	d1fa      	bne.n	1000a13c <i2c_init+0x18>
1000a146:	2466      	movs	r4, #102	@ 0x66
1000a148:	6802      	ldr	r2, [r0, #0]
1000a14a:	34ff      	adds	r4, #255	@ 0xff
1000a14c:	7105      	strb	r5, [r0, #4]
1000a14e:	66d5      	str	r5, [r2, #108]	@ 0x6c
1000a150:	6014      	str	r4, [r2, #0]
1000a152:	3c63      	subs	r4, #99	@ 0x63
1000a154:	3388      	adds	r3, #136	@ 0x88
1000a156:	3cff      	subs	r4, #255	@ 0xff
1000a158:	63d5      	str	r5, [r2, #60]	@ 0x3c
1000a15a:	6395      	str	r5, [r2, #56]	@ 0x38
1000a15c:	50d4      	str	r4, [r2, r3]
1000a15e:	f7ff ff81 	bl	1000a064 <i2c_set_baudrate>
1000a162:	bd70      	pop	{r4, r5, r6, pc}
1000a164:	20003700 	.word	0x20003700
1000a168:	4000e000 	.word	0x4000e000
1000a16c:	4000f000 	.word	0x4000f000
1000a170:	4000c008 	.word	0x4000c008

1000a174 <i2c_write_blocking>:
1000a174:	b510      	push	{r4, lr}
1000a176:	b082      	sub	sp, #8
1000a178:	466c      	mov	r4, sp
1000a17a:	7c24      	ldrb	r4, [r4, #16]
1000a17c:	9400      	str	r4, [sp, #0]
1000a17e:	f7ff fef5 	bl	10009f6c <i2c_write_blocking_internal.constprop.0>
1000a182:	b002      	add	sp, #8
1000a184:	bd10      	pop	{r4, pc}
1000a186:	46c0      	nop			@ (mov r8, r8)

1000a188 <malloc>:
1000a188:	b510      	push	{r4, lr}
1000a18a:	4b03      	ldr	r3, [pc, #12]	@ (1000a198 <malloc+0x10>)
1000a18c:	0001      	movs	r1, r0
1000a18e:	6818      	ldr	r0, [r3, #0]
1000a190:	f000 f80e 	bl	1000a1b0 <_malloc_r>
1000a194:	bd10      	pop	{r4, pc}
1000a196:	46c0      	nop			@ (mov r8, r8)
1000a198:	20003b18 	.word	0x20003b18

1000a19c <free>:
1000a19c:	b510      	push	{r4, lr}
1000a19e:	4b03      	ldr	r3, [pc, #12]	@ (1000a1ac <free+0x10>)
1000a1a0:	0001      	movs	r1, r0
1000a1a2:	6818      	ldr	r0, [r3, #0]
1000a1a4:	f000 fbf0 	bl	1000a988 <_free_r>
1000a1a8:	bd10      	pop	{r4, pc}
1000a1aa:	46c0      	nop			@ (mov r8, r8)
1000a1ac:	20003b18 	.word	0x20003b18

1000a1b0 <_malloc_r>:
1000a1b0:	b5f0      	push	{r4, r5, r6, r7, lr}
1000a1b2:	464e      	mov	r6, r9
1000a1b4:	4645      	mov	r5, r8
1000a1b6:	46de      	mov	lr, fp
1000a1b8:	4657      	mov	r7, sl
1000a1ba:	b5e0      	push	{r5, r6, r7, lr}
1000a1bc:	000d      	movs	r5, r1
1000a1be:	350b      	adds	r5, #11
1000a1c0:	0006      	movs	r6, r0
1000a1c2:	b085      	sub	sp, #20
1000a1c4:	2d16      	cmp	r5, #22
1000a1c6:	d821      	bhi.n	1000a20c <_malloc_r+0x5c>
1000a1c8:	2910      	cmp	r1, #16
1000a1ca:	d900      	bls.n	1000a1ce <_malloc_r+0x1e>
1000a1cc:	e0d4      	b.n	1000a378 <_malloc_r+0x1c8>
1000a1ce:	f000 fad5 	bl	1000a77c <__malloc_lock>
1000a1d2:	2510      	movs	r5, #16
1000a1d4:	2318      	movs	r3, #24
1000a1d6:	2102      	movs	r1, #2
1000a1d8:	4fca      	ldr	r7, [pc, #808]	@ (1000a504 <_malloc_r+0x354>)
1000a1da:	18fb      	adds	r3, r7, r3
1000a1dc:	001a      	movs	r2, r3
1000a1de:	685c      	ldr	r4, [r3, #4]
1000a1e0:	3a08      	subs	r2, #8
1000a1e2:	4294      	cmp	r4, r2
1000a1e4:	d100      	bne.n	1000a1e8 <_malloc_r+0x38>
1000a1e6:	e186      	b.n	1000a4f6 <_malloc_r+0x346>
1000a1e8:	2203      	movs	r2, #3
1000a1ea:	6863      	ldr	r3, [r4, #4]
1000a1ec:	68a1      	ldr	r1, [r4, #8]
1000a1ee:	4393      	bics	r3, r2
1000a1f0:	68e2      	ldr	r2, [r4, #12]
1000a1f2:	60ca      	str	r2, [r1, #12]
1000a1f4:	6091      	str	r1, [r2, #8]
1000a1f6:	2101      	movs	r1, #1
1000a1f8:	18e3      	adds	r3, r4, r3
1000a1fa:	685a      	ldr	r2, [r3, #4]
1000a1fc:	0030      	movs	r0, r6
1000a1fe:	430a      	orrs	r2, r1
1000a200:	605a      	str	r2, [r3, #4]
1000a202:	f000 fac3 	bl	1000a78c <__malloc_unlock>
1000a206:	0020      	movs	r0, r4
1000a208:	3008      	adds	r0, #8
1000a20a:	e0b8      	b.n	1000a37e <_malloc_r+0x1ce>
1000a20c:	2307      	movs	r3, #7
1000a20e:	439d      	bics	r5, r3
1000a210:	d500      	bpl.n	1000a214 <_malloc_r+0x64>
1000a212:	e0b1      	b.n	1000a378 <_malloc_r+0x1c8>
1000a214:	42a9      	cmp	r1, r5
1000a216:	d900      	bls.n	1000a21a <_malloc_r+0x6a>
1000a218:	e0ae      	b.n	1000a378 <_malloc_r+0x1c8>
1000a21a:	f000 faaf 	bl	1000a77c <__malloc_lock>
1000a21e:	23fc      	movs	r3, #252	@ 0xfc
1000a220:	005b      	lsls	r3, r3, #1
1000a222:	429d      	cmp	r5, r3
1000a224:	d200      	bcs.n	1000a228 <_malloc_r+0x78>
1000a226:	e1e0      	b.n	1000a5ea <_malloc_r+0x43a>
1000a228:	0a69      	lsrs	r1, r5, #9
1000a22a:	d100      	bne.n	1000a22e <_malloc_r+0x7e>
1000a22c:	e0ae      	b.n	1000a38c <_malloc_r+0x1dc>
1000a22e:	2904      	cmp	r1, #4
1000a230:	d900      	bls.n	1000a234 <_malloc_r+0x84>
1000a232:	e1a1      	b.n	1000a578 <_malloc_r+0x3c8>
1000a234:	2338      	movs	r3, #56	@ 0x38
1000a236:	4698      	mov	r8, r3
1000a238:	09a9      	lsrs	r1, r5, #6
1000a23a:	4488      	add	r8, r1
1000a23c:	3139      	adds	r1, #57	@ 0x39
1000a23e:	00cb      	lsls	r3, r1, #3
1000a240:	2208      	movs	r2, #8
1000a242:	4252      	negs	r2, r2
1000a244:	4694      	mov	ip, r2
1000a246:	4faf      	ldr	r7, [pc, #700]	@ (1000a504 <_malloc_r+0x354>)
1000a248:	18fb      	adds	r3, r7, r3
1000a24a:	449c      	add	ip, r3
1000a24c:	4663      	mov	r3, ip
1000a24e:	68dc      	ldr	r4, [r3, #12]
1000a250:	45a4      	cmp	ip, r4
1000a252:	d014      	beq.n	1000a27e <_malloc_r+0xce>
1000a254:	2303      	movs	r3, #3
1000a256:	4699      	mov	r9, r3
1000a258:	000b      	movs	r3, r1
1000a25a:	4661      	mov	r1, ip
1000a25c:	469c      	mov	ip, r3
1000a25e:	e007      	b.n	1000a270 <_malloc_r+0xc0>
1000a260:	68e0      	ldr	r0, [r4, #12]
1000a262:	2a00      	cmp	r2, #0
1000a264:	db00      	blt.n	1000a268 <_malloc_r+0xb8>
1000a266:	e140      	b.n	1000a4ea <_malloc_r+0x33a>
1000a268:	4281      	cmp	r1, r0
1000a26a:	d100      	bne.n	1000a26e <_malloc_r+0xbe>
1000a26c:	e141      	b.n	1000a4f2 <_malloc_r+0x342>
1000a26e:	0004      	movs	r4, r0
1000a270:	464a      	mov	r2, r9
1000a272:	6863      	ldr	r3, [r4, #4]
1000a274:	4393      	bics	r3, r2
1000a276:	1b5a      	subs	r2, r3, r5
1000a278:	2a0f      	cmp	r2, #15
1000a27a:	ddf1      	ble.n	1000a260 <_malloc_r+0xb0>
1000a27c:	4641      	mov	r1, r8
1000a27e:	003a      	movs	r2, r7
1000a280:	693c      	ldr	r4, [r7, #16]
1000a282:	3208      	adds	r2, #8
1000a284:	4294      	cmp	r4, r2
1000a286:	d100      	bne.n	1000a28a <_malloc_r+0xda>
1000a288:	e11e      	b.n	1000a4c8 <_malloc_r+0x318>
1000a28a:	2003      	movs	r0, #3
1000a28c:	6863      	ldr	r3, [r4, #4]
1000a28e:	4383      	bics	r3, r0
1000a290:	1b58      	subs	r0, r3, r5
1000a292:	280f      	cmp	r0, #15
1000a294:	dd00      	ble.n	1000a298 <_malloc_r+0xe8>
1000a296:	e1ac      	b.n	1000a5f2 <_malloc_r+0x442>
1000a298:	613a      	str	r2, [r7, #16]
1000a29a:	617a      	str	r2, [r7, #20]
1000a29c:	2800      	cmp	r0, #0
1000a29e:	daaa      	bge.n	1000a1f6 <_malloc_r+0x46>
1000a2a0:	687a      	ldr	r2, [r7, #4]
1000a2a2:	4690      	mov	r8, r2
1000a2a4:	2280      	movs	r2, #128	@ 0x80
1000a2a6:	0092      	lsls	r2, r2, #2
1000a2a8:	4293      	cmp	r3, r2
1000a2aa:	d300      	bcc.n	1000a2ae <_malloc_r+0xfe>
1000a2ac:	e136      	b.n	1000a51c <_malloc_r+0x36c>
1000a2ae:	08da      	lsrs	r2, r3, #3
1000a2b0:	0958      	lsrs	r0, r3, #5
1000a2b2:	2301      	movs	r3, #1
1000a2b4:	4083      	lsls	r3, r0
1000a2b6:	4640      	mov	r0, r8
1000a2b8:	4318      	orrs	r0, r3
1000a2ba:	4680      	mov	r8, r0
1000a2bc:	00d3      	lsls	r3, r2, #3
1000a2be:	19db      	adds	r3, r3, r7
1000a2c0:	689a      	ldr	r2, [r3, #8]
1000a2c2:	6078      	str	r0, [r7, #4]
1000a2c4:	60e3      	str	r3, [r4, #12]
1000a2c6:	60a2      	str	r2, [r4, #8]
1000a2c8:	609c      	str	r4, [r3, #8]
1000a2ca:	60d4      	str	r4, [r2, #12]
1000a2cc:	2001      	movs	r0, #1
1000a2ce:	108b      	asrs	r3, r1, #2
1000a2d0:	4098      	lsls	r0, r3
1000a2d2:	4540      	cmp	r0, r8
1000a2d4:	d862      	bhi.n	1000a39c <_malloc_r+0x1ec>
1000a2d6:	4643      	mov	r3, r8
1000a2d8:	4203      	tst	r3, r0
1000a2da:	d10a      	bne.n	1000a2f2 <_malloc_r+0x142>
1000a2dc:	2303      	movs	r3, #3
1000a2de:	4399      	bics	r1, r3
1000a2e0:	4643      	mov	r3, r8
1000a2e2:	0040      	lsls	r0, r0, #1
1000a2e4:	3104      	adds	r1, #4
1000a2e6:	4203      	tst	r3, r0
1000a2e8:	d103      	bne.n	1000a2f2 <_malloc_r+0x142>
1000a2ea:	0040      	lsls	r0, r0, #1
1000a2ec:	3104      	adds	r1, #4
1000a2ee:	4203      	tst	r3, r0
1000a2f0:	d0fb      	beq.n	1000a2ea <_malloc_r+0x13a>
1000a2f2:	2303      	movs	r3, #3
1000a2f4:	46b3      	mov	fp, r6
1000a2f6:	469c      	mov	ip, r3
1000a2f8:	000e      	movs	r6, r1
1000a2fa:	46b8      	mov	r8, r7
1000a2fc:	9001      	str	r0, [sp, #4]
1000a2fe:	00f0      	lsls	r0, r6, #3
1000a300:	4440      	add	r0, r8
1000a302:	0001      	movs	r1, r0
1000a304:	46b2      	mov	sl, r6
1000a306:	68cb      	ldr	r3, [r1, #12]
1000a308:	e00b      	b.n	1000a322 <_malloc_r+0x172>
1000a30a:	4664      	mov	r4, ip
1000a30c:	685a      	ldr	r2, [r3, #4]
1000a30e:	001f      	movs	r7, r3
1000a310:	43a2      	bics	r2, r4
1000a312:	68db      	ldr	r3, [r3, #12]
1000a314:	1b54      	subs	r4, r2, r5
1000a316:	2c0f      	cmp	r4, #15
1000a318:	dd00      	ble.n	1000a31c <_malloc_r+0x16c>
1000a31a:	e139      	b.n	1000a590 <_malloc_r+0x3e0>
1000a31c:	2c00      	cmp	r4, #0
1000a31e:	db00      	blt.n	1000a322 <_malloc_r+0x172>
1000a320:	e153      	b.n	1000a5ca <_malloc_r+0x41a>
1000a322:	4299      	cmp	r1, r3
1000a324:	d1f1      	bne.n	1000a30a <_malloc_r+0x15a>
1000a326:	2301      	movs	r3, #1
1000a328:	4699      	mov	r9, r3
1000a32a:	44ca      	add	sl, r9
1000a32c:	4653      	mov	r3, sl
1000a32e:	3108      	adds	r1, #8
1000a330:	079b      	lsls	r3, r3, #30
1000a332:	d1e8      	bne.n	1000a306 <_malloc_r+0x156>
1000a334:	2203      	movs	r2, #3
1000a336:	e005      	b.n	1000a344 <_malloc_r+0x194>
1000a338:	6803      	ldr	r3, [r0, #0]
1000a33a:	3808      	subs	r0, #8
1000a33c:	3e01      	subs	r6, #1
1000a33e:	4283      	cmp	r3, r0
1000a340:	d000      	beq.n	1000a344 <_malloc_r+0x194>
1000a342:	e213      	b.n	1000a76c <_malloc_r+0x5bc>
1000a344:	4232      	tst	r2, r6
1000a346:	d1f7      	bne.n	1000a338 <_malloc_r+0x188>
1000a348:	4643      	mov	r3, r8
1000a34a:	9a01      	ldr	r2, [sp, #4]
1000a34c:	685b      	ldr	r3, [r3, #4]
1000a34e:	4393      	bics	r3, r2
1000a350:	4642      	mov	r2, r8
1000a352:	6053      	str	r3, [r2, #4]
1000a354:	9a01      	ldr	r2, [sp, #4]
1000a356:	0052      	lsls	r2, r2, #1
1000a358:	9201      	str	r2, [sp, #4]
1000a35a:	429a      	cmp	r2, r3
1000a35c:	d81c      	bhi.n	1000a398 <_malloc_r+0x1e8>
1000a35e:	2a00      	cmp	r2, #0
1000a360:	d106      	bne.n	1000a370 <_malloc_r+0x1c0>
1000a362:	e019      	b.n	1000a398 <_malloc_r+0x1e8>
1000a364:	2204      	movs	r2, #4
1000a366:	4691      	mov	r9, r2
1000a368:	9a01      	ldr	r2, [sp, #4]
1000a36a:	44ca      	add	sl, r9
1000a36c:	0052      	lsls	r2, r2, #1
1000a36e:	9201      	str	r2, [sp, #4]
1000a370:	4213      	tst	r3, r2
1000a372:	d0f7      	beq.n	1000a364 <_malloc_r+0x1b4>
1000a374:	4656      	mov	r6, sl
1000a376:	e7c2      	b.n	1000a2fe <_malloc_r+0x14e>
1000a378:	230c      	movs	r3, #12
1000a37a:	6033      	str	r3, [r6, #0]
1000a37c:	2000      	movs	r0, #0
1000a37e:	b005      	add	sp, #20
1000a380:	bcf0      	pop	{r4, r5, r6, r7}
1000a382:	46bb      	mov	fp, r7
1000a384:	46b2      	mov	sl, r6
1000a386:	46a9      	mov	r9, r5
1000a388:	46a0      	mov	r8, r4
1000a38a:	bdf0      	pop	{r4, r5, r6, r7, pc}
1000a38c:	2380      	movs	r3, #128	@ 0x80
1000a38e:	223f      	movs	r2, #63	@ 0x3f
1000a390:	2140      	movs	r1, #64	@ 0x40
1000a392:	4690      	mov	r8, r2
1000a394:	009b      	lsls	r3, r3, #2
1000a396:	e753      	b.n	1000a240 <_malloc_r+0x90>
1000a398:	465e      	mov	r6, fp
1000a39a:	4647      	mov	r7, r8
1000a39c:	2203      	movs	r2, #3
1000a39e:	68bc      	ldr	r4, [r7, #8]
1000a3a0:	6863      	ldr	r3, [r4, #4]
1000a3a2:	4393      	bics	r3, r2
1000a3a4:	4698      	mov	r8, r3
1000a3a6:	42ab      	cmp	r3, r5
1000a3a8:	d303      	bcc.n	1000a3b2 <_malloc_r+0x202>
1000a3aa:	1b5b      	subs	r3, r3, r5
1000a3ac:	2b0f      	cmp	r3, #15
1000a3ae:	dd00      	ble.n	1000a3b2 <_malloc_r+0x202>
1000a3b0:	e08d      	b.n	1000a4ce <_malloc_r+0x31e>
1000a3b2:	0023      	movs	r3, r4
1000a3b4:	4443      	add	r3, r8
1000a3b6:	9302      	str	r3, [sp, #8]
1000a3b8:	4b53      	ldr	r3, [pc, #332]	@ (1000a508 <_malloc_r+0x358>)
1000a3ba:	2008      	movs	r0, #8
1000a3bc:	681b      	ldr	r3, [r3, #0]
1000a3be:	3310      	adds	r3, #16
1000a3c0:	195b      	adds	r3, r3, r5
1000a3c2:	9301      	str	r3, [sp, #4]
1000a3c4:	f000 fa06 	bl	1000a7d4 <sysconf>
1000a3c8:	4950      	ldr	r1, [pc, #320]	@ (1000a50c <_malloc_r+0x35c>)
1000a3ca:	9003      	str	r0, [sp, #12]
1000a3cc:	680b      	ldr	r3, [r1, #0]
1000a3ce:	468a      	mov	sl, r1
1000a3d0:	3301      	adds	r3, #1
1000a3d2:	d006      	beq.n	1000a3e2 <_malloc_r+0x232>
1000a3d4:	4684      	mov	ip, r0
1000a3d6:	9b01      	ldr	r3, [sp, #4]
1000a3d8:	4242      	negs	r2, r0
1000a3da:	3b01      	subs	r3, #1
1000a3dc:	4463      	add	r3, ip
1000a3de:	4013      	ands	r3, r2
1000a3e0:	9301      	str	r3, [sp, #4]
1000a3e2:	0030      	movs	r0, r6
1000a3e4:	9901      	ldr	r1, [sp, #4]
1000a3e6:	f000 f9d9 	bl	1000a79c <_sbrk_r>
1000a3ea:	0003      	movs	r3, r0
1000a3ec:	4681      	mov	r9, r0
1000a3ee:	3301      	adds	r3, #1
1000a3f0:	d100      	bne.n	1000a3f4 <_malloc_r+0x244>
1000a3f2:	e11c      	b.n	1000a62e <_malloc_r+0x47e>
1000a3f4:	9b02      	ldr	r3, [sp, #8]
1000a3f6:	4283      	cmp	r3, r0
1000a3f8:	d900      	bls.n	1000a3fc <_malloc_r+0x24c>
1000a3fa:	e116      	b.n	1000a62a <_malloc_r+0x47a>
1000a3fc:	4b44      	ldr	r3, [pc, #272]	@ (1000a510 <_malloc_r+0x360>)
1000a3fe:	9802      	ldr	r0, [sp, #8]
1000a400:	469b      	mov	fp, r3
1000a402:	681a      	ldr	r2, [r3, #0]
1000a404:	9b01      	ldr	r3, [sp, #4]
1000a406:	4659      	mov	r1, fp
1000a408:	469c      	mov	ip, r3
1000a40a:	4462      	add	r2, ip
1000a40c:	600a      	str	r2, [r1, #0]
1000a40e:	9903      	ldr	r1, [sp, #12]
1000a410:	3901      	subs	r1, #1
1000a412:	4548      	cmp	r0, r9
1000a414:	d100      	bne.n	1000a418 <_malloc_r+0x268>
1000a416:	e157      	b.n	1000a6c8 <_malloc_r+0x518>
1000a418:	4653      	mov	r3, sl
1000a41a:	681b      	ldr	r3, [r3, #0]
1000a41c:	3301      	adds	r3, #1
1000a41e:	d100      	bne.n	1000a422 <_malloc_r+0x272>
1000a420:	e15e      	b.n	1000a6e0 <_malloc_r+0x530>
1000a422:	464b      	mov	r3, r9
1000a424:	9802      	ldr	r0, [sp, #8]
1000a426:	1a1b      	subs	r3, r3, r0
1000a428:	189b      	adds	r3, r3, r2
1000a42a:	465a      	mov	r2, fp
1000a42c:	6013      	str	r3, [r2, #0]
1000a42e:	2307      	movs	r3, #7
1000a430:	464a      	mov	r2, r9
1000a432:	4648      	mov	r0, r9
1000a434:	401a      	ands	r2, r3
1000a436:	9202      	str	r2, [sp, #8]
1000a438:	4218      	tst	r0, r3
1000a43a:	d100      	bne.n	1000a43e <_malloc_r+0x28e>
1000a43c:	e115      	b.n	1000a66a <_malloc_r+0x4ba>
1000a43e:	9803      	ldr	r0, [sp, #12]
1000a440:	3301      	adds	r3, #1
1000a442:	4684      	mov	ip, r0
1000a444:	1a9b      	subs	r3, r3, r2
1000a446:	9a01      	ldr	r2, [sp, #4]
1000a448:	4499      	add	r9, r3
1000a44a:	444a      	add	r2, r9
1000a44c:	9201      	str	r2, [sp, #4]
1000a44e:	4463      	add	r3, ip
1000a450:	400a      	ands	r2, r1
1000a452:	1a9b      	subs	r3, r3, r2
1000a454:	4019      	ands	r1, r3
1000a456:	0030      	movs	r0, r6
1000a458:	468a      	mov	sl, r1
1000a45a:	f000 f99f 	bl	1000a79c <_sbrk_r>
1000a45e:	1c43      	adds	r3, r0, #1
1000a460:	d100      	bne.n	1000a464 <_malloc_r+0x2b4>
1000a462:	e158      	b.n	1000a716 <_malloc_r+0x566>
1000a464:	464b      	mov	r3, r9
1000a466:	1ac0      	subs	r0, r0, r3
1000a468:	0003      	movs	r3, r0
1000a46a:	4453      	add	r3, sl
1000a46c:	9301      	str	r3, [sp, #4]
1000a46e:	465b      	mov	r3, fp
1000a470:	681a      	ldr	r2, [r3, #0]
1000a472:	2001      	movs	r0, #1
1000a474:	4452      	add	r2, sl
1000a476:	601a      	str	r2, [r3, #0]
1000a478:	464b      	mov	r3, r9
1000a47a:	4649      	mov	r1, r9
1000a47c:	60bb      	str	r3, [r7, #8]
1000a47e:	9b01      	ldr	r3, [sp, #4]
1000a480:	4303      	orrs	r3, r0
1000a482:	604b      	str	r3, [r1, #4]
1000a484:	42bc      	cmp	r4, r7
1000a486:	d013      	beq.n	1000a4b0 <_malloc_r+0x300>
1000a488:	4643      	mov	r3, r8
1000a48a:	2b0f      	cmp	r3, #15
1000a48c:	d800      	bhi.n	1000a490 <_malloc_r+0x2e0>
1000a48e:	e12b      	b.n	1000a6e8 <_malloc_r+0x538>
1000a490:	2107      	movs	r1, #7
1000a492:	3b0c      	subs	r3, #12
1000a494:	438b      	bics	r3, r1
1000a496:	6861      	ldr	r1, [r4, #4]
1000a498:	4001      	ands	r1, r0
1000a49a:	2005      	movs	r0, #5
1000a49c:	4319      	orrs	r1, r3
1000a49e:	6061      	str	r1, [r4, #4]
1000a4a0:	18e1      	adds	r1, r4, r3
1000a4a2:	6048      	str	r0, [r1, #4]
1000a4a4:	6088      	str	r0, [r1, #8]
1000a4a6:	2b0f      	cmp	r3, #15
1000a4a8:	d900      	bls.n	1000a4ac <_malloc_r+0x2fc>
1000a4aa:	e13f      	b.n	1000a72c <_malloc_r+0x57c>
1000a4ac:	464b      	mov	r3, r9
1000a4ae:	685b      	ldr	r3, [r3, #4]
1000a4b0:	4918      	ldr	r1, [pc, #96]	@ (1000a514 <_malloc_r+0x364>)
1000a4b2:	6808      	ldr	r0, [r1, #0]
1000a4b4:	4290      	cmp	r0, r2
1000a4b6:	d200      	bcs.n	1000a4ba <_malloc_r+0x30a>
1000a4b8:	600a      	str	r2, [r1, #0]
1000a4ba:	4917      	ldr	r1, [pc, #92]	@ (1000a518 <_malloc_r+0x368>)
1000a4bc:	6808      	ldr	r0, [r1, #0]
1000a4be:	4290      	cmp	r0, r2
1000a4c0:	d200      	bcs.n	1000a4c4 <_malloc_r+0x314>
1000a4c2:	600a      	str	r2, [r1, #0]
1000a4c4:	464c      	mov	r4, r9
1000a4c6:	e0b4      	b.n	1000a632 <_malloc_r+0x482>
1000a4c8:	687b      	ldr	r3, [r7, #4]
1000a4ca:	4698      	mov	r8, r3
1000a4cc:	e6fe      	b.n	1000a2cc <_malloc_r+0x11c>
1000a4ce:	2201      	movs	r2, #1
1000a4d0:	0029      	movs	r1, r5
1000a4d2:	4313      	orrs	r3, r2
1000a4d4:	4311      	orrs	r1, r2
1000a4d6:	1965      	adds	r5, r4, r5
1000a4d8:	6061      	str	r1, [r4, #4]
1000a4da:	0030      	movs	r0, r6
1000a4dc:	60bd      	str	r5, [r7, #8]
1000a4de:	606b      	str	r3, [r5, #4]
1000a4e0:	f000 f954 	bl	1000a78c <__malloc_unlock>
1000a4e4:	0020      	movs	r0, r4
1000a4e6:	3008      	adds	r0, #8
1000a4e8:	e749      	b.n	1000a37e <_malloc_r+0x1ce>
1000a4ea:	68a2      	ldr	r2, [r4, #8]
1000a4ec:	60d0      	str	r0, [r2, #12]
1000a4ee:	6082      	str	r2, [r0, #8]
1000a4f0:	e681      	b.n	1000a1f6 <_malloc_r+0x46>
1000a4f2:	4661      	mov	r1, ip
1000a4f4:	e6c3      	b.n	1000a27e <_malloc_r+0xce>
1000a4f6:	68dc      	ldr	r4, [r3, #12]
1000a4f8:	3102      	adds	r1, #2
1000a4fa:	42a3      	cmp	r3, r4
1000a4fc:	d100      	bne.n	1000a500 <_malloc_r+0x350>
1000a4fe:	e6be      	b.n	1000a27e <_malloc_r+0xce>
1000a500:	e672      	b.n	1000a1e8 <_malloc_r+0x38>
1000a502:	46c0      	nop			@ (mov r8, r8)
1000a504:	20003710 	.word	0x20003710
1000a508:	2000450c 	.word	0x2000450c
1000a50c:	20003708 	.word	0x20003708
1000a510:	200044dc 	.word	0x200044dc
1000a514:	20004504 	.word	0x20004504
1000a518:	20004508 	.word	0x20004508
1000a51c:	0a5a      	lsrs	r2, r3, #9
1000a51e:	2a04      	cmp	r2, #4
1000a520:	d97c      	bls.n	1000a61c <_malloc_r+0x46c>
1000a522:	2a14      	cmp	r2, #20
1000a524:	d900      	bls.n	1000a528 <_malloc_r+0x378>
1000a526:	e0b0      	b.n	1000a68a <_malloc_r+0x4da>
1000a528:	0010      	movs	r0, r2
1000a52a:	305b      	adds	r0, #91	@ 0x5b
1000a52c:	4682      	mov	sl, r0
1000a52e:	325c      	adds	r2, #92	@ 0x5c
1000a530:	00d2      	lsls	r2, r2, #3
1000a532:	2008      	movs	r0, #8
1000a534:	4240      	negs	r0, r0
1000a536:	4684      	mov	ip, r0
1000a538:	18ba      	adds	r2, r7, r2
1000a53a:	4494      	add	ip, r2
1000a53c:	4662      	mov	r2, ip
1000a53e:	6892      	ldr	r2, [r2, #8]
1000a540:	300b      	adds	r0, #11
1000a542:	4681      	mov	r9, r0
1000a544:	4594      	cmp	ip, r2
1000a546:	d100      	bne.n	1000a54a <_malloc_r+0x39a>
1000a548:	e086      	b.n	1000a658 <_malloc_r+0x4a8>
1000a54a:	0008      	movs	r0, r1
1000a54c:	46a2      	mov	sl, r4
1000a54e:	4661      	mov	r1, ip
1000a550:	4684      	mov	ip, r0
1000a552:	e002      	b.n	1000a55a <_malloc_r+0x3aa>
1000a554:	6892      	ldr	r2, [r2, #8]
1000a556:	4291      	cmp	r1, r2
1000a558:	d004      	beq.n	1000a564 <_malloc_r+0x3b4>
1000a55a:	464c      	mov	r4, r9
1000a55c:	6850      	ldr	r0, [r2, #4]
1000a55e:	43a0      	bics	r0, r4
1000a560:	4298      	cmp	r0, r3
1000a562:	d8f7      	bhi.n	1000a554 <_malloc_r+0x3a4>
1000a564:	68d3      	ldr	r3, [r2, #12]
1000a566:	4661      	mov	r1, ip
1000a568:	4654      	mov	r4, sl
1000a56a:	469c      	mov	ip, r3
1000a56c:	4663      	mov	r3, ip
1000a56e:	60a2      	str	r2, [r4, #8]
1000a570:	60e3      	str	r3, [r4, #12]
1000a572:	609c      	str	r4, [r3, #8]
1000a574:	60d4      	str	r4, [r2, #12]
1000a576:	e6a9      	b.n	1000a2cc <_malloc_r+0x11c>
1000a578:	2914      	cmp	r1, #20
1000a57a:	d967      	bls.n	1000a64c <_malloc_r+0x49c>
1000a57c:	2954      	cmp	r1, #84	@ 0x54
1000a57e:	d900      	bls.n	1000a582 <_malloc_r+0x3d2>
1000a580:	e08c      	b.n	1000a69c <_malloc_r+0x4ec>
1000a582:	236e      	movs	r3, #110	@ 0x6e
1000a584:	4698      	mov	r8, r3
1000a586:	0b29      	lsrs	r1, r5, #12
1000a588:	4488      	add	r8, r1
1000a58a:	316f      	adds	r1, #111	@ 0x6f
1000a58c:	00cb      	lsls	r3, r1, #3
1000a58e:	e657      	b.n	1000a240 <_malloc_r+0x90>
1000a590:	46ba      	mov	sl, r7
1000a592:	2001      	movs	r0, #1
1000a594:	4651      	mov	r1, sl
1000a596:	4684      	mov	ip, r0
1000a598:	1949      	adds	r1, r1, r5
1000a59a:	4305      	orrs	r5, r0
1000a59c:	4650      	mov	r0, sl
1000a59e:	6045      	str	r5, [r0, #4]
1000a5a0:	6885      	ldr	r5, [r0, #8]
1000a5a2:	4647      	mov	r7, r8
1000a5a4:	4660      	mov	r0, ip
1000a5a6:	60eb      	str	r3, [r5, #12]
1000a5a8:	465e      	mov	r6, fp
1000a5aa:	609d      	str	r5, [r3, #8]
1000a5ac:	4653      	mov	r3, sl
1000a5ae:	6139      	str	r1, [r7, #16]
1000a5b0:	6179      	str	r1, [r7, #20]
1000a5b2:	4320      	orrs	r0, r4
1000a5b4:	3708      	adds	r7, #8
1000a5b6:	6048      	str	r0, [r1, #4]
1000a5b8:	60cf      	str	r7, [r1, #12]
1000a5ba:	0030      	movs	r0, r6
1000a5bc:	608f      	str	r7, [r1, #8]
1000a5be:	509c      	str	r4, [r3, r2]
1000a5c0:	f000 f8e4 	bl	1000a78c <__malloc_unlock>
1000a5c4:	4650      	mov	r0, sl
1000a5c6:	3008      	adds	r0, #8
1000a5c8:	e6d9      	b.n	1000a37e <_malloc_r+0x1ce>
1000a5ca:	46ba      	mov	sl, r7
1000a5cc:	2001      	movs	r0, #1
1000a5ce:	465e      	mov	r6, fp
1000a5d0:	4452      	add	r2, sl
1000a5d2:	6851      	ldr	r1, [r2, #4]
1000a5d4:	4301      	orrs	r1, r0
1000a5d6:	6051      	str	r1, [r2, #4]
1000a5d8:	68ba      	ldr	r2, [r7, #8]
1000a5da:	0030      	movs	r0, r6
1000a5dc:	60d3      	str	r3, [r2, #12]
1000a5de:	609a      	str	r2, [r3, #8]
1000a5e0:	f000 f8d4 	bl	1000a78c <__malloc_unlock>
1000a5e4:	0038      	movs	r0, r7
1000a5e6:	3008      	adds	r0, #8
1000a5e8:	e6c9      	b.n	1000a37e <_malloc_r+0x1ce>
1000a5ea:	002b      	movs	r3, r5
1000a5ec:	08e9      	lsrs	r1, r5, #3
1000a5ee:	3308      	adds	r3, #8
1000a5f0:	e5f2      	b.n	1000a1d8 <_malloc_r+0x28>
1000a5f2:	1961      	adds	r1, r4, r5
1000a5f4:	4688      	mov	r8, r1
1000a5f6:	2101      	movs	r1, #1
1000a5f8:	468c      	mov	ip, r1
1000a5fa:	430d      	orrs	r5, r1
1000a5fc:	4641      	mov	r1, r8
1000a5fe:	6065      	str	r5, [r4, #4]
1000a600:	6139      	str	r1, [r7, #16]
1000a602:	6179      	str	r1, [r7, #20]
1000a604:	60ca      	str	r2, [r1, #12]
1000a606:	608a      	str	r2, [r1, #8]
1000a608:	4662      	mov	r2, ip
1000a60a:	4302      	orrs	r2, r0
1000a60c:	604a      	str	r2, [r1, #4]
1000a60e:	50e0      	str	r0, [r4, r3]
1000a610:	0030      	movs	r0, r6
1000a612:	f000 f8bb 	bl	1000a78c <__malloc_unlock>
1000a616:	0020      	movs	r0, r4
1000a618:	3008      	adds	r0, #8
1000a61a:	e6b0      	b.n	1000a37e <_malloc_r+0x1ce>
1000a61c:	099a      	lsrs	r2, r3, #6
1000a61e:	0010      	movs	r0, r2
1000a620:	3239      	adds	r2, #57	@ 0x39
1000a622:	3038      	adds	r0, #56	@ 0x38
1000a624:	4682      	mov	sl, r0
1000a626:	00d2      	lsls	r2, r2, #3
1000a628:	e783      	b.n	1000a532 <_malloc_r+0x382>
1000a62a:	42bc      	cmp	r4, r7
1000a62c:	d041      	beq.n	1000a6b2 <_malloc_r+0x502>
1000a62e:	68bc      	ldr	r4, [r7, #8]
1000a630:	6863      	ldr	r3, [r4, #4]
1000a632:	2203      	movs	r2, #3
1000a634:	4393      	bics	r3, r2
1000a636:	001a      	movs	r2, r3
1000a638:	1b5b      	subs	r3, r3, r5
1000a63a:	42aa      	cmp	r2, r5
1000a63c:	d302      	bcc.n	1000a644 <_malloc_r+0x494>
1000a63e:	2b0f      	cmp	r3, #15
1000a640:	dd00      	ble.n	1000a644 <_malloc_r+0x494>
1000a642:	e744      	b.n	1000a4ce <_malloc_r+0x31e>
1000a644:	0030      	movs	r0, r6
1000a646:	f000 f8a1 	bl	1000a78c <__malloc_unlock>
1000a64a:	e697      	b.n	1000a37c <_malloc_r+0x1cc>
1000a64c:	235b      	movs	r3, #91	@ 0x5b
1000a64e:	4698      	mov	r8, r3
1000a650:	4488      	add	r8, r1
1000a652:	315c      	adds	r1, #92	@ 0x5c
1000a654:	00cb      	lsls	r3, r1, #3
1000a656:	e5f3      	b.n	1000a240 <_malloc_r+0x90>
1000a658:	4653      	mov	r3, sl
1000a65a:	1098      	asrs	r0, r3, #2
1000a65c:	2301      	movs	r3, #1
1000a65e:	4083      	lsls	r3, r0
1000a660:	4640      	mov	r0, r8
1000a662:	4318      	orrs	r0, r3
1000a664:	4680      	mov	r8, r0
1000a666:	6078      	str	r0, [r7, #4]
1000a668:	e780      	b.n	1000a56c <_malloc_r+0x3bc>
1000a66a:	9b01      	ldr	r3, [sp, #4]
1000a66c:	9a03      	ldr	r2, [sp, #12]
1000a66e:	444b      	add	r3, r9
1000a670:	400b      	ands	r3, r1
1000a672:	1ad3      	subs	r3, r2, r3
1000a674:	4019      	ands	r1, r3
1000a676:	0030      	movs	r0, r6
1000a678:	468a      	mov	sl, r1
1000a67a:	f000 f88f 	bl	1000a79c <_sbrk_r>
1000a67e:	1c43      	adds	r3, r0, #1
1000a680:	d000      	beq.n	1000a684 <_malloc_r+0x4d4>
1000a682:	e6ef      	b.n	1000a464 <_malloc_r+0x2b4>
1000a684:	2300      	movs	r3, #0
1000a686:	469a      	mov	sl, r3
1000a688:	e6f1      	b.n	1000a46e <_malloc_r+0x2be>
1000a68a:	2a54      	cmp	r2, #84	@ 0x54
1000a68c:	d82e      	bhi.n	1000a6ec <_malloc_r+0x53c>
1000a68e:	0b1a      	lsrs	r2, r3, #12
1000a690:	0010      	movs	r0, r2
1000a692:	326f      	adds	r2, #111	@ 0x6f
1000a694:	306e      	adds	r0, #110	@ 0x6e
1000a696:	4682      	mov	sl, r0
1000a698:	00d2      	lsls	r2, r2, #3
1000a69a:	e74a      	b.n	1000a532 <_malloc_r+0x382>
1000a69c:	23aa      	movs	r3, #170	@ 0xaa
1000a69e:	005b      	lsls	r3, r3, #1
1000a6a0:	4299      	cmp	r1, r3
1000a6a2:	d82e      	bhi.n	1000a702 <_malloc_r+0x552>
1000a6a4:	3bdd      	subs	r3, #221	@ 0xdd
1000a6a6:	4698      	mov	r8, r3
1000a6a8:	0be9      	lsrs	r1, r5, #15
1000a6aa:	4488      	add	r8, r1
1000a6ac:	3178      	adds	r1, #120	@ 0x78
1000a6ae:	00cb      	lsls	r3, r1, #3
1000a6b0:	e5c6      	b.n	1000a240 <_malloc_r+0x90>
1000a6b2:	4b30      	ldr	r3, [pc, #192]	@ (1000a774 <_malloc_r+0x5c4>)
1000a6b4:	469b      	mov	fp, r3
1000a6b6:	681a      	ldr	r2, [r3, #0]
1000a6b8:	9b01      	ldr	r3, [sp, #4]
1000a6ba:	469c      	mov	ip, r3
1000a6bc:	465b      	mov	r3, fp
1000a6be:	4462      	add	r2, ip
1000a6c0:	601a      	str	r2, [r3, #0]
1000a6c2:	9b03      	ldr	r3, [sp, #12]
1000a6c4:	1e59      	subs	r1, r3, #1
1000a6c6:	e6a7      	b.n	1000a418 <_malloc_r+0x268>
1000a6c8:	4648      	mov	r0, r9
1000a6ca:	4208      	tst	r0, r1
1000a6cc:	d000      	beq.n	1000a6d0 <_malloc_r+0x520>
1000a6ce:	e6a3      	b.n	1000a418 <_malloc_r+0x268>
1000a6d0:	68b9      	ldr	r1, [r7, #8]
1000a6d2:	4443      	add	r3, r8
1000a6d4:	4689      	mov	r9, r1
1000a6d6:	2101      	movs	r1, #1
1000a6d8:	430b      	orrs	r3, r1
1000a6da:	4649      	mov	r1, r9
1000a6dc:	604b      	str	r3, [r1, #4]
1000a6de:	e6e7      	b.n	1000a4b0 <_malloc_r+0x300>
1000a6e0:	4653      	mov	r3, sl
1000a6e2:	464a      	mov	r2, r9
1000a6e4:	601a      	str	r2, [r3, #0]
1000a6e6:	e6a2      	b.n	1000a42e <_malloc_r+0x27e>
1000a6e8:	6048      	str	r0, [r1, #4]
1000a6ea:	e7ab      	b.n	1000a644 <_malloc_r+0x494>
1000a6ec:	20aa      	movs	r0, #170	@ 0xaa
1000a6ee:	0040      	lsls	r0, r0, #1
1000a6f0:	4282      	cmp	r2, r0
1000a6f2:	d826      	bhi.n	1000a742 <_malloc_r+0x592>
1000a6f4:	0bda      	lsrs	r2, r3, #15
1000a6f6:	0010      	movs	r0, r2
1000a6f8:	3278      	adds	r2, #120	@ 0x78
1000a6fa:	3077      	adds	r0, #119	@ 0x77
1000a6fc:	4682      	mov	sl, r0
1000a6fe:	00d2      	lsls	r2, r2, #3
1000a700:	e717      	b.n	1000a532 <_malloc_r+0x382>
1000a702:	4b1d      	ldr	r3, [pc, #116]	@ (1000a778 <_malloc_r+0x5c8>)
1000a704:	4299      	cmp	r1, r3
1000a706:	d826      	bhi.n	1000a756 <_malloc_r+0x5a6>
1000a708:	237c      	movs	r3, #124	@ 0x7c
1000a70a:	4698      	mov	r8, r3
1000a70c:	0ca9      	lsrs	r1, r5, #18
1000a70e:	4488      	add	r8, r1
1000a710:	317d      	adds	r1, #125	@ 0x7d
1000a712:	00cb      	lsls	r3, r1, #3
1000a714:	e594      	b.n	1000a240 <_malloc_r+0x90>
1000a716:	9a01      	ldr	r2, [sp, #4]
1000a718:	9b02      	ldr	r3, [sp, #8]
1000a71a:	4694      	mov	ip, r2
1000a71c:	464a      	mov	r2, r9
1000a71e:	3b08      	subs	r3, #8
1000a720:	4463      	add	r3, ip
1000a722:	1a9b      	subs	r3, r3, r2
1000a724:	9301      	str	r3, [sp, #4]
1000a726:	2300      	movs	r3, #0
1000a728:	469a      	mov	sl, r3
1000a72a:	e6a0      	b.n	1000a46e <_malloc_r+0x2be>
1000a72c:	0021      	movs	r1, r4
1000a72e:	0030      	movs	r0, r6
1000a730:	3108      	adds	r1, #8
1000a732:	f000 f929 	bl	1000a988 <_free_r>
1000a736:	465b      	mov	r3, fp
1000a738:	681a      	ldr	r2, [r3, #0]
1000a73a:	68bb      	ldr	r3, [r7, #8]
1000a73c:	4699      	mov	r9, r3
1000a73e:	685b      	ldr	r3, [r3, #4]
1000a740:	e6b6      	b.n	1000a4b0 <_malloc_r+0x300>
1000a742:	480d      	ldr	r0, [pc, #52]	@ (1000a778 <_malloc_r+0x5c8>)
1000a744:	4282      	cmp	r2, r0
1000a746:	d80c      	bhi.n	1000a762 <_malloc_r+0x5b2>
1000a748:	0c9a      	lsrs	r2, r3, #18
1000a74a:	0010      	movs	r0, r2
1000a74c:	327d      	adds	r2, #125	@ 0x7d
1000a74e:	307c      	adds	r0, #124	@ 0x7c
1000a750:	4682      	mov	sl, r0
1000a752:	00d2      	lsls	r2, r2, #3
1000a754:	e6ed      	b.n	1000a532 <_malloc_r+0x382>
1000a756:	23fe      	movs	r3, #254	@ 0xfe
1000a758:	227e      	movs	r2, #126	@ 0x7e
1000a75a:	217f      	movs	r1, #127	@ 0x7f
1000a75c:	4690      	mov	r8, r2
1000a75e:	009b      	lsls	r3, r3, #2
1000a760:	e56e      	b.n	1000a240 <_malloc_r+0x90>
1000a762:	22fe      	movs	r2, #254	@ 0xfe
1000a764:	207e      	movs	r0, #126	@ 0x7e
1000a766:	0092      	lsls	r2, r2, #2
1000a768:	4682      	mov	sl, r0
1000a76a:	e6e2      	b.n	1000a532 <_malloc_r+0x382>
1000a76c:	4643      	mov	r3, r8
1000a76e:	685b      	ldr	r3, [r3, #4]
1000a770:	e5f0      	b.n	1000a354 <_malloc_r+0x1a4>
1000a772:	46c0      	nop			@ (mov r8, r8)
1000a774:	200044dc 	.word	0x200044dc
1000a778:	00000554 	.word	0x00000554

1000a77c <__malloc_lock>:
1000a77c:	b510      	push	{r4, lr}
1000a77e:	4802      	ldr	r0, [pc, #8]	@ (1000a788 <__malloc_lock+0xc>)
1000a780:	f000 f824 	bl	1000a7cc <__retarget_lock_acquire_recursive>
1000a784:	bd10      	pop	{r4, pc}
1000a786:	46c0      	nop			@ (mov r8, r8)
1000a788:	200044d8 	.word	0x200044d8

1000a78c <__malloc_unlock>:
1000a78c:	b510      	push	{r4, lr}
1000a78e:	4802      	ldr	r0, [pc, #8]	@ (1000a798 <__malloc_unlock+0xc>)
1000a790:	f000 f81e 	bl	1000a7d0 <__retarget_lock_release_recursive>
1000a794:	bd10      	pop	{r4, pc}
1000a796:	46c0      	nop			@ (mov r8, r8)
1000a798:	200044d8 	.word	0x200044d8

1000a79c <_sbrk_r>:
1000a79c:	2300      	movs	r3, #0
1000a79e:	b570      	push	{r4, r5, r6, lr}
1000a7a0:	4c06      	ldr	r4, [pc, #24]	@ (1000a7bc <_sbrk_r+0x20>)
1000a7a2:	0005      	movs	r5, r0
1000a7a4:	0008      	movs	r0, r1
1000a7a6:	6023      	str	r3, [r4, #0]
1000a7a8:	f7fc fc76 	bl	10007098 <_sbrk>
1000a7ac:	1c43      	adds	r3, r0, #1
1000a7ae:	d000      	beq.n	1000a7b2 <_sbrk_r+0x16>
1000a7b0:	bd70      	pop	{r4, r5, r6, pc}
1000a7b2:	6823      	ldr	r3, [r4, #0]
1000a7b4:	2b00      	cmp	r3, #0
1000a7b6:	d0fb      	beq.n	1000a7b0 <_sbrk_r+0x14>
1000a7b8:	602b      	str	r3, [r5, #0]
1000a7ba:	e7f9      	b.n	1000a7b0 <_sbrk_r+0x14>
1000a7bc:	20004d5c 	.word	0x20004d5c

1000a7c0 <__errno>:
1000a7c0:	4b01      	ldr	r3, [pc, #4]	@ (1000a7c8 <__errno+0x8>)
1000a7c2:	6818      	ldr	r0, [r3, #0]
1000a7c4:	4770      	bx	lr
1000a7c6:	46c0      	nop			@ (mov r8, r8)
1000a7c8:	20003b18 	.word	0x20003b18

1000a7cc <__retarget_lock_acquire_recursive>:
1000a7cc:	4770      	bx	lr
1000a7ce:	46c0      	nop			@ (mov r8, r8)

1000a7d0 <__retarget_lock_release_recursive>:
1000a7d0:	4770      	bx	lr
1000a7d2:	46c0      	nop			@ (mov r8, r8)

1000a7d4 <sysconf>:
1000a7d4:	2380      	movs	r3, #128	@ 0x80
1000a7d6:	b510      	push	{r4, lr}
1000a7d8:	015b      	lsls	r3, r3, #5
1000a7da:	2808      	cmp	r0, #8
1000a7dc:	d101      	bne.n	1000a7e2 <sysconf+0xe>
1000a7de:	0018      	movs	r0, r3
1000a7e0:	bd10      	pop	{r4, pc}
1000a7e2:	f7ff ffed 	bl	1000a7c0 <__errno>
1000a7e6:	2316      	movs	r3, #22
1000a7e8:	6003      	str	r3, [r0, #0]
1000a7ea:	3b17      	subs	r3, #23
1000a7ec:	e7f7      	b.n	1000a7de <sysconf+0xa>
1000a7ee:	46c0      	nop			@ (mov r8, r8)

1000a7f0 <strcmp>:
1000a7f0:	4602      	mov	r2, r0
1000a7f2:	b570      	push	{r4, r5, r6, lr}
1000a7f4:	430a      	orrs	r2, r1
1000a7f6:	0792      	lsls	r2, r2, #30
1000a7f8:	d12a      	bne.n	1000a850 <strcmp+0x60>
1000a7fa:	4d1e      	ldr	r5, [pc, #120]	@ (1000a874 <strcmp+0x84>)
1000a7fc:	01ee      	lsls	r6, r5, #7
1000a7fe:	c804      	ldmia	r0!, {r2}
1000a800:	c908      	ldmia	r1!, {r3}
1000a802:	1b54      	subs	r4, r2, r5
1000a804:	4394      	bics	r4, r2
1000a806:	4034      	ands	r4, r6
1000a808:	d017      	beq.n	1000a83a <strcmp+0x4a>
1000a80a:	b2d0      	uxtb	r0, r2
1000a80c:	b2d9      	uxtb	r1, r3
1000a80e:	1a40      	subs	r0, r0, r1
1000a810:	0621      	lsls	r1, r4, #24
1000a812:	4301      	orrs	r1, r0
1000a814:	d110      	bne.n	1000a838 <strcmp+0x48>
1000a816:	b290      	uxth	r0, r2
1000a818:	b299      	uxth	r1, r3
1000a81a:	1a40      	subs	r0, r0, r1
1000a81c:	0421      	lsls	r1, r4, #16
1000a81e:	4301      	orrs	r1, r0
1000a820:	d10a      	bne.n	1000a838 <strcmp+0x48>
1000a822:	0210      	lsls	r0, r2, #8
1000a824:	0219      	lsls	r1, r3, #8
1000a826:	0a00      	lsrs	r0, r0, #8
1000a828:	0a09      	lsrs	r1, r1, #8
1000a82a:	1a40      	subs	r0, r0, r1
1000a82c:	0221      	lsls	r1, r4, #8
1000a82e:	4301      	orrs	r1, r0
1000a830:	d102      	bne.n	1000a838 <strcmp+0x48>
1000a832:	0e10      	lsrs	r0, r2, #24
1000a834:	0e19      	lsrs	r1, r3, #24
1000a836:	1a40      	subs	r0, r0, r1
1000a838:	bd70      	pop	{r4, r5, r6, pc}
1000a83a:	429a      	cmp	r2, r3
1000a83c:	d0df      	beq.n	1000a7fe <strcmp+0xe>
1000a83e:	ba10      	rev	r0, r2
1000a840:	ba19      	rev	r1, r3
1000a842:	4288      	cmp	r0, r1
1000a844:	d901      	bls.n	1000a84a <strcmp+0x5a>
1000a846:	2001      	movs	r0, #1
1000a848:	bd70      	pop	{r4, r5, r6, pc}
1000a84a:	2000      	movs	r0, #0
1000a84c:	43c0      	mvns	r0, r0
1000a84e:	bd70      	pop	{r4, r5, r6, pc}
1000a850:	7802      	ldrb	r2, [r0, #0]
1000a852:	780b      	ldrb	r3, [r1, #0]
1000a854:	3001      	adds	r0, #1
1000a856:	3101      	adds	r1, #1
1000a858:	2a00      	cmp	r2, #0
1000a85a:	d009      	beq.n	1000a870 <strcmp+0x80>
1000a85c:	429a      	cmp	r2, r3
1000a85e:	d107      	bne.n	1000a870 <strcmp+0x80>
1000a860:	7802      	ldrb	r2, [r0, #0]
1000a862:	780b      	ldrb	r3, [r1, #0]
1000a864:	3001      	adds	r0, #1
1000a866:	3101      	adds	r1, #1
1000a868:	2a00      	cmp	r2, #0
1000a86a:	d001      	beq.n	1000a870 <strcmp+0x80>
1000a86c:	429a      	cmp	r2, r3
1000a86e:	d0ef      	beq.n	1000a850 <strcmp+0x60>
1000a870:	1ad0      	subs	r0, r2, r3
1000a872:	bd70      	pop	{r4, r5, r6, pc}
1000a874:	01010101 	.word	0x01010101

1000a878 <strlen>:
1000a878:	b510      	push	{r4, lr}
1000a87a:	0783      	lsls	r3, r0, #30
1000a87c:	d00a      	beq.n	1000a894 <strlen+0x1c>
1000a87e:	0003      	movs	r3, r0
1000a880:	2103      	movs	r1, #3
1000a882:	e002      	b.n	1000a88a <strlen+0x12>
1000a884:	3301      	adds	r3, #1
1000a886:	420b      	tst	r3, r1
1000a888:	d005      	beq.n	1000a896 <strlen+0x1e>
1000a88a:	781a      	ldrb	r2, [r3, #0]
1000a88c:	2a00      	cmp	r2, #0
1000a88e:	d1f9      	bne.n	1000a884 <strlen+0xc>
1000a890:	1a18      	subs	r0, r3, r0
1000a892:	bd10      	pop	{r4, pc}
1000a894:	0003      	movs	r3, r0
1000a896:	6819      	ldr	r1, [r3, #0]
1000a898:	4a0c      	ldr	r2, [pc, #48]	@ (1000a8cc <strlen+0x54>)
1000a89a:	4c0d      	ldr	r4, [pc, #52]	@ (1000a8d0 <strlen+0x58>)
1000a89c:	188a      	adds	r2, r1, r2
1000a89e:	438a      	bics	r2, r1
1000a8a0:	4222      	tst	r2, r4
1000a8a2:	d10f      	bne.n	1000a8c4 <strlen+0x4c>
1000a8a4:	6859      	ldr	r1, [r3, #4]
1000a8a6:	4a09      	ldr	r2, [pc, #36]	@ (1000a8cc <strlen+0x54>)
1000a8a8:	3304      	adds	r3, #4
1000a8aa:	188a      	adds	r2, r1, r2
1000a8ac:	438a      	bics	r2, r1
1000a8ae:	4222      	tst	r2, r4
1000a8b0:	d108      	bne.n	1000a8c4 <strlen+0x4c>
1000a8b2:	6859      	ldr	r1, [r3, #4]
1000a8b4:	4a05      	ldr	r2, [pc, #20]	@ (1000a8cc <strlen+0x54>)
1000a8b6:	3304      	adds	r3, #4
1000a8b8:	188a      	adds	r2, r1, r2
1000a8ba:	438a      	bics	r2, r1
1000a8bc:	4222      	tst	r2, r4
1000a8be:	d0f1      	beq.n	1000a8a4 <strlen+0x2c>
1000a8c0:	e000      	b.n	1000a8c4 <strlen+0x4c>
1000a8c2:	3301      	adds	r3, #1
1000a8c4:	781a      	ldrb	r2, [r3, #0]
1000a8c6:	2a00      	cmp	r2, #0
1000a8c8:	d1fb      	bne.n	1000a8c2 <strlen+0x4a>
1000a8ca:	e7e1      	b.n	1000a890 <strlen+0x18>
1000a8cc:	fefefeff 	.word	0xfefefeff
1000a8d0:	80808080 	.word	0x80808080

1000a8d4 <_malloc_trim_r>:
1000a8d4:	b5f0      	push	{r4, r5, r6, r7, lr}
1000a8d6:	46c6      	mov	lr, r8
1000a8d8:	0006      	movs	r6, r0
1000a8da:	b500      	push	{lr}
1000a8dc:	2008      	movs	r0, #8
1000a8de:	000d      	movs	r5, r1
1000a8e0:	f7ff ff78 	bl	1000a7d4 <sysconf>
1000a8e4:	0004      	movs	r4, r0
1000a8e6:	0030      	movs	r0, r6
1000a8e8:	f7ff ff48 	bl	1000a77c <__malloc_lock>
1000a8ec:	4b23      	ldr	r3, [pc, #140]	@ (1000a97c <_malloc_trim_r+0xa8>)
1000a8ee:	0021      	movs	r1, r4
1000a8f0:	4698      	mov	r8, r3
1000a8f2:	689b      	ldr	r3, [r3, #8]
1000a8f4:	685f      	ldr	r7, [r3, #4]
1000a8f6:	2303      	movs	r3, #3
1000a8f8:	439f      	bics	r7, r3
1000a8fa:	0038      	movs	r0, r7
1000a8fc:	3811      	subs	r0, #17
1000a8fe:	1b40      	subs	r0, r0, r5
1000a900:	1900      	adds	r0, r0, r4
1000a902:	f7fa fae3 	bl	10004ecc <__wrap___aeabi_uidiv>
1000a906:	1e45      	subs	r5, r0, #1
1000a908:	4365      	muls	r5, r4
1000a90a:	42ac      	cmp	r4, r5
1000a90c:	dc08      	bgt.n	1000a920 <_malloc_trim_r+0x4c>
1000a90e:	2100      	movs	r1, #0
1000a910:	0030      	movs	r0, r6
1000a912:	f7ff ff43 	bl	1000a79c <_sbrk_r>
1000a916:	4643      	mov	r3, r8
1000a918:	689b      	ldr	r3, [r3, #8]
1000a91a:	19db      	adds	r3, r3, r7
1000a91c:	4298      	cmp	r0, r3
1000a91e:	d006      	beq.n	1000a92e <_malloc_trim_r+0x5a>
1000a920:	0030      	movs	r0, r6
1000a922:	f7ff ff33 	bl	1000a78c <__malloc_unlock>
1000a926:	2000      	movs	r0, #0
1000a928:	bc80      	pop	{r7}
1000a92a:	46b8      	mov	r8, r7
1000a92c:	bdf0      	pop	{r4, r5, r6, r7, pc}
1000a92e:	0030      	movs	r0, r6
1000a930:	4269      	negs	r1, r5
1000a932:	f7ff ff33 	bl	1000a79c <_sbrk_r>
1000a936:	3001      	adds	r0, #1
1000a938:	d00e      	beq.n	1000a958 <_malloc_trim_r+0x84>
1000a93a:	2201      	movs	r2, #1
1000a93c:	4643      	mov	r3, r8
1000a93e:	1b7f      	subs	r7, r7, r5
1000a940:	689b      	ldr	r3, [r3, #8]
1000a942:	4317      	orrs	r7, r2
1000a944:	4a0e      	ldr	r2, [pc, #56]	@ (1000a980 <_malloc_trim_r+0xac>)
1000a946:	605f      	str	r7, [r3, #4]
1000a948:	6813      	ldr	r3, [r2, #0]
1000a94a:	0030      	movs	r0, r6
1000a94c:	1b5b      	subs	r3, r3, r5
1000a94e:	6013      	str	r3, [r2, #0]
1000a950:	f7ff ff1c 	bl	1000a78c <__malloc_unlock>
1000a954:	2001      	movs	r0, #1
1000a956:	e7e7      	b.n	1000a928 <_malloc_trim_r+0x54>
1000a958:	2100      	movs	r1, #0
1000a95a:	0030      	movs	r0, r6
1000a95c:	f7ff ff1e 	bl	1000a79c <_sbrk_r>
1000a960:	4643      	mov	r3, r8
1000a962:	689a      	ldr	r2, [r3, #8]
1000a964:	1a83      	subs	r3, r0, r2
1000a966:	2b0f      	cmp	r3, #15
1000a968:	ddda      	ble.n	1000a920 <_malloc_trim_r+0x4c>
1000a96a:	4c06      	ldr	r4, [pc, #24]	@ (1000a984 <_malloc_trim_r+0xb0>)
1000a96c:	4904      	ldr	r1, [pc, #16]	@ (1000a980 <_malloc_trim_r+0xac>)
1000a96e:	6824      	ldr	r4, [r4, #0]
1000a970:	1b00      	subs	r0, r0, r4
1000a972:	6008      	str	r0, [r1, #0]
1000a974:	2101      	movs	r1, #1
1000a976:	430b      	orrs	r3, r1
1000a978:	6053      	str	r3, [r2, #4]
1000a97a:	e7d1      	b.n	1000a920 <_malloc_trim_r+0x4c>
1000a97c:	20003710 	.word	0x20003710
1000a980:	200044dc 	.word	0x200044dc
1000a984:	20003708 	.word	0x20003708

1000a988 <_free_r>:
1000a988:	b5f0      	push	{r4, r5, r6, r7, lr}
1000a98a:	46d6      	mov	lr, sl
1000a98c:	464f      	mov	r7, r9
1000a98e:	4646      	mov	r6, r8
1000a990:	0005      	movs	r5, r0
1000a992:	000c      	movs	r4, r1
1000a994:	b5c0      	push	{r6, r7, lr}
1000a996:	2900      	cmp	r1, #0
1000a998:	d048      	beq.n	1000aa2c <_free_r+0xa4>
1000a99a:	f7ff feef 	bl	1000a77c <__malloc_lock>
1000a99e:	0021      	movs	r1, r4
1000a9a0:	2701      	movs	r7, #1
1000a9a2:	3908      	subs	r1, #8
1000a9a4:	684b      	ldr	r3, [r1, #4]
1000a9a6:	2003      	movs	r0, #3
1000a9a8:	469c      	mov	ip, r3
1000a9aa:	43bb      	bics	r3, r7
1000a9ac:	18ce      	adds	r6, r1, r3
1000a9ae:	6872      	ldr	r2, [r6, #4]
1000a9b0:	4382      	bics	r2, r0
1000a9b2:	4660      	mov	r0, ip
1000a9b4:	4038      	ands	r0, r7
1000a9b6:	4680      	mov	r8, r0
1000a9b8:	486a      	ldr	r0, [pc, #424]	@ (1000ab64 <_free_r+0x1dc>)
1000a9ba:	4691      	mov	r9, r2
1000a9bc:	6884      	ldr	r4, [r0, #8]
1000a9be:	42b4      	cmp	r4, r6
1000a9c0:	d100      	bne.n	1000a9c4 <_free_r+0x3c>
1000a9c2:	e07c      	b.n	1000aabe <_free_r+0x136>
1000a9c4:	6072      	str	r2, [r6, #4]
1000a9c6:	18b4      	adds	r4, r6, r2
1000a9c8:	6864      	ldr	r4, [r4, #4]
1000a9ca:	403c      	ands	r4, r7
1000a9cc:	46a2      	mov	sl, r4
1000a9ce:	4644      	mov	r4, r8
1000a9d0:	2c00      	cmp	r4, #0
1000a9d2:	d130      	bne.n	1000aa36 <_free_r+0xae>
1000a9d4:	680c      	ldr	r4, [r1, #0]
1000a9d6:	46a4      	mov	ip, r4
1000a9d8:	1b09      	subs	r1, r1, r4
1000a9da:	688c      	ldr	r4, [r1, #8]
1000a9dc:	4463      	add	r3, ip
1000a9de:	46a4      	mov	ip, r4
1000a9e0:	2408      	movs	r4, #8
1000a9e2:	46a0      	mov	r8, r4
1000a9e4:	4480      	add	r8, r0
1000a9e6:	45c4      	cmp	ip, r8
1000a9e8:	d05c      	beq.n	1000aaa4 <_free_r+0x11c>
1000a9ea:	68cc      	ldr	r4, [r1, #12]
1000a9ec:	46a0      	mov	r8, r4
1000a9ee:	4664      	mov	r4, ip
1000a9f0:	4642      	mov	r2, r8
1000a9f2:	60e2      	str	r2, [r4, #12]
1000a9f4:	6094      	str	r4, [r2, #8]
1000a9f6:	4652      	mov	r2, sl
1000a9f8:	2a00      	cmp	r2, #0
1000a9fa:	d01f      	beq.n	1000aa3c <_free_r+0xb4>
1000a9fc:	431f      	orrs	r7, r3
1000a9fe:	604f      	str	r7, [r1, #4]
1000aa00:	6033      	str	r3, [r6, #0]
1000aa02:	2280      	movs	r2, #128	@ 0x80
1000aa04:	0092      	lsls	r2, r2, #2
1000aa06:	4293      	cmp	r3, r2
1000aa08:	d230      	bcs.n	1000aa6c <_free_r+0xe4>
1000aa0a:	08da      	lsrs	r2, r3, #3
1000aa0c:	095c      	lsrs	r4, r3, #5
1000aa0e:	2301      	movs	r3, #1
1000aa10:	40a3      	lsls	r3, r4
1000aa12:	6844      	ldr	r4, [r0, #4]
1000aa14:	4323      	orrs	r3, r4
1000aa16:	6043      	str	r3, [r0, #4]
1000aa18:	00d3      	lsls	r3, r2, #3
1000aa1a:	181b      	adds	r3, r3, r0
1000aa1c:	689a      	ldr	r2, [r3, #8]
1000aa1e:	60cb      	str	r3, [r1, #12]
1000aa20:	608a      	str	r2, [r1, #8]
1000aa22:	6099      	str	r1, [r3, #8]
1000aa24:	60d1      	str	r1, [r2, #12]
1000aa26:	0028      	movs	r0, r5
1000aa28:	f7ff feb0 	bl	1000a78c <__malloc_unlock>
1000aa2c:	bce0      	pop	{r5, r6, r7}
1000aa2e:	46ba      	mov	sl, r7
1000aa30:	46b1      	mov	r9, r6
1000aa32:	46a8      	mov	r8, r5
1000aa34:	bdf0      	pop	{r4, r5, r6, r7, pc}
1000aa36:	4652      	mov	r2, sl
1000aa38:	2a00      	cmp	r2, #0
1000aa3a:	d10f      	bne.n	1000aa5c <_free_r+0xd4>
1000aa3c:	2201      	movs	r2, #1
1000aa3e:	444b      	add	r3, r9
1000aa40:	18cf      	adds	r7, r1, r3
1000aa42:	46bc      	mov	ip, r7
1000aa44:	68b4      	ldr	r4, [r6, #8]
1000aa46:	4f48      	ldr	r7, [pc, #288]	@ (1000ab68 <_free_r+0x1e0>)
1000aa48:	431a      	orrs	r2, r3
1000aa4a:	42bc      	cmp	r4, r7
1000aa4c:	d05b      	beq.n	1000ab06 <_free_r+0x17e>
1000aa4e:	68f6      	ldr	r6, [r6, #12]
1000aa50:	60e6      	str	r6, [r4, #12]
1000aa52:	60b4      	str	r4, [r6, #8]
1000aa54:	604a      	str	r2, [r1, #4]
1000aa56:	4662      	mov	r2, ip
1000aa58:	6013      	str	r3, [r2, #0]
1000aa5a:	e7d2      	b.n	1000aa02 <_free_r+0x7a>
1000aa5c:	4662      	mov	r2, ip
1000aa5e:	433a      	orrs	r2, r7
1000aa60:	604a      	str	r2, [r1, #4]
1000aa62:	2280      	movs	r2, #128	@ 0x80
1000aa64:	6033      	str	r3, [r6, #0]
1000aa66:	0092      	lsls	r2, r2, #2
1000aa68:	4293      	cmp	r3, r2
1000aa6a:	d3ce      	bcc.n	1000aa0a <_free_r+0x82>
1000aa6c:	0a5c      	lsrs	r4, r3, #9
1000aa6e:	2c04      	cmp	r4, #4
1000aa70:	d83f      	bhi.n	1000aaf2 <_free_r+0x16a>
1000aa72:	099c      	lsrs	r4, r3, #6
1000aa74:	0026      	movs	r6, r4
1000aa76:	3439      	adds	r4, #57	@ 0x39
1000aa78:	3638      	adds	r6, #56	@ 0x38
1000aa7a:	00e4      	lsls	r4, r4, #3
1000aa7c:	1904      	adds	r4, r0, r4
1000aa7e:	6822      	ldr	r2, [r4, #0]
1000aa80:	3c08      	subs	r4, #8
1000aa82:	2703      	movs	r7, #3
1000aa84:	4294      	cmp	r4, r2
1000aa86:	d103      	bne.n	1000aa90 <_free_r+0x108>
1000aa88:	e04e      	b.n	1000ab28 <_free_r+0x1a0>
1000aa8a:	6892      	ldr	r2, [r2, #8]
1000aa8c:	4294      	cmp	r4, r2
1000aa8e:	d003      	beq.n	1000aa98 <_free_r+0x110>
1000aa90:	6850      	ldr	r0, [r2, #4]
1000aa92:	43b8      	bics	r0, r7
1000aa94:	4298      	cmp	r0, r3
1000aa96:	d8f8      	bhi.n	1000aa8a <_free_r+0x102>
1000aa98:	68d4      	ldr	r4, [r2, #12]
1000aa9a:	60cc      	str	r4, [r1, #12]
1000aa9c:	608a      	str	r2, [r1, #8]
1000aa9e:	60a1      	str	r1, [r4, #8]
1000aaa0:	60d1      	str	r1, [r2, #12]
1000aaa2:	e7c0      	b.n	1000aa26 <_free_r+0x9e>
1000aaa4:	4652      	mov	r2, sl
1000aaa6:	2a00      	cmp	r2, #0
1000aaa8:	d135      	bne.n	1000ab16 <_free_r+0x18e>
1000aaaa:	444b      	add	r3, r9
1000aaac:	001a      	movs	r2, r3
1000aaae:	68b0      	ldr	r0, [r6, #8]
1000aab0:	68f3      	ldr	r3, [r6, #12]
1000aab2:	4317      	orrs	r7, r2
1000aab4:	60c3      	str	r3, [r0, #12]
1000aab6:	6098      	str	r0, [r3, #8]
1000aab8:	604f      	str	r7, [r1, #4]
1000aaba:	508a      	str	r2, [r1, r2]
1000aabc:	e7b3      	b.n	1000aa26 <_free_r+0x9e>
1000aabe:	444b      	add	r3, r9
1000aac0:	001a      	movs	r2, r3
1000aac2:	4643      	mov	r3, r8
1000aac4:	2b00      	cmp	r3, #0
1000aac6:	d106      	bne.n	1000aad6 <_free_r+0x14e>
1000aac8:	680b      	ldr	r3, [r1, #0]
1000aaca:	1ac9      	subs	r1, r1, r3
1000aacc:	688c      	ldr	r4, [r1, #8]
1000aace:	18d2      	adds	r2, r2, r3
1000aad0:	68cb      	ldr	r3, [r1, #12]
1000aad2:	60e3      	str	r3, [r4, #12]
1000aad4:	609c      	str	r4, [r3, #8]
1000aad6:	2301      	movs	r3, #1
1000aad8:	4313      	orrs	r3, r2
1000aada:	604b      	str	r3, [r1, #4]
1000aadc:	4b23      	ldr	r3, [pc, #140]	@ (1000ab6c <_free_r+0x1e4>)
1000aade:	6081      	str	r1, [r0, #8]
1000aae0:	681b      	ldr	r3, [r3, #0]
1000aae2:	4293      	cmp	r3, r2
1000aae4:	d89f      	bhi.n	1000aa26 <_free_r+0x9e>
1000aae6:	4b22      	ldr	r3, [pc, #136]	@ (1000ab70 <_free_r+0x1e8>)
1000aae8:	0028      	movs	r0, r5
1000aaea:	6819      	ldr	r1, [r3, #0]
1000aaec:	f7ff fef2 	bl	1000a8d4 <_malloc_trim_r>
1000aaf0:	e799      	b.n	1000aa26 <_free_r+0x9e>
1000aaf2:	2c14      	cmp	r4, #20
1000aaf4:	d913      	bls.n	1000ab1e <_free_r+0x196>
1000aaf6:	2c54      	cmp	r4, #84	@ 0x54
1000aaf8:	d81d      	bhi.n	1000ab36 <_free_r+0x1ae>
1000aafa:	0b1c      	lsrs	r4, r3, #12
1000aafc:	0026      	movs	r6, r4
1000aafe:	346f      	adds	r4, #111	@ 0x6f
1000ab00:	366e      	adds	r6, #110	@ 0x6e
1000ab02:	00e4      	lsls	r4, r4, #3
1000ab04:	e7ba      	b.n	1000aa7c <_free_r+0xf4>
1000ab06:	60e1      	str	r1, [r4, #12]
1000ab08:	60a1      	str	r1, [r4, #8]
1000ab0a:	604a      	str	r2, [r1, #4]
1000ab0c:	4662      	mov	r2, ip
1000ab0e:	60cc      	str	r4, [r1, #12]
1000ab10:	608c      	str	r4, [r1, #8]
1000ab12:	6013      	str	r3, [r2, #0]
1000ab14:	e787      	b.n	1000aa26 <_free_r+0x9e>
1000ab16:	431f      	orrs	r7, r3
1000ab18:	604f      	str	r7, [r1, #4]
1000ab1a:	6033      	str	r3, [r6, #0]
1000ab1c:	e783      	b.n	1000aa26 <_free_r+0x9e>
1000ab1e:	0026      	movs	r6, r4
1000ab20:	345c      	adds	r4, #92	@ 0x5c
1000ab22:	365b      	adds	r6, #91	@ 0x5b
1000ab24:	00e4      	lsls	r4, r4, #3
1000ab26:	e7a9      	b.n	1000aa7c <_free_r+0xf4>
1000ab28:	2301      	movs	r3, #1
1000ab2a:	10b6      	asrs	r6, r6, #2
1000ab2c:	40b3      	lsls	r3, r6
1000ab2e:	6846      	ldr	r6, [r0, #4]
1000ab30:	4333      	orrs	r3, r6
1000ab32:	6043      	str	r3, [r0, #4]
1000ab34:	e7b1      	b.n	1000aa9a <_free_r+0x112>
1000ab36:	22aa      	movs	r2, #170	@ 0xaa
1000ab38:	0052      	lsls	r2, r2, #1
1000ab3a:	4294      	cmp	r4, r2
1000ab3c:	d805      	bhi.n	1000ab4a <_free_r+0x1c2>
1000ab3e:	0bdc      	lsrs	r4, r3, #15
1000ab40:	0026      	movs	r6, r4
1000ab42:	3478      	adds	r4, #120	@ 0x78
1000ab44:	3677      	adds	r6, #119	@ 0x77
1000ab46:	00e4      	lsls	r4, r4, #3
1000ab48:	e798      	b.n	1000aa7c <_free_r+0xf4>
1000ab4a:	4a0a      	ldr	r2, [pc, #40]	@ (1000ab74 <_free_r+0x1ec>)
1000ab4c:	4294      	cmp	r4, r2
1000ab4e:	d805      	bhi.n	1000ab5c <_free_r+0x1d4>
1000ab50:	0c9c      	lsrs	r4, r3, #18
1000ab52:	0026      	movs	r6, r4
1000ab54:	347d      	adds	r4, #125	@ 0x7d
1000ab56:	367c      	adds	r6, #124	@ 0x7c
1000ab58:	00e4      	lsls	r4, r4, #3
1000ab5a:	e78f      	b.n	1000aa7c <_free_r+0xf4>
1000ab5c:	24fe      	movs	r4, #254	@ 0xfe
1000ab5e:	267e      	movs	r6, #126	@ 0x7e
1000ab60:	00a4      	lsls	r4, r4, #2
1000ab62:	e78b      	b.n	1000aa7c <_free_r+0xf4>
1000ab64:	20003710 	.word	0x20003710
1000ab68:	20003718 	.word	0x20003718
1000ab6c:	2000370c 	.word	0x2000370c
1000ab70:	2000450c 	.word	0x2000450c
1000ab74:	00000554 	.word	0x00000554

1000ab78 <_fini>:
1000ab78:	b5f8      	push	{r3, r4, r5, r6, r7, lr}
1000ab7a:	46c0      	nop			@ (mov r8, r8)
1000ab7c:	0000      	movs	r0, r0
	...

1000ab80 <__flash_do_cmd_veneer>:
1000ab80:	b401      	push	{r0}
1000ab82:	4802      	ldr	r0, [pc, #8]	@ (1000ab8c <__flash_do_cmd_veneer+0xc>)
1000ab84:	4684      	mov	ip, r0
1000ab86:	bc01      	pop	{r0}
1000ab88:	4760      	bx	ip
1000ab8a:	bf00      	nop
1000ab8c:	200002c1 	.word	0x200002c1

1000ab90 <__mutex_exit_veneer>:
1000ab90:	b401      	push	{r0}
1000ab92:	4802      	ldr	r0, [pc, #8]	@ (1000ab9c <__mutex_exit_veneer+0xc>)
1000ab94:	4684      	mov	ip, r0
1000ab96:	bc01      	pop	{r0}
1000ab98:	4760      	bx	ip
1000ab9a:	bf00      	nop
1000ab9c:	20000225 	.word	0x20000225

1000aba0 <____aeabi_ldiv0_veneer>:
1000aba0:	b401      	push	{r0}
1000aba2:	4802      	ldr	r0, [pc, #8]	@ (1000abac <____aeabi_ldiv0_veneer+0xc>)
1000aba4:	4684      	mov	ip, r0
1000aba6:	bc01      	pop	{r0}
1000aba8:	4760      	bx	ip
1000abaa:	bf00      	nop
1000abac:	20000f11 	.word	0x20000f11

1000abb0 <____aeabi_idiv0_veneer>:
1000abb0:	b401      	push	{r0}
1000abb2:	4802      	ldr	r0, [pc, #8]	@ (1000abbc <____aeabi_idiv0_veneer+0xc>)
1000abb4:	4684      	mov	ip, r0
1000abb6:	bc01      	pop	{r0}
1000abb8:	4760      	bx	ip
1000abba:	bf00      	nop
1000abbc:	20000f11 	.word	0x20000f11

1000abc0 <__mutex_try_enter_veneer>:
1000abc0:	b401      	push	{r0}
1000abc2:	4802      	ldr	r0, [pc, #8]	@ (1000abcc <__mutex_try_enter_veneer+0xc>)
1000abc4:	4684      	mov	ip, r0
1000abc6:	bc01      	pop	{r0}
1000abc8:	4760      	bx	ip
1000abca:	bf00      	nop
1000abcc:	200000c1 	.word	0x200000c1

1000abd0 <__e15_is_critical_frame_period_veneer>:
1000abd0:	b401      	push	{r0}
1000abd2:	4802      	ldr	r0, [pc, #8]	@ (1000abdc <__e15_is_critical_frame_period_veneer+0xc>)
1000abd4:	4684      	mov	ip, r0
1000abd6:	bc01      	pop	{r0}
1000abd8:	4760      	bx	ip
1000abda:	bf00      	nop
1000abdc:	20000bf5 	.word	0x20000bf5

1000abe0 <__mutex_enter_timeout_ms_veneer>:
1000abe0:	b401      	push	{r0}
1000abe2:	4802      	ldr	r0, [pc, #8]	@ (1000abec <__mutex_enter_timeout_ms_veneer+0xc>)
1000abe4:	4684      	mov	ip, r0
1000abe6:	bc01      	pop	{r0}
1000abe8:	4760      	bx	ip
1000abea:	bf00      	nop
1000abec:	20000199 	.word	0x20000199

1000abf0 <__mutex_try_enter_block_until_veneer>:
1000abf0:	b401      	push	{r0}
1000abf2:	4802      	ldr	r0, [pc, #8]	@ (1000abfc <__mutex_try_enter_block_until_veneer+0xc>)
1000abf4:	4684      	mov	ip, r0
1000abf6:	bc01      	pop	{r0}
1000abf8:	4760      	bx	ip
1000abfa:	bf00      	nop
1000abfc:	20000101 	.word	0x20000101

1000ac00 <__hw_endpoint_start_next_buffer_veneer>:
1000ac00:	b401      	push	{r0}
1000ac02:	4802      	ldr	r0, [pc, #8]	@ (1000ac0c <__hw_endpoint_start_next_buffer_veneer+0xc>)
1000ac04:	4684      	mov	ip, r0
1000ac06:	bc01      	pop	{r0}
1000ac08:	4760      	bx	ip
1000ac0a:	bf00      	nop
1000ac0c:	20000c85 	.word	0x20000c85

1000ac10 <___hw_endpoint_buffer_control_update32_veneer>:
1000ac10:	b401      	push	{r0}
1000ac12:	4802      	ldr	r0, [pc, #8]	@ (1000ac1c <___hw_endpoint_buffer_control_update32_veneer+0xc>)
1000ac14:	4684      	mov	ip, r0
1000ac16:	bc01      	pop	{r0}
1000ac18:	4760      	bx	ip
1000ac1a:	bf00      	nop
1000ac1c:	20000c35 	.word	0x20000c35

1000ac20 <__e15_is_bulkin_ep_veneer>:
1000ac20:	b401      	push	{r0}
1000ac22:	4802      	ldr	r0, [pc, #8]	@ (1000ac2c <__e15_is_bulkin_ep_veneer+0xc>)
1000ac24:	4684      	mov	ip, r0
1000ac26:	bc01      	pop	{r0}
1000ac28:	4760      	bx	ip
1000ac2a:	bf00      	nop
1000ac2c:	20000bcd 	.word	0x20000bcd

1000ac30 <__reset_non_control_endpoints_veneer>:
1000ac30:	b401      	push	{r0}
1000ac32:	4802      	ldr	r0, [pc, #8]	@ (1000ac3c <__reset_non_control_endpoints_veneer+0xc>)
1000ac34:	4684      	mov	ip, r0
1000ac36:	bc01      	pop	{r0}
1000ac38:	4760      	bx	ip
1000ac3a:	bf00      	nop
1000ac3c:	200003f1 	.word	0x200003f1

1000ac40 <__pre_init_runtime_init_early_resets>:
1000ac40:	10004cf5                                .L..

1000ac44 <__pre_init_runtime_init_usb_power_down>:
1000ac44:	10004d21 10004e6d 10005749 10005505     !M..mN..IW...U..
1000ac54:	100056c1                                .V..

1000ac58 <__pre_init_runtime_init_clocks>:
1000ac58:	10004d95                                .M..

1000ac5c <__pre_init_runtime_init_post_clock_resets>:
1000ac5c:	10004d3d                                =M..

1000ac60 <__pre_init_runtime_init_rp2040_gpio_ie_disable>:
1000ac60:	10004d5d                                ]M..

1000ac64 <__pre_init_runtime_init_spin_locks_reset>:
1000ac64:	10004d71                                qM..

1000ac68 <__pre_init_runtime_init_mutex>:
1000ac68:	10003b8d                                .;..

1000ac6c <__pre_init_runtime_init_install_ram_vector_table>:
1000ac6c:	10004d79                                yM..

1000ac70 <__pre_init_runtime_init_default_alarm_pool>:
1000ac70:	10003f59                                Y?..

1000ac74 <__pre_init_first_per_core_initializer>:
1000ac74:	10004cbd                                .L..

1000ac78 <__pre_init_runtime_init_per_core_irq_priorities>:
1000ac78:	100035ed                                .5..

1000ac7c <__frame_dummy_init_array_entry>:
1000ac7c:	100002b1 10007aa9                       .....z..

Disassembly of section .data:

200000c0 <mutex_try_enter>:
200000c0:	0003      	movs	r3, r0
200000c2:	6800      	ldr	r0, [r0, #0]
200000c4:	f3ef 8c10 	mrs	ip, PRIMASK
200000c8:	b672      	cpsid	i
200000ca:	6802      	ldr	r2, [r0, #0]
200000cc:	2a00      	cmp	r2, #0
200000ce:	d0fc      	beq.n	200000ca <mutex_try_enter+0xa>
200000d0:	f3bf 8f5f 	dmb	sy
200000d4:	2204      	movs	r2, #4
200000d6:	569a      	ldrsb	r2, [r3, r2]
200000d8:	2a00      	cmp	r2, #0
200000da:	db0b      	blt.n	200000f4 <mutex_try_enter+0x34>
200000dc:	2900      	cmp	r1, #0
200000de:	d000      	beq.n	200000e2 <mutex_try_enter+0x22>
200000e0:	600a      	str	r2, [r1, #0]
200000e2:	2000      	movs	r0, #0
200000e4:	681b      	ldr	r3, [r3, #0]
200000e6:	f3bf 8f5f 	dmb	sy
200000ea:	2200      	movs	r2, #0
200000ec:	601a      	str	r2, [r3, #0]
200000ee:	f38c 8810 	msr	PRIMASK, ip
200000f2:	4770      	bx	lr
200000f4:	22d0      	movs	r2, #208	@ 0xd0
200000f6:	0612      	lsls	r2, r2, #24
200000f8:	6812      	ldr	r2, [r2, #0]
200000fa:	2001      	movs	r0, #1
200000fc:	711a      	strb	r2, [r3, #4]
200000fe:	e7f1      	b.n	200000e4 <mutex_try_enter+0x24>

20000100 <mutex_try_enter_block_until>:
20000100:	b5f0      	push	{r4, r5, r6, r7, lr}
20000102:	46c6      	mov	lr, r8
20000104:	0015      	movs	r5, r2
20000106:	b500      	push	{lr}
20000108:	0004      	movs	r4, r0
2000010a:	001e      	movs	r6, r3
2000010c:	6802      	ldr	r2, [r0, #0]
2000010e:	f3ef 8110 	mrs	r1, PRIMASK
20000112:	b672      	cpsid	i
20000114:	6813      	ldr	r3, [r2, #0]
20000116:	2b00      	cmp	r3, #0
20000118:	d0fc      	beq.n	20000114 <mutex_try_enter_block_until+0x14>
2000011a:	f3bf 8f5f 	dmb	sy
2000011e:	2304      	movs	r3, #4
20000120:	56e3      	ldrsb	r3, [r4, r3]
20000122:	6822      	ldr	r2, [r4, #0]
20000124:	2b00      	cmp	r3, #0
20000126:	db2b      	blt.n	20000180 <mutex_try_enter_block_until+0x80>
20000128:	f3bf 8f5f 	dmb	sy
2000012c:	2000      	movs	r0, #0
2000012e:	6010      	str	r0, [r2, #0]
20000130:	f381 8810 	msr	PRIMASK, r1
20000134:	22d0      	movs	r2, #208	@ 0xd0
20000136:	0612      	lsls	r2, r2, #24
20000138:	7812      	ldrb	r2, [r2, #0]
2000013a:	2700      	movs	r7, #0
2000013c:	b252      	sxtb	r2, r2
2000013e:	4690      	mov	r8, r2
20000140:	429a      	cmp	r2, r3
20000142:	d10e      	bne.n	20000162 <mutex_try_enter_block_until+0x62>
20000144:	2000      	movs	r0, #0
20000146:	bc80      	pop	{r7}
20000148:	46b8      	mov	r8, r7
2000014a:	bdf0      	pop	{r4, r5, r6, r7, pc}
2000014c:	f3bf 8f5f 	dmb	sy
20000150:	6017      	str	r7, [r2, #0]
20000152:	f381 8810 	msr	PRIMASK, r1
20000156:	0028      	movs	r0, r5
20000158:	0031      	movs	r1, r6
2000015a:	f000 fee5 	bl	20000f28 <__best_effort_wfe_or_timeout_veneer>
2000015e:	2800      	cmp	r0, #0
20000160:	d1f0      	bne.n	20000144 <mutex_try_enter_block_until+0x44>
20000162:	6822      	ldr	r2, [r4, #0]
20000164:	f3ef 8110 	mrs	r1, PRIMASK
20000168:	b672      	cpsid	i
2000016a:	6813      	ldr	r3, [r2, #0]
2000016c:	2b00      	cmp	r3, #0
2000016e:	d0fc      	beq.n	2000016a <mutex_try_enter_block_until+0x6a>
20000170:	f3bf 8f5f 	dmb	sy
20000174:	7923      	ldrb	r3, [r4, #4]
20000176:	6822      	ldr	r2, [r4, #0]
20000178:	2b7f      	cmp	r3, #127	@ 0x7f
2000017a:	d9e7      	bls.n	2000014c <mutex_try_enter_block_until+0x4c>
2000017c:	4643      	mov	r3, r8
2000017e:	e002      	b.n	20000186 <mutex_try_enter_block_until+0x86>
20000180:	23d0      	movs	r3, #208	@ 0xd0
20000182:	061b      	lsls	r3, r3, #24
20000184:	681b      	ldr	r3, [r3, #0]
20000186:	7123      	strb	r3, [r4, #4]
20000188:	f3bf 8f5f 	dmb	sy
2000018c:	2300      	movs	r3, #0
2000018e:	6013      	str	r3, [r2, #0]
20000190:	f381 8810 	msr	PRIMASK, r1
20000194:	2001      	movs	r0, #1
20000196:	e7d6      	b.n	20000146 <mutex_try_enter_block_until+0x46>

20000198 <mutex_enter_timeout_ms>:
20000198:	b5f0      	push	{r4, r5, r6, r7, lr}
2000019a:	46c6      	mov	lr, r8
2000019c:	b500      	push	{lr}
2000019e:	000d      	movs	r5, r1
200001a0:	0004      	movs	r4, r0
200001a2:	f000 fef1 	bl	20000f88 <__time_us_64_veneer>
200001a6:	22fa      	movs	r2, #250	@ 0xfa
200001a8:	0006      	movs	r6, r0
200001aa:	000f      	movs	r7, r1
200001ac:	2300      	movs	r3, #0
200001ae:	0028      	movs	r0, r5
200001b0:	2100      	movs	r1, #0
200001b2:	0092      	lsls	r2, r2, #2
200001b4:	f000 feb0 	bl	20000f18 <____wrap___aeabi_lmul_veneer>
200001b8:	1836      	adds	r6, r6, r0
200001ba:	414f      	adcs	r7, r1
200001bc:	2f00      	cmp	r7, #0
200001be:	da02      	bge.n	200001c6 <mutex_enter_timeout_ms+0x2e>
200001c0:	2601      	movs	r6, #1
200001c2:	4f17      	ldr	r7, [pc, #92]	@ (20000220 <mutex_enter_timeout_ms+0x88>)
200001c4:	4276      	negs	r6, r6
200001c6:	23d0      	movs	r3, #208	@ 0xd0
200001c8:	061b      	lsls	r3, r3, #24
200001ca:	681b      	ldr	r3, [r3, #0]
200001cc:	2500      	movs	r5, #0
200001ce:	4698      	mov	r8, r3
200001d0:	e00a      	b.n	200001e8 <mutex_enter_timeout_ms+0x50>
200001d2:	f3bf 8f5f 	dmb	sy
200001d6:	6015      	str	r5, [r2, #0]
200001d8:	f381 8810 	msr	PRIMASK, r1
200001dc:	0030      	movs	r0, r6
200001de:	0039      	movs	r1, r7
200001e0:	f000 fea2 	bl	20000f28 <__best_effort_wfe_or_timeout_veneer>
200001e4:	2800      	cmp	r0, #0
200001e6:	d118      	bne.n	2000021a <mutex_enter_timeout_ms+0x82>
200001e8:	6822      	ldr	r2, [r4, #0]
200001ea:	f3ef 8110 	mrs	r1, PRIMASK
200001ee:	b672      	cpsid	i
200001f0:	6813      	ldr	r3, [r2, #0]
200001f2:	2b00      	cmp	r3, #0
200001f4:	d0fc      	beq.n	200001f0 <mutex_enter_timeout_ms+0x58>
200001f6:	f3bf 8f5f 	dmb	sy
200001fa:	7923      	ldrb	r3, [r4, #4]
200001fc:	6822      	ldr	r2, [r4, #0]
200001fe:	2b7f      	cmp	r3, #127	@ 0x7f
20000200:	d9e7      	bls.n	200001d2 <mutex_enter_timeout_ms+0x3a>
20000202:	4643      	mov	r3, r8
20000204:	7123      	strb	r3, [r4, #4]
20000206:	f3bf 8f5f 	dmb	sy
2000020a:	2300      	movs	r3, #0
2000020c:	6013      	str	r3, [r2, #0]
2000020e:	f381 8810 	msr	PRIMASK, r1
20000212:	2001      	movs	r0, #1
20000214:	bc80      	pop	{r7}
20000216:	46b8      	mov	r8, r7
20000218:	bdf0      	pop	{r4, r5, r6, r7, pc}
2000021a:	2000      	movs	r0, #0
2000021c:	e7fa      	b.n	20000214 <mutex_enter_timeout_ms+0x7c>
2000021e:	46c0      	nop			@ (mov r8, r8)
20000220:	7fffffff 	.word	0x7fffffff

20000224 <mutex_exit>:
20000224:	6802      	ldr	r2, [r0, #0]
20000226:	f3ef 8110 	mrs	r1, PRIMASK
2000022a:	b672      	cpsid	i
2000022c:	6813      	ldr	r3, [r2, #0]
2000022e:	2b00      	cmp	r3, #0
20000230:	d0fc      	beq.n	2000022c <mutex_exit+0x8>
20000232:	f3bf 8f5f 	dmb	sy
20000236:	23ff      	movs	r3, #255	@ 0xff
20000238:	7103      	strb	r3, [r0, #4]
2000023a:	6803      	ldr	r3, [r0, #0]
2000023c:	f3bf 8f5f 	dmb	sy
20000240:	2200      	movs	r2, #0
20000242:	601a      	str	r2, [r3, #0]
20000244:	f381 8810 	msr	PRIMASK, r1
20000248:	bf40      	sev
2000024a:	4770      	bx	lr

2000024c <flash_init_boot2_copyout>:
2000024c:	b510      	push	{r4, lr}
2000024e:	4c08      	ldr	r4, [pc, #32]	@ (20000270 <flash_init_boot2_copyout+0x24>)
20000250:	7823      	ldrb	r3, [r4, #0]
20000252:	2b00      	cmp	r3, #0
20000254:	d10a      	bne.n	2000026c <flash_init_boot2_copyout+0x20>
20000256:	2380      	movs	r3, #128	@ 0x80
20000258:	4806      	ldr	r0, [pc, #24]	@ (20000274 <flash_init_boot2_copyout+0x28>)
2000025a:	4907      	ldr	r1, [pc, #28]	@ (20000278 <flash_init_boot2_copyout+0x2c>)
2000025c:	055b      	lsls	r3, r3, #21
2000025e:	681a      	ldr	r2, [r3, #0]
20000260:	50c2      	str	r2, [r0, r3]
20000262:	3304      	adds	r3, #4
20000264:	428b      	cmp	r3, r1
20000266:	d1fa      	bne.n	2000025e <flash_init_boot2_copyout+0x12>
20000268:	2301      	movs	r3, #1
2000026a:	7023      	strb	r3, [r4, #0]
2000026c:	bd10      	pop	{r4, pc}
2000026e:	46c0      	nop			@ (mov r8, r8)
20000270:	20005303 	.word	0x20005303
20000274:	10004be8 	.word	0x10004be8
20000278:	10000100 	.word	0x10000100

2000027c <flash_enable_xip_via_boot2>:
2000027c:	b510      	push	{r4, lr}
2000027e:	4b01      	ldr	r3, [pc, #4]	@ (20000284 <flash_enable_xip_via_boot2+0x8>)
20000280:	4798      	blx	r3
20000282:	bd10      	pop	{r4, pc}
20000284:	20004be9 	.word	0x20004be9

20000288 <flash_cs_force.constprop.0>:
20000288:	4b03      	ldr	r3, [pc, #12]	@ (20000298 <flash_cs_force.constprop.0+0x10>)
2000028a:	681a      	ldr	r2, [r3, #0]
2000028c:	23c0      	movs	r3, #192	@ 0xc0
2000028e:	009b      	lsls	r3, r3, #2
20000290:	4393      	bics	r3, r2
20000292:	4a02      	ldr	r2, [pc, #8]	@ (2000029c <flash_cs_force.constprop.0+0x14>)
20000294:	6013      	str	r3, [r2, #0]
20000296:	4770      	bx	lr
20000298:	4001800c 	.word	0x4001800c
2000029c:	4001900c 	.word	0x4001900c

200002a0 <flash_cs_force.constprop.1>:
200002a0:	4b05      	ldr	r3, [pc, #20]	@ (200002b8 <flash_cs_force.constprop.1+0x18>)
200002a2:	681a      	ldr	r2, [r3, #0]
200002a4:	2380      	movs	r3, #128	@ 0x80
200002a6:	009b      	lsls	r3, r3, #2
200002a8:	4053      	eors	r3, r2
200002aa:	22c0      	movs	r2, #192	@ 0xc0
200002ac:	0092      	lsls	r2, r2, #2
200002ae:	4013      	ands	r3, r2
200002b0:	4a02      	ldr	r2, [pc, #8]	@ (200002bc <flash_cs_force.constprop.1+0x1c>)
200002b2:	6013      	str	r3, [r2, #0]
200002b4:	4770      	bx	lr
200002b6:	46c0      	nop			@ (mov r8, r8)
200002b8:	4001800c 	.word	0x4001800c
200002bc:	4001900c 	.word	0x4001900c

200002c0 <flash_do_cmd>:
200002c0:	2300      	movs	r3, #0
200002c2:	b5f0      	push	{r4, r5, r6, r7, lr}
200002c4:	46de      	mov	lr, fp
200002c6:	4657      	mov	r7, sl
200002c8:	464e      	mov	r6, r9
200002ca:	4645      	mov	r5, r8
200002cc:	469a      	mov	sl, r3
200002ce:	b5e0      	push	{r5, r6, r7, lr}
200002d0:	b083      	sub	sp, #12
200002d2:	9001      	str	r0, [sp, #4]
200002d4:	000e      	movs	r6, r1
200002d6:	8a98      	ldrh	r0, [r3, #20]
200002d8:	4942      	ldr	r1, [pc, #264]	@ (200003e4 <flash_do_cmd+0x124>)
200002da:	8b1b      	ldrh	r3, [r3, #24]
200002dc:	0014      	movs	r4, r2
200002de:	4798      	blx	r3
200002e0:	4653      	mov	r3, sl
200002e2:	4681      	mov	r9, r0
200002e4:	4940      	ldr	r1, [pc, #256]	@ (200003e8 <flash_do_cmd+0x128>)
200002e6:	8a98      	ldrh	r0, [r3, #20]
200002e8:	8b1b      	ldrh	r3, [r3, #24]
200002ea:	4798      	blx	r3
200002ec:	4653      	mov	r3, sl
200002ee:	493f      	ldr	r1, [pc, #252]	@ (200003ec <flash_do_cmd+0x12c>)
200002f0:	0005      	movs	r5, r0
200002f2:	8a98      	ldrh	r0, [r3, #20]
200002f4:	8b1b      	ldrh	r3, [r3, #24]
200002f6:	4798      	blx	r3
200002f8:	4680      	mov	r8, r0
200002fa:	f7ff ffa7 	bl	2000024c <flash_init_boot2_copyout>
200002fe:	47c8      	blx	r9
20000300:	47a8      	blx	r5
20000302:	f7ff ffcd 	bl	200002a0 <flash_cs_force.constprop.1>
20000306:	1e25      	subs	r5, r4, #0
20000308:	d022      	beq.n	20000350 <flash_do_cmd+0x90>
2000030a:	2308      	movs	r3, #8
2000030c:	21c0      	movs	r1, #192	@ 0xc0
2000030e:	469c      	mov	ip, r3
20000310:	2002      	movs	r0, #2
20000312:	0549      	lsls	r1, r1, #21
20000314:	4662      	mov	r2, ip
20000316:	6a8b      	ldr	r3, [r1, #40]	@ 0x28
20000318:	401a      	ands	r2, r3
2000031a:	4218      	tst	r0, r3
2000031c:	d03c      	beq.n	20000398 <flash_do_cmd+0xd8>
2000031e:	1b63      	subs	r3, r4, r5
20000320:	2d00      	cmp	r5, #0
20000322:	d12c      	bne.n	2000037e <flash_do_cmd+0xbe>
20000324:	2a00      	cmp	r2, #0
20000326:	d111      	bne.n	2000034c <flash_do_cmd+0x8c>
20000328:	2c00      	cmp	r4, #0
2000032a:	d011      	beq.n	20000350 <flash_do_cmd+0x90>
2000032c:	23c0      	movs	r3, #192	@ 0xc0
2000032e:	055b      	lsls	r3, r3, #21
20000330:	469b      	mov	fp, r3
20000332:	2302      	movs	r3, #2
20000334:	469a      	mov	sl, r3
20000336:	3306      	adds	r3, #6
20000338:	4699      	mov	r9, r3
2000033a:	465b      	mov	r3, fp
2000033c:	464a      	mov	r2, r9
2000033e:	4657      	mov	r7, sl
20000340:	6a9b      	ldr	r3, [r3, #40]	@ 0x28
20000342:	401a      	ands	r2, r3
20000344:	421f      	tst	r7, r3
20000346:	d03f      	beq.n	200003c8 <flash_do_cmd+0x108>
20000348:	2a00      	cmp	r2, #0
2000034a:	d0f6      	beq.n	2000033a <flash_do_cmd+0x7a>
2000034c:	2c00      	cmp	r4, #0
2000034e:	d12d      	bne.n	200003ac <flash_do_cmd+0xec>
20000350:	f7ff ff9a 	bl	20000288 <flash_cs_force.constprop.0>
20000354:	47c0      	blx	r8
20000356:	f7ff ff91 	bl	2000027c <flash_enable_xip_via_boot2>
2000035a:	b003      	add	sp, #12
2000035c:	bcf0      	pop	{r4, r5, r6, r7}
2000035e:	46bb      	mov	fp, r7
20000360:	46b2      	mov	sl, r6
20000362:	46a9      	mov	r9, r5
20000364:	46a0      	mov	r8, r4
20000366:	bdf0      	pop	{r4, r5, r6, r7, pc}
20000368:	2c00      	cmp	r4, #0
2000036a:	d12f      	bne.n	200003cc <flash_do_cmd+0x10c>
2000036c:	22c0      	movs	r2, #192	@ 0xc0
2000036e:	0552      	lsls	r2, r2, #21
20000370:	6a92      	ldr	r2, [r2, #40]	@ 0x28
20000372:	4691      	mov	r9, r2
20000374:	2208      	movs	r2, #8
20000376:	464f      	mov	r7, r9
20000378:	403a      	ands	r2, r7
2000037a:	07bf      	lsls	r7, r7, #30
2000037c:	d52d      	bpl.n	200003da <flash_do_cmd+0x11a>
2000037e:	2b0d      	cmp	r3, #13
20000380:	d91b      	bls.n	200003ba <flash_do_cmd+0xfa>
20000382:	2a00      	cmp	r2, #0
20000384:	d1f0      	bne.n	20000368 <flash_do_cmd+0xa8>
20000386:	22c0      	movs	r2, #192	@ 0xc0
20000388:	0552      	lsls	r2, r2, #21
2000038a:	6a92      	ldr	r2, [r2, #40]	@ 0x28
2000038c:	4691      	mov	r9, r2
2000038e:	2208      	movs	r2, #8
20000390:	464f      	mov	r7, r9
20000392:	403a      	ands	r2, r7
20000394:	07bf      	lsls	r7, r7, #30
20000396:	d4f2      	bmi.n	2000037e <flash_do_cmd+0xbe>
20000398:	2a00      	cmp	r2, #0
2000039a:	d104      	bne.n	200003a6 <flash_do_cmd+0xe6>
2000039c:	002b      	movs	r3, r5
2000039e:	4323      	orrs	r3, r4
200003a0:	2b00      	cmp	r3, #0
200003a2:	d1b7      	bne.n	20000314 <flash_do_cmd+0x54>
200003a4:	e7d4      	b.n	20000350 <flash_do_cmd+0x90>
200003a6:	002b      	movs	r3, r5
200003a8:	2c00      	cmp	r4, #0
200003aa:	d0f9      	beq.n	200003a0 <flash_do_cmd+0xe0>
200003ac:	6e0b      	ldr	r3, [r1, #96]	@ 0x60
200003ae:	3c01      	subs	r4, #1
200003b0:	7033      	strb	r3, [r6, #0]
200003b2:	0023      	movs	r3, r4
200003b4:	3601      	adds	r6, #1
200003b6:	432b      	orrs	r3, r5
200003b8:	e7f2      	b.n	200003a0 <flash_do_cmd+0xe0>
200003ba:	9f01      	ldr	r7, [sp, #4]
200003bc:	3d01      	subs	r5, #1
200003be:	783b      	ldrb	r3, [r7, #0]
200003c0:	3701      	adds	r7, #1
200003c2:	660b      	str	r3, [r1, #96]	@ 0x60
200003c4:	9701      	str	r7, [sp, #4]
200003c6:	e7e7      	b.n	20000398 <flash_do_cmd+0xd8>
200003c8:	2500      	movs	r5, #0
200003ca:	e7e5      	b.n	20000398 <flash_do_cmd+0xd8>
200003cc:	23c0      	movs	r3, #192	@ 0xc0
200003ce:	055b      	lsls	r3, r3, #21
200003d0:	6e1b      	ldr	r3, [r3, #96]	@ 0x60
200003d2:	3c01      	subs	r4, #1
200003d4:	7033      	strb	r3, [r6, #0]
200003d6:	3601      	adds	r6, #1
200003d8:	e79c      	b.n	20000314 <flash_do_cmd+0x54>
200003da:	002b      	movs	r3, r5
200003dc:	2a00      	cmp	r2, #0
200003de:	d1df      	bne.n	200003a0 <flash_do_cmd+0xe0>
200003e0:	e7dc      	b.n	2000039c <flash_do_cmd+0xdc>
200003e2:	46c0      	nop			@ (mov r8, r8)
200003e4:	00004649 	.word	0x00004649
200003e8:	00005845 	.word	0x00005845
200003ec:	00004346 	.word	0x00004346

200003f0 <reset_non_control_endpoints>:
200003f0:	2200      	movs	r2, #0
200003f2:	4b15      	ldr	r3, [pc, #84]	@ (20000448 <reset_non_control_endpoints+0x58>)
200003f4:	b510      	push	{r4, lr}
200003f6:	609a      	str	r2, [r3, #8]
200003f8:	60da      	str	r2, [r3, #12]
200003fa:	611a      	str	r2, [r3, #16]
200003fc:	615a      	str	r2, [r3, #20]
200003fe:	619a      	str	r2, [r3, #24]
20000400:	61da      	str	r2, [r3, #28]
20000402:	621a      	str	r2, [r3, #32]
20000404:	625a      	str	r2, [r3, #36]	@ 0x24
20000406:	629a      	str	r2, [r3, #40]	@ 0x28
20000408:	62da      	str	r2, [r3, #44]	@ 0x2c
2000040a:	631a      	str	r2, [r3, #48]	@ 0x30
2000040c:	635a      	str	r2, [r3, #52]	@ 0x34
2000040e:	639a      	str	r2, [r3, #56]	@ 0x38
20000410:	63da      	str	r2, [r3, #60]	@ 0x3c
20000412:	641a      	str	r2, [r3, #64]	@ 0x40
20000414:	645a      	str	r2, [r3, #68]	@ 0x44
20000416:	649a      	str	r2, [r3, #72]	@ 0x48
20000418:	64da      	str	r2, [r3, #76]	@ 0x4c
2000041a:	651a      	str	r2, [r3, #80]	@ 0x50
2000041c:	655a      	str	r2, [r3, #84]	@ 0x54
2000041e:	659a      	str	r2, [r3, #88]	@ 0x58
20000420:	65da      	str	r2, [r3, #92]	@ 0x5c
20000422:	661a      	str	r2, [r3, #96]	@ 0x60
20000424:	665a      	str	r2, [r3, #100]	@ 0x64
20000426:	669a      	str	r2, [r3, #104]	@ 0x68
20000428:	66da      	str	r2, [r3, #108]	@ 0x6c
2000042a:	671a      	str	r2, [r3, #112]	@ 0x70
2000042c:	675a      	str	r2, [r3, #116]	@ 0x74
2000042e:	679a      	str	r2, [r3, #120]	@ 0x78
20000430:	67da      	str	r2, [r3, #124]	@ 0x7c
20000432:	32f0      	adds	r2, #240	@ 0xf0
20000434:	0092      	lsls	r2, r2, #2
20000436:	2100      	movs	r1, #0
20000438:	4804      	ldr	r0, [pc, #16]	@ (2000044c <reset_non_control_endpoints+0x5c>)
2000043a:	f000 fd8d 	bl	20000f58 <____wrap_memset_veneer>
2000043e:	4b04      	ldr	r3, [pc, #16]	@ (20000450 <reset_non_control_endpoints+0x60>)
20000440:	4a04      	ldr	r2, [pc, #16]	@ (20000454 <reset_non_control_endpoints+0x64>)
20000442:	601a      	str	r2, [r3, #0]
20000444:	bd10      	pop	{r4, pc}
20000446:	46c0      	nop			@ (mov r8, r8)
20000448:	50100000 	.word	0x50100000
2000044c:	20004da8 	.word	0x20004da8
20000450:	20005174 	.word	0x20005174
20000454:	50100180 	.word	0x50100180

20000458 <hw_handle_buff_status>:
20000458:	b5f0      	push	{r4, r5, r6, r7, lr}
2000045a:	464e      	mov	r6, r9
2000045c:	4645      	mov	r5, r8
2000045e:	46de      	mov	lr, fp
20000460:	4657      	mov	r7, sl
20000462:	b5e0      	push	{r5, r6, r7, lr}
20000464:	4b21      	ldr	r3, [pc, #132]	@ (200004ec <hw_handle_buff_status+0x94>)
20000466:	2400      	movs	r4, #0
20000468:	6d9e      	ldr	r6, [r3, #88]	@ 0x58
2000046a:	2501      	movs	r5, #1
2000046c:	b085      	sub	sp, #20
2000046e:	2e00      	cmp	r6, #0
20000470:	d022      	beq.n	200004b8 <hw_handle_buff_status+0x60>
20000472:	4b1f      	ldr	r3, [pc, #124]	@ (200004f0 <hw_handle_buff_status+0x98>)
20000474:	469a      	mov	sl, r3
20000476:	2301      	movs	r3, #1
20000478:	4699      	mov	r9, r3
2000047a:	4b1e      	ldr	r3, [pc, #120]	@ (200004f4 <hw_handle_buff_status+0x9c>)
2000047c:	4698      	mov	r8, r3
2000047e:	e001      	b.n	20000484 <hw_handle_buff_status+0x2c>
20000480:	2c20      	cmp	r4, #32
20000482:	d019      	beq.n	200004b8 <hw_handle_buff_status+0x60>
20000484:	002a      	movs	r2, r5
20000486:	0023      	movs	r3, r4
20000488:	3401      	adds	r4, #1
2000048a:	002f      	movs	r7, r5
2000048c:	4032      	ands	r2, r6
2000048e:	b2e4      	uxtb	r4, r4
20000490:	006d      	lsls	r5, r5, #1
20000492:	2a00      	cmp	r2, #0
20000494:	d0f4      	beq.n	20000480 <hw_handle_buff_status+0x28>
20000496:	4652      	mov	r2, sl
20000498:	6597      	str	r7, [r2, #88]	@ 0x58
2000049a:	464a      	mov	r2, r9
2000049c:	085b      	lsrs	r3, r3, #1
2000049e:	005b      	lsls	r3, r3, #1
200004a0:	4022      	ands	r2, r4
200004a2:	189b      	adds	r3, r3, r2
200004a4:	015b      	lsls	r3, r3, #5
200004a6:	4443      	add	r3, r8
200004a8:	0018      	movs	r0, r3
200004aa:	469b      	mov	fp, r3
200004ac:	f000 fc1e 	bl	20000cec <hw_endpoint_xfer_continue>
200004b0:	2800      	cmp	r0, #0
200004b2:	d108      	bne.n	200004c6 <hw_handle_buff_status+0x6e>
200004b4:	43be      	bics	r6, r7
200004b6:	d1e3      	bne.n	20000480 <hw_handle_buff_status+0x28>
200004b8:	b005      	add	sp, #20
200004ba:	bcf0      	pop	{r4, r5, r6, r7}
200004bc:	46bb      	mov	fp, r7
200004be:	46b2      	mov	sl, r6
200004c0:	46a9      	mov	r9, r5
200004c2:	46a0      	mov	r8, r4
200004c4:	bdf0      	pop	{r4, r5, r6, r7, pc}
200004c6:	465b      	mov	r3, fp
200004c8:	21e0      	movs	r1, #224	@ 0xe0
200004ca:	789a      	ldrb	r2, [r3, #2]
200004cc:	8adb      	ldrh	r3, [r3, #22]
200004ce:	a801      	add	r0, sp, #4
200004d0:	6083      	str	r3, [r0, #8]
200004d2:	2300      	movs	r3, #0
200004d4:	00c9      	lsls	r1, r1, #3
200004d6:	8001      	strh	r1, [r0, #0]
200004d8:	2101      	movs	r1, #1
200004da:	7102      	strb	r2, [r0, #4]
200004dc:	7143      	strb	r3, [r0, #5]
200004de:	f000 fc25 	bl	20000d2c <dcd_event_handler>
200004e2:	4658      	mov	r0, fp
200004e4:	f000 fba0 	bl	20000c28 <hw_endpoint_reset_transfer>
200004e8:	e7e4      	b.n	200004b4 <hw_handle_buff_status+0x5c>
200004ea:	46c0      	nop			@ (mov r8, r8)
200004ec:	50110000 	.word	0x50110000
200004f0:	50113000 	.word	0x50113000
200004f4:	20004d68 	.word	0x20004d68

200004f8 <dcd_rp2040_irq>:
200004f8:	2398      	movs	r3, #152	@ 0x98
200004fa:	b5f0      	push	{r4, r5, r6, r7, lr}
200004fc:	46c6      	mov	lr, r8
200004fe:	4ac8      	ldr	r2, [pc, #800]	@ (20000820 <dcd_rp2040_irq+0x328>)
20000500:	b500      	push	{lr}
20000502:	58d5      	ldr	r5, [r2, r3]
20000504:	2380      	movs	r3, #128	@ 0x80
20000506:	002e      	movs	r6, r5
20000508:	029b      	lsls	r3, r3, #10
2000050a:	2410      	movs	r4, #16
2000050c:	b084      	sub	sp, #16
2000050e:	401e      	ands	r6, r3
20000510:	421d      	tst	r5, r3
20000512:	d074      	beq.n	200005fe <dcd_rp2040_irq+0x106>
20000514:	4bc3      	ldr	r3, [pc, #780]	@ (20000824 <dcd_rp2040_irq+0x32c>)
20000516:	4cc4      	ldr	r4, [pc, #784]	@ (20000828 <dcd_rp2040_irq+0x330>)
20000518:	6a9a      	ldr	r2, [r3, #40]	@ 0x28
2000051a:	4bc4      	ldr	r3, [pc, #784]	@ (2000082c <dcd_rp2040_irq+0x334>)
2000051c:	2600      	movs	r6, #0
2000051e:	601a      	str	r2, [r3, #0]
20000520:	233b      	movs	r3, #59	@ 0x3b
20000522:	5ce3      	ldrb	r3, [r4, r3]
20000524:	2b02      	cmp	r3, #2
20000526:	d100      	bne.n	2000052a <dcd_rp2040_irq+0x32>
20000528:	e14f      	b.n	200007ca <dcd_rp2040_irq+0x2d2>
2000052a:	237b      	movs	r3, #123	@ 0x7b
2000052c:	5ce3      	ldrb	r3, [r4, r3]
2000052e:	2b02      	cmp	r3, #2
20000530:	d100      	bne.n	20000534 <dcd_rp2040_irq+0x3c>
20000532:	e0f3      	b.n	2000071c <dcd_rp2040_irq+0x224>
20000534:	23bb      	movs	r3, #187	@ 0xbb
20000536:	5ce3      	ldrb	r3, [r4, r3]
20000538:	2b02      	cmp	r3, #2
2000053a:	d100      	bne.n	2000053e <dcd_rp2040_irq+0x46>
2000053c:	e0fa      	b.n	20000734 <dcd_rp2040_irq+0x23c>
2000053e:	23fb      	movs	r3, #251	@ 0xfb
20000540:	5ce3      	ldrb	r3, [r4, r3]
20000542:	2b02      	cmp	r3, #2
20000544:	d100      	bne.n	20000548 <dcd_rp2040_irq+0x50>
20000546:	e101      	b.n	2000074c <dcd_rp2040_irq+0x254>
20000548:	233c      	movs	r3, #60	@ 0x3c
2000054a:	33ff      	adds	r3, #255	@ 0xff
2000054c:	5ce3      	ldrb	r3, [r4, r3]
2000054e:	2b02      	cmp	r3, #2
20000550:	d100      	bne.n	20000554 <dcd_rp2040_irq+0x5c>
20000552:	e12d      	b.n	200007b0 <dcd_rp2040_irq+0x2b8>
20000554:	237c      	movs	r3, #124	@ 0x7c
20000556:	33ff      	adds	r3, #255	@ 0xff
20000558:	5ce3      	ldrb	r3, [r4, r3]
2000055a:	2b02      	cmp	r3, #2
2000055c:	d100      	bne.n	20000560 <dcd_rp2040_irq+0x68>
2000055e:	e10e      	b.n	2000077e <dcd_rp2040_irq+0x286>
20000560:	23bc      	movs	r3, #188	@ 0xbc
20000562:	33ff      	adds	r3, #255	@ 0xff
20000564:	5ce3      	ldrb	r3, [r4, r3]
20000566:	2b02      	cmp	r3, #2
20000568:	d100      	bne.n	2000056c <dcd_rp2040_irq+0x74>
2000056a:	e13f      	b.n	200007ec <dcd_rp2040_irq+0x2f4>
2000056c:	23fc      	movs	r3, #252	@ 0xfc
2000056e:	33ff      	adds	r3, #255	@ 0xff
20000570:	5ce3      	ldrb	r3, [r4, r3]
20000572:	2b02      	cmp	r3, #2
20000574:	d100      	bne.n	20000578 <dcd_rp2040_irq+0x80>
20000576:	e0f5      	b.n	20000764 <dcd_rp2040_irq+0x26c>
20000578:	4bad      	ldr	r3, [pc, #692]	@ (20000830 <dcd_rp2040_irq+0x338>)
2000057a:	5ce3      	ldrb	r3, [r4, r3]
2000057c:	2b02      	cmp	r3, #2
2000057e:	d100      	bne.n	20000582 <dcd_rp2040_irq+0x8a>
20000580:	e174      	b.n	2000086c <dcd_rp2040_irq+0x374>
20000582:	4bac      	ldr	r3, [pc, #688]	@ (20000834 <dcd_rp2040_irq+0x33c>)
20000584:	5ce3      	ldrb	r3, [r4, r3]
20000586:	2b02      	cmp	r3, #2
20000588:	d100      	bne.n	2000058c <dcd_rp2040_irq+0x94>
2000058a:	e105      	b.n	20000798 <dcd_rp2040_irq+0x2a0>
2000058c:	4baa      	ldr	r3, [pc, #680]	@ (20000838 <dcd_rp2040_irq+0x340>)
2000058e:	5ce3      	ldrb	r3, [r4, r3]
20000590:	2b02      	cmp	r3, #2
20000592:	d100      	bne.n	20000596 <dcd_rp2040_irq+0x9e>
20000594:	e175      	b.n	20000882 <dcd_rp2040_irq+0x38a>
20000596:	4ba9      	ldr	r3, [pc, #676]	@ (2000083c <dcd_rp2040_irq+0x344>)
20000598:	5ce3      	ldrb	r3, [r4, r3]
2000059a:	2b02      	cmp	r3, #2
2000059c:	d100      	bne.n	200005a0 <dcd_rp2040_irq+0xa8>
2000059e:	e132      	b.n	20000806 <dcd_rp2040_irq+0x30e>
200005a0:	4ba7      	ldr	r3, [pc, #668]	@ (20000840 <dcd_rp2040_irq+0x348>)
200005a2:	5ce3      	ldrb	r3, [r4, r3]
200005a4:	2b02      	cmp	r3, #2
200005a6:	d100      	bne.n	200005aa <dcd_rp2040_irq+0xb2>
200005a8:	e1a0      	b.n	200008ec <dcd_rp2040_irq+0x3f4>
200005aa:	4ba6      	ldr	r3, [pc, #664]	@ (20000844 <dcd_rp2040_irq+0x34c>)
200005ac:	5ce3      	ldrb	r3, [r4, r3]
200005ae:	2b02      	cmp	r3, #2
200005b0:	d100      	bne.n	200005b4 <dcd_rp2040_irq+0xbc>
200005b2:	e171      	b.n	20000898 <dcd_rp2040_irq+0x3a0>
200005b4:	4ba4      	ldr	r3, [pc, #656]	@ (20000848 <dcd_rp2040_irq+0x350>)
200005b6:	5ce3      	ldrb	r3, [r4, r3]
200005b8:	2b02      	cmp	r3, #2
200005ba:	d100      	bne.n	200005be <dcd_rp2040_irq+0xc6>
200005bc:	e1a1      	b.n	20000902 <dcd_rp2040_irq+0x40a>
200005be:	4ba3      	ldr	r3, [pc, #652]	@ (2000084c <dcd_rp2040_irq+0x354>)
200005c0:	5ce3      	ldrb	r3, [r4, r3]
200005c2:	2b02      	cmp	r3, #2
200005c4:	d100      	bne.n	200005c8 <dcd_rp2040_irq+0xd0>
200005c6:	e17f      	b.n	200008c8 <dcd_rp2040_irq+0x3d0>
200005c8:	2e00      	cmp	r6, #0
200005ca:	d108      	bne.n	200005de <dcd_rp2040_irq+0xe6>
200005cc:	4ba0      	ldr	r3, [pc, #640]	@ (20000850 <dcd_rp2040_irq+0x358>)
200005ce:	781b      	ldrb	r3, [r3, #0]
200005d0:	2b00      	cmp	r3, #0
200005d2:	d104      	bne.n	200005de <dcd_rp2040_irq+0xe6>
200005d4:	2180      	movs	r1, #128	@ 0x80
200005d6:	4a9f      	ldr	r2, [pc, #636]	@ (20000854 <dcd_rp2040_irq+0x35c>)
200005d8:	3390      	adds	r3, #144	@ 0x90
200005da:	0289      	lsls	r1, r1, #10
200005dc:	50d1      	str	r1, [r2, r3]
200005de:	22c0      	movs	r2, #192	@ 0xc0
200005e0:	4669      	mov	r1, sp
200005e2:	4b8f      	ldr	r3, [pc, #572]	@ (20000820 <dcd_rp2040_irq+0x328>)
200005e4:	0092      	lsls	r2, r2, #2
200005e6:	6c9b      	ldr	r3, [r3, #72]	@ 0x48
200005e8:	2680      	movs	r6, #128	@ 0x80
200005ea:	055b      	lsls	r3, r3, #21
200005ec:	808a      	strh	r2, [r1, #4]
200005ee:	0d5b      	lsrs	r3, r3, #21
200005f0:	2101      	movs	r1, #1
200005f2:	a801      	add	r0, sp, #4
200005f4:	9302      	str	r3, [sp, #8]
200005f6:	f000 fb99 	bl	20000d2c <dcd_event_handler>
200005fa:	4c97      	ldr	r4, [pc, #604]	@ (20000858 <dcd_rp2040_irq+0x360>)
200005fc:	02b6      	lsls	r6, r6, #10
200005fe:	06eb      	lsls	r3, r5, #27
20000600:	d500      	bpl.n	20000604 <dcd_rp2040_irq+0x10c>
20000602:	e07f      	b.n	20000704 <dcd_rp2040_irq+0x20c>
20000604:	2380      	movs	r3, #128	@ 0x80
20000606:	025b      	lsls	r3, r3, #9
20000608:	421d      	tst	r5, r3
2000060a:	d031      	beq.n	20000670 <dcd_rp2040_irq+0x178>
2000060c:	431e      	orrs	r6, r3
2000060e:	2301      	movs	r3, #1
20000610:	2402      	movs	r4, #2
20000612:	4698      	mov	r8, r3
20000614:	4f84      	ldr	r7, [pc, #528]	@ (20000828 <dcd_rp2040_irq+0x330>)
20000616:	7ebb      	ldrb	r3, [r7, #26]
20000618:	2b00      	cmp	r3, #0
2000061a:	d014      	beq.n	20000646 <dcd_rp2040_irq+0x14e>
2000061c:	f000 fc94 	bl	20000f48 <__rp2040_chip_version_veneer>
20000620:	2801      	cmp	r0, #1
20000622:	d900      	bls.n	20000626 <dcd_rp2040_irq+0x12e>
20000624:	e072      	b.n	2000070c <dcd_rp2040_irq+0x214>
20000626:	22c0      	movs	r2, #192	@ 0xc0
20000628:	2100      	movs	r1, #0
2000062a:	0038      	movs	r0, r7
2000062c:	0192      	lsls	r2, r2, #6
2000062e:	f000 fb01 	bl	20000c34 <_hw_endpoint_buffer_control_update32>
20000632:	0038      	movs	r0, r7
20000634:	f000 faf8 	bl	20000c28 <hw_endpoint_reset_transfer>
20000638:	f000 fc86 	bl	20000f48 <__rp2040_chip_version_veneer>
2000063c:	2801      	cmp	r0, #1
2000063e:	d902      	bls.n	20000646 <dcd_rp2040_irq+0x14e>
20000640:	4b84      	ldr	r3, [pc, #528]	@ (20000854 <dcd_rp2040_irq+0x35c>)
20000642:	665c      	str	r4, [r3, #100]	@ 0x64
20000644:	661c      	str	r4, [r3, #96]	@ 0x60
20000646:	4643      	mov	r3, r8
20000648:	70fb      	strb	r3, [r7, #3]
2000064a:	3720      	adds	r7, #32
2000064c:	2c01      	cmp	r4, #1
2000064e:	d122      	bne.n	20000696 <dcd_rp2040_irq+0x19e>
20000650:	23c0      	movs	r3, #192	@ 0xc0
20000652:	466a      	mov	r2, sp
20000654:	00db      	lsls	r3, r3, #3
20000656:	8093      	strh	r3, [r2, #4]
20000658:	4a80      	ldr	r2, [pc, #512]	@ (2000085c <dcd_rp2040_irq+0x364>)
2000065a:	ab02      	add	r3, sp, #8
2000065c:	ca03      	ldmia	r2!, {r0, r1}
2000065e:	c303      	stmia	r3!, {r0, r1}
20000660:	2101      	movs	r1, #1
20000662:	a801      	add	r0, sp, #4
20000664:	f000 fb62 	bl	20000d2c <dcd_event_handler>
20000668:	2280      	movs	r2, #128	@ 0x80
2000066a:	4b7a      	ldr	r3, [pc, #488]	@ (20000854 <dcd_rp2040_irq+0x35c>)
2000066c:	0292      	lsls	r2, r2, #10
2000066e:	651a      	str	r2, [r3, #80]	@ 0x50
20000670:	2380      	movs	r3, #128	@ 0x80
20000672:	015b      	lsls	r3, r3, #5
20000674:	421d      	tst	r5, r3
20000676:	d110      	bne.n	2000069a <dcd_rp2040_irq+0x1a2>
20000678:	2380      	movs	r3, #128	@ 0x80
2000067a:	01db      	lsls	r3, r3, #7
2000067c:	421d      	tst	r5, r3
2000067e:	d123      	bne.n	200006c8 <dcd_rp2040_irq+0x1d0>
20000680:	2380      	movs	r3, #128	@ 0x80
20000682:	021b      	lsls	r3, r3, #8
20000684:	421d      	tst	r5, r3
20000686:	d12f      	bne.n	200006e8 <dcd_rp2040_irq+0x1f0>
20000688:	42ae      	cmp	r6, r5
2000068a:	d000      	beq.n	2000068e <dcd_rp2040_irq+0x196>
2000068c:	e1c0      	b.n	20000a10 <dcd_rp2040_irq+0x518>
2000068e:	b004      	add	sp, #16
20000690:	bc80      	pop	{r7}
20000692:	46b8      	mov	r8, r7
20000694:	bdf0      	pop	{r4, r5, r6, r7, pc}
20000696:	2401      	movs	r4, #1
20000698:	e7bd      	b.n	20000616 <dcd_rp2040_irq+0x11e>
2000069a:	2400      	movs	r4, #0
2000069c:	431e      	orrs	r6, r3
2000069e:	4b60      	ldr	r3, [pc, #384]	@ (20000820 <dcd_rp2040_irq+0x328>)
200006a0:	601c      	str	r4, [r3, #0]
200006a2:	f7ff fea5 	bl	200003f0 <reset_non_control_endpoints>
200006a6:	2380      	movs	r3, #128	@ 0x80
200006a8:	466a      	mov	r2, sp
200006aa:	005b      	lsls	r3, r3, #1
200006ac:	8093      	strh	r3, [r2, #4]
200006ae:	7214      	strb	r4, [r2, #8]
200006b0:	2101      	movs	r1, #1
200006b2:	a801      	add	r0, sp, #4
200006b4:	f000 fb3a 	bl	20000d2c <dcd_event_handler>
200006b8:	2280      	movs	r2, #128	@ 0x80
200006ba:	4b66      	ldr	r3, [pc, #408]	@ (20000854 <dcd_rp2040_irq+0x35c>)
200006bc:	0312      	lsls	r2, r2, #12
200006be:	651a      	str	r2, [r3, #80]	@ 0x50
200006c0:	2380      	movs	r3, #128	@ 0x80
200006c2:	01db      	lsls	r3, r3, #7
200006c4:	421d      	tst	r5, r3
200006c6:	d0db      	beq.n	20000680 <dcd_rp2040_irq+0x188>
200006c8:	431e      	orrs	r6, r3
200006ca:	2380      	movs	r3, #128	@ 0x80
200006cc:	466a      	mov	r2, sp
200006ce:	00db      	lsls	r3, r3, #3
200006d0:	8093      	strh	r3, [r2, #4]
200006d2:	2101      	movs	r1, #1
200006d4:	a801      	add	r0, sp, #4
200006d6:	f000 fb29 	bl	20000d2c <dcd_event_handler>
200006da:	2210      	movs	r2, #16
200006dc:	4b5d      	ldr	r3, [pc, #372]	@ (20000854 <dcd_rp2040_irq+0x35c>)
200006de:	651a      	str	r2, [r3, #80]	@ 0x50
200006e0:	2380      	movs	r3, #128	@ 0x80
200006e2:	021b      	lsls	r3, r3, #8
200006e4:	421d      	tst	r5, r3
200006e6:	d0cf      	beq.n	20000688 <dcd_rp2040_irq+0x190>
200006e8:	431e      	orrs	r6, r3
200006ea:	23a0      	movs	r3, #160	@ 0xa0
200006ec:	466a      	mov	r2, sp
200006ee:	00db      	lsls	r3, r3, #3
200006f0:	8093      	strh	r3, [r2, #4]
200006f2:	2101      	movs	r1, #1
200006f4:	a801      	add	r0, sp, #4
200006f6:	f000 fb19 	bl	20000d2c <dcd_event_handler>
200006fa:	2280      	movs	r2, #128	@ 0x80
200006fc:	4b55      	ldr	r3, [pc, #340]	@ (20000854 <dcd_rp2040_irq+0x35c>)
200006fe:	0112      	lsls	r2, r2, #4
20000700:	651a      	str	r2, [r3, #80]	@ 0x50
20000702:	e7c1      	b.n	20000688 <dcd_rp2040_irq+0x190>
20000704:	f7ff fea8 	bl	20000458 <hw_handle_buff_status>
20000708:	0026      	movs	r6, r4
2000070a:	e77b      	b.n	20000604 <dcd_rp2040_irq+0x10c>
2000070c:	4b54      	ldr	r3, [pc, #336]	@ (20000860 <dcd_rp2040_irq+0x368>)
2000070e:	4a44      	ldr	r2, [pc, #272]	@ (20000820 <dcd_rp2040_irq+0x328>)
20000710:	661c      	str	r4, [r3, #96]	@ 0x60
20000712:	6e53      	ldr	r3, [r2, #100]	@ 0x64
20000714:	4023      	ands	r3, r4
20000716:	42a3      	cmp	r3, r4
20000718:	d1fb      	bne.n	20000712 <dcd_rp2040_irq+0x21a>
2000071a:	e784      	b.n	20000626 <dcd_rp2040_irq+0x12e>
2000071c:	3378      	adds	r3, #120	@ 0x78
2000071e:	5ce7      	ldrb	r7, [r4, r3]
20000720:	2f00      	cmp	r7, #0
20000722:	d100      	bne.n	20000726 <dcd_rp2040_irq+0x22e>
20000724:	e706      	b.n	20000534 <dcd_rp2040_irq+0x3c>
20000726:	3302      	adds	r3, #2
20000728:	5ce2      	ldrb	r2, [r4, r3]
2000072a:	2a00      	cmp	r2, #0
2000072c:	d000      	beq.n	20000730 <dcd_rp2040_irq+0x238>
2000072e:	e10d      	b.n	2000094c <dcd_rp2040_irq+0x454>
20000730:	003e      	movs	r6, r7
20000732:	e6ff      	b.n	20000534 <dcd_rp2040_irq+0x3c>
20000734:	33b8      	adds	r3, #184	@ 0xb8
20000736:	5ce7      	ldrb	r7, [r4, r3]
20000738:	2f00      	cmp	r7, #0
2000073a:	d100      	bne.n	2000073e <dcd_rp2040_irq+0x246>
2000073c:	e6ff      	b.n	2000053e <dcd_rp2040_irq+0x46>
2000073e:	3302      	adds	r3, #2
20000740:	5ce2      	ldrb	r2, [r4, r3]
20000742:	2a00      	cmp	r2, #0
20000744:	d000      	beq.n	20000748 <dcd_rp2040_irq+0x250>
20000746:	e0f9      	b.n	2000093c <dcd_rp2040_irq+0x444>
20000748:	003e      	movs	r6, r7
2000074a:	e6f8      	b.n	2000053e <dcd_rp2040_irq+0x46>
2000074c:	33f8      	adds	r3, #248	@ 0xf8
2000074e:	5ce7      	ldrb	r7, [r4, r3]
20000750:	2f00      	cmp	r7, #0
20000752:	d100      	bne.n	20000756 <dcd_rp2040_irq+0x25e>
20000754:	e6f8      	b.n	20000548 <dcd_rp2040_irq+0x50>
20000756:	3302      	adds	r3, #2
20000758:	5ce2      	ldrb	r2, [r4, r3]
2000075a:	2a00      	cmp	r2, #0
2000075c:	d000      	beq.n	20000760 <dcd_rp2040_irq+0x268>
2000075e:	e141      	b.n	200009e4 <dcd_rp2040_irq+0x4ec>
20000760:	003e      	movs	r6, r7
20000762:	e6f1      	b.n	20000548 <dcd_rp2040_irq+0x50>
20000764:	33f9      	adds	r3, #249	@ 0xf9
20000766:	33ff      	adds	r3, #255	@ 0xff
20000768:	5ce7      	ldrb	r7, [r4, r3]
2000076a:	2f00      	cmp	r7, #0
2000076c:	d100      	bne.n	20000770 <dcd_rp2040_irq+0x278>
2000076e:	e703      	b.n	20000578 <dcd_rp2040_irq+0x80>
20000770:	3302      	adds	r3, #2
20000772:	5ce2      	ldrb	r2, [r4, r3]
20000774:	2a00      	cmp	r2, #0
20000776:	d000      	beq.n	2000077a <dcd_rp2040_irq+0x282>
20000778:	e12b      	b.n	200009d2 <dcd_rp2040_irq+0x4da>
2000077a:	003e      	movs	r6, r7
2000077c:	e6fc      	b.n	20000578 <dcd_rp2040_irq+0x80>
2000077e:	3379      	adds	r3, #121	@ 0x79
20000780:	33ff      	adds	r3, #255	@ 0xff
20000782:	5ce7      	ldrb	r7, [r4, r3]
20000784:	2f00      	cmp	r7, #0
20000786:	d100      	bne.n	2000078a <dcd_rp2040_irq+0x292>
20000788:	e6ea      	b.n	20000560 <dcd_rp2040_irq+0x68>
2000078a:	3302      	adds	r3, #2
2000078c:	5ce2      	ldrb	r2, [r4, r3]
2000078e:	2a00      	cmp	r2, #0
20000790:	d000      	beq.n	20000794 <dcd_rp2040_irq+0x29c>
20000792:	e115      	b.n	200009c0 <dcd_rp2040_irq+0x4c8>
20000794:	003e      	movs	r6, r7
20000796:	e6e3      	b.n	20000560 <dcd_rp2040_irq+0x68>
20000798:	4b32      	ldr	r3, [pc, #200]	@ (20000864 <dcd_rp2040_irq+0x36c>)
2000079a:	5ce7      	ldrb	r7, [r4, r3]
2000079c:	2f00      	cmp	r7, #0
2000079e:	d100      	bne.n	200007a2 <dcd_rp2040_irq+0x2aa>
200007a0:	e6f4      	b.n	2000058c <dcd_rp2040_irq+0x94>
200007a2:	3302      	adds	r3, #2
200007a4:	5ce2      	ldrb	r2, [r4, r3]
200007a6:	2a00      	cmp	r2, #0
200007a8:	d000      	beq.n	200007ac <dcd_rp2040_irq+0x2b4>
200007aa:	e101      	b.n	200009b0 <dcd_rp2040_irq+0x4b8>
200007ac:	003e      	movs	r6, r7
200007ae:	e6ed      	b.n	2000058c <dcd_rp2040_irq+0x94>
200007b0:	3339      	adds	r3, #57	@ 0x39
200007b2:	33ff      	adds	r3, #255	@ 0xff
200007b4:	5ce7      	ldrb	r7, [r4, r3]
200007b6:	2f00      	cmp	r7, #0
200007b8:	d100      	bne.n	200007bc <dcd_rp2040_irq+0x2c4>
200007ba:	e6cb      	b.n	20000554 <dcd_rp2040_irq+0x5c>
200007bc:	3302      	adds	r3, #2
200007be:	5ce2      	ldrb	r2, [r4, r3]
200007c0:	2a00      	cmp	r2, #0
200007c2:	d000      	beq.n	200007c6 <dcd_rp2040_irq+0x2ce>
200007c4:	e0eb      	b.n	2000099e <dcd_rp2040_irq+0x4a6>
200007c6:	003e      	movs	r6, r7
200007c8:	e6c4      	b.n	20000554 <dcd_rp2040_irq+0x5c>
200007ca:	3338      	adds	r3, #56	@ 0x38
200007cc:	5ce6      	ldrb	r6, [r4, r3]
200007ce:	2e00      	cmp	r6, #0
200007d0:	d100      	bne.n	200007d4 <dcd_rp2040_irq+0x2dc>
200007d2:	e6aa      	b.n	2000052a <dcd_rp2040_irq+0x32>
200007d4:	3302      	adds	r3, #2
200007d6:	5ce2      	ldrb	r2, [r4, r3]
200007d8:	2a00      	cmp	r2, #0
200007da:	d100      	bne.n	200007de <dcd_rp2040_irq+0x2e6>
200007dc:	e6a5      	b.n	2000052a <dcd_rp2040_irq+0x32>
200007de:	0020      	movs	r0, r4
200007e0:	2200      	movs	r2, #0
200007e2:	3020      	adds	r0, #32
200007e4:	54e2      	strb	r2, [r4, r3]
200007e6:	f000 fa4d 	bl	20000c84 <hw_endpoint_start_next_buffer>
200007ea:	e69e      	b.n	2000052a <dcd_rp2040_irq+0x32>
200007ec:	33b9      	adds	r3, #185	@ 0xb9
200007ee:	33ff      	adds	r3, #255	@ 0xff
200007f0:	5ce7      	ldrb	r7, [r4, r3]
200007f2:	2f00      	cmp	r7, #0
200007f4:	d100      	bne.n	200007f8 <dcd_rp2040_irq+0x300>
200007f6:	e6b9      	b.n	2000056c <dcd_rp2040_irq+0x74>
200007f8:	3302      	adds	r3, #2
200007fa:	5ce2      	ldrb	r2, [r4, r3]
200007fc:	2a00      	cmp	r2, #0
200007fe:	d000      	beq.n	20000802 <dcd_rp2040_irq+0x30a>
20000800:	e0c4      	b.n	2000098c <dcd_rp2040_irq+0x494>
20000802:	003e      	movs	r6, r7
20000804:	e6b2      	b.n	2000056c <dcd_rp2040_irq+0x74>
20000806:	4b18      	ldr	r3, [pc, #96]	@ (20000868 <dcd_rp2040_irq+0x370>)
20000808:	5ce7      	ldrb	r7, [r4, r3]
2000080a:	2f00      	cmp	r7, #0
2000080c:	d100      	bne.n	20000810 <dcd_rp2040_irq+0x318>
2000080e:	e6c7      	b.n	200005a0 <dcd_rp2040_irq+0xa8>
20000810:	3302      	adds	r3, #2
20000812:	5ce2      	ldrb	r2, [r4, r3]
20000814:	2a00      	cmp	r2, #0
20000816:	d000      	beq.n	2000081a <dcd_rp2040_irq+0x322>
20000818:	e0b0      	b.n	2000097c <dcd_rp2040_irq+0x484>
2000081a:	003e      	movs	r6, r7
2000081c:	e6c0      	b.n	200005a0 <dcd_rp2040_irq+0xa8>
2000081e:	46c0      	nop			@ (mov r8, r8)
20000820:	50110000 	.word	0x50110000
20000824:	40054000 	.word	0x40054000
20000828:	20004d68 	.word	0x20004d68
2000082c:	20004d58 	.word	0x20004d58
20000830:	0000023b 	.word	0x0000023b
20000834:	0000027b 	.word	0x0000027b
20000838:	000002bb 	.word	0x000002bb
2000083c:	000002fb 	.word	0x000002fb
20000840:	0000033b 	.word	0x0000033b
20000844:	0000037b 	.word	0x0000037b
20000848:	000003bb 	.word	0x000003bb
2000084c:	000003fb 	.word	0x000003fb
20000850:	20005301 	.word	0x20005301
20000854:	50113000 	.word	0x50113000
20000858:	00020010 	.word	0x00020010
2000085c:	50100000 	.word	0x50100000
20000860:	50112000 	.word	0x50112000
20000864:	0000027a 	.word	0x0000027a
20000868:	000002fa 	.word	0x000002fa
2000086c:	4b6b      	ldr	r3, [pc, #428]	@ (20000a1c <dcd_rp2040_irq+0x524>)
2000086e:	5ce7      	ldrb	r7, [r4, r3]
20000870:	2f00      	cmp	r7, #0
20000872:	d100      	bne.n	20000876 <dcd_rp2040_irq+0x37e>
20000874:	e685      	b.n	20000582 <dcd_rp2040_irq+0x8a>
20000876:	3302      	adds	r3, #2
20000878:	5ce2      	ldrb	r2, [r4, r3]
2000087a:	2a00      	cmp	r2, #0
2000087c:	d176      	bne.n	2000096c <dcd_rp2040_irq+0x474>
2000087e:	003e      	movs	r6, r7
20000880:	e67f      	b.n	20000582 <dcd_rp2040_irq+0x8a>
20000882:	4b67      	ldr	r3, [pc, #412]	@ (20000a20 <dcd_rp2040_irq+0x528>)
20000884:	5ce7      	ldrb	r7, [r4, r3]
20000886:	2f00      	cmp	r7, #0
20000888:	d100      	bne.n	2000088c <dcd_rp2040_irq+0x394>
2000088a:	e684      	b.n	20000596 <dcd_rp2040_irq+0x9e>
2000088c:	3302      	adds	r3, #2
2000088e:	5ce2      	ldrb	r2, [r4, r3]
20000890:	2a00      	cmp	r2, #0
20000892:	d163      	bne.n	2000095c <dcd_rp2040_irq+0x464>
20000894:	003e      	movs	r6, r7
20000896:	e67e      	b.n	20000596 <dcd_rp2040_irq+0x9e>
20000898:	4b62      	ldr	r3, [pc, #392]	@ (20000a24 <dcd_rp2040_irq+0x52c>)
2000089a:	5ce7      	ldrb	r7, [r4, r3]
2000089c:	2f00      	cmp	r7, #0
2000089e:	d100      	bne.n	200008a2 <dcd_rp2040_irq+0x3aa>
200008a0:	e688      	b.n	200005b4 <dcd_rp2040_irq+0xbc>
200008a2:	3302      	adds	r3, #2
200008a4:	5ce2      	ldrb	r2, [r4, r3]
200008a6:	2a00      	cmp	r2, #0
200008a8:	d000      	beq.n	200008ac <dcd_rp2040_irq+0x3b4>
200008aa:	e0a3      	b.n	200009f4 <dcd_rp2040_irq+0x4fc>
200008ac:	4b5e      	ldr	r3, [pc, #376]	@ (20000a28 <dcd_rp2040_irq+0x530>)
200008ae:	5ce3      	ldrb	r3, [r4, r3]
200008b0:	2b02      	cmp	r3, #2
200008b2:	d130      	bne.n	20000916 <dcd_rp2040_irq+0x41e>
200008b4:	4b5d      	ldr	r3, [pc, #372]	@ (20000a2c <dcd_rp2040_irq+0x534>)
200008b6:	5ce3      	ldrb	r3, [r4, r3]
200008b8:	2b00      	cmp	r3, #0
200008ba:	d127      	bne.n	2000090c <dcd_rp2040_irq+0x414>
200008bc:	4b5c      	ldr	r3, [pc, #368]	@ (20000a30 <dcd_rp2040_irq+0x538>)
200008be:	5ce3      	ldrb	r3, [r4, r3]
200008c0:	2b02      	cmp	r3, #2
200008c2:	d000      	beq.n	200008c6 <dcd_rp2040_irq+0x3ce>
200008c4:	e68b      	b.n	200005de <dcd_rp2040_irq+0xe6>
200008c6:	003e      	movs	r6, r7
200008c8:	4b5a      	ldr	r3, [pc, #360]	@ (20000a34 <dcd_rp2040_irq+0x53c>)
200008ca:	5ce3      	ldrb	r3, [r4, r3]
200008cc:	2b00      	cmp	r3, #0
200008ce:	d100      	bne.n	200008d2 <dcd_rp2040_irq+0x3da>
200008d0:	e67a      	b.n	200005c8 <dcd_rp2040_irq+0xd0>
200008d2:	23ff      	movs	r3, #255	@ 0xff
200008d4:	009b      	lsls	r3, r3, #2
200008d6:	5ce2      	ldrb	r2, [r4, r3]
200008d8:	2a00      	cmp	r2, #0
200008da:	d100      	bne.n	200008de <dcd_rp2040_irq+0x3e6>
200008dc:	e67f      	b.n	200005de <dcd_rp2040_irq+0xe6>
200008de:	2200      	movs	r2, #0
200008e0:	54e2      	strb	r2, [r4, r3]
200008e2:	3b1c      	subs	r3, #28
200008e4:	18e0      	adds	r0, r4, r3
200008e6:	f000 f9cd 	bl	20000c84 <hw_endpoint_start_next_buffer>
200008ea:	e678      	b.n	200005de <dcd_rp2040_irq+0xe6>
200008ec:	4b52      	ldr	r3, [pc, #328]	@ (20000a38 <dcd_rp2040_irq+0x540>)
200008ee:	5ce7      	ldrb	r7, [r4, r3]
200008f0:	2f00      	cmp	r7, #0
200008f2:	d100      	bne.n	200008f6 <dcd_rp2040_irq+0x3fe>
200008f4:	e659      	b.n	200005aa <dcd_rp2040_irq+0xb2>
200008f6:	3302      	adds	r3, #2
200008f8:	5ce2      	ldrb	r2, [r4, r3]
200008fa:	2a00      	cmp	r2, #0
200008fc:	d116      	bne.n	2000092c <dcd_rp2040_irq+0x434>
200008fe:	003e      	movs	r6, r7
20000900:	e653      	b.n	200005aa <dcd_rp2040_irq+0xb2>
20000902:	4b4a      	ldr	r3, [pc, #296]	@ (20000a2c <dcd_rp2040_irq+0x534>)
20000904:	5ce3      	ldrb	r3, [r4, r3]
20000906:	2b00      	cmp	r3, #0
20000908:	d100      	bne.n	2000090c <dcd_rp2040_irq+0x414>
2000090a:	e658      	b.n	200005be <dcd_rp2040_irq+0xc6>
2000090c:	23ef      	movs	r3, #239	@ 0xef
2000090e:	009b      	lsls	r3, r3, #2
20000910:	5ce2      	ldrb	r2, [r4, r3]
20000912:	2a00      	cmp	r2, #0
20000914:	d175      	bne.n	20000a02 <dcd_rp2040_irq+0x50a>
20000916:	4b46      	ldr	r3, [pc, #280]	@ (20000a30 <dcd_rp2040_irq+0x538>)
20000918:	5ce3      	ldrb	r3, [r4, r3]
2000091a:	2b02      	cmp	r3, #2
2000091c:	d000      	beq.n	20000920 <dcd_rp2040_irq+0x428>
2000091e:	e65e      	b.n	200005de <dcd_rp2040_irq+0xe6>
20000920:	4b44      	ldr	r3, [pc, #272]	@ (20000a34 <dcd_rp2040_irq+0x53c>)
20000922:	5ce3      	ldrb	r3, [r4, r3]
20000924:	2b00      	cmp	r3, #0
20000926:	d100      	bne.n	2000092a <dcd_rp2040_irq+0x432>
20000928:	e659      	b.n	200005de <dcd_rp2040_irq+0xe6>
2000092a:	e7d2      	b.n	200008d2 <dcd_rp2040_irq+0x3da>
2000092c:	2200      	movs	r2, #0
2000092e:	54e2      	strb	r2, [r4, r3]
20000930:	3b1c      	subs	r3, #28
20000932:	18e0      	adds	r0, r4, r3
20000934:	f000 f9a6 	bl	20000c84 <hw_endpoint_start_next_buffer>
20000938:	003e      	movs	r6, r7
2000093a:	e636      	b.n	200005aa <dcd_rp2040_irq+0xb2>
2000093c:	0020      	movs	r0, r4
2000093e:	2200      	movs	r2, #0
20000940:	30a0      	adds	r0, #160	@ 0xa0
20000942:	54e2      	strb	r2, [r4, r3]
20000944:	003e      	movs	r6, r7
20000946:	f000 f99d 	bl	20000c84 <hw_endpoint_start_next_buffer>
2000094a:	e5f8      	b.n	2000053e <dcd_rp2040_irq+0x46>
2000094c:	0020      	movs	r0, r4
2000094e:	2200      	movs	r2, #0
20000950:	3060      	adds	r0, #96	@ 0x60
20000952:	54e2      	strb	r2, [r4, r3]
20000954:	003e      	movs	r6, r7
20000956:	f000 f995 	bl	20000c84 <hw_endpoint_start_next_buffer>
2000095a:	e5eb      	b.n	20000534 <dcd_rp2040_irq+0x3c>
2000095c:	2200      	movs	r2, #0
2000095e:	54e2      	strb	r2, [r4, r3]
20000960:	3b1c      	subs	r3, #28
20000962:	18e0      	adds	r0, r4, r3
20000964:	f000 f98e 	bl	20000c84 <hw_endpoint_start_next_buffer>
20000968:	003e      	movs	r6, r7
2000096a:	e614      	b.n	20000596 <dcd_rp2040_irq+0x9e>
2000096c:	2200      	movs	r2, #0
2000096e:	54e2      	strb	r2, [r4, r3]
20000970:	3b1c      	subs	r3, #28
20000972:	18e0      	adds	r0, r4, r3
20000974:	f000 f986 	bl	20000c84 <hw_endpoint_start_next_buffer>
20000978:	003e      	movs	r6, r7
2000097a:	e602      	b.n	20000582 <dcd_rp2040_irq+0x8a>
2000097c:	2200      	movs	r2, #0
2000097e:	54e2      	strb	r2, [r4, r3]
20000980:	3b1c      	subs	r3, #28
20000982:	18e0      	adds	r0, r4, r3
20000984:	f000 f97e 	bl	20000c84 <hw_endpoint_start_next_buffer>
20000988:	003e      	movs	r6, r7
2000098a:	e609      	b.n	200005a0 <dcd_rp2040_irq+0xa8>
2000098c:	0020      	movs	r0, r4
2000098e:	2200      	movs	r2, #0
20000990:	30a1      	adds	r0, #161	@ 0xa1
20000992:	30ff      	adds	r0, #255	@ 0xff
20000994:	54e2      	strb	r2, [r4, r3]
20000996:	003e      	movs	r6, r7
20000998:	f000 f974 	bl	20000c84 <hw_endpoint_start_next_buffer>
2000099c:	e5e6      	b.n	2000056c <dcd_rp2040_irq+0x74>
2000099e:	0020      	movs	r0, r4
200009a0:	2200      	movs	r2, #0
200009a2:	3021      	adds	r0, #33	@ 0x21
200009a4:	30ff      	adds	r0, #255	@ 0xff
200009a6:	54e2      	strb	r2, [r4, r3]
200009a8:	003e      	movs	r6, r7
200009aa:	f000 f96b 	bl	20000c84 <hw_endpoint_start_next_buffer>
200009ae:	e5d1      	b.n	20000554 <dcd_rp2040_irq+0x5c>
200009b0:	2200      	movs	r2, #0
200009b2:	54e2      	strb	r2, [r4, r3]
200009b4:	3b1c      	subs	r3, #28
200009b6:	18e0      	adds	r0, r4, r3
200009b8:	f000 f964 	bl	20000c84 <hw_endpoint_start_next_buffer>
200009bc:	003e      	movs	r6, r7
200009be:	e5e5      	b.n	2000058c <dcd_rp2040_irq+0x94>
200009c0:	0020      	movs	r0, r4
200009c2:	2200      	movs	r2, #0
200009c4:	3061      	adds	r0, #97	@ 0x61
200009c6:	30ff      	adds	r0, #255	@ 0xff
200009c8:	54e2      	strb	r2, [r4, r3]
200009ca:	003e      	movs	r6, r7
200009cc:	f000 f95a 	bl	20000c84 <hw_endpoint_start_next_buffer>
200009d0:	e5c6      	b.n	20000560 <dcd_rp2040_irq+0x68>
200009d2:	0020      	movs	r0, r4
200009d4:	2200      	movs	r2, #0
200009d6:	30e1      	adds	r0, #225	@ 0xe1
200009d8:	30ff      	adds	r0, #255	@ 0xff
200009da:	54e2      	strb	r2, [r4, r3]
200009dc:	003e      	movs	r6, r7
200009de:	f000 f951 	bl	20000c84 <hw_endpoint_start_next_buffer>
200009e2:	e5c9      	b.n	20000578 <dcd_rp2040_irq+0x80>
200009e4:	0020      	movs	r0, r4
200009e6:	2200      	movs	r2, #0
200009e8:	30e0      	adds	r0, #224	@ 0xe0
200009ea:	54e2      	strb	r2, [r4, r3]
200009ec:	003e      	movs	r6, r7
200009ee:	f000 f949 	bl	20000c84 <hw_endpoint_start_next_buffer>
200009f2:	e5a9      	b.n	20000548 <dcd_rp2040_irq+0x50>
200009f4:	2200      	movs	r2, #0
200009f6:	54e2      	strb	r2, [r4, r3]
200009f8:	3b1c      	subs	r3, #28
200009fa:	18e0      	adds	r0, r4, r3
200009fc:	f000 f942 	bl	20000c84 <hw_endpoint_start_next_buffer>
20000a00:	e754      	b.n	200008ac <dcd_rp2040_irq+0x3b4>
20000a02:	2200      	movs	r2, #0
20000a04:	54e2      	strb	r2, [r4, r3]
20000a06:	3b1c      	subs	r3, #28
20000a08:	18e0      	adds	r0, r4, r3
20000a0a:	f000 f93b 	bl	20000c84 <hw_endpoint_start_next_buffer>
20000a0e:	e782      	b.n	20000916 <dcd_rp2040_irq+0x41e>
20000a10:	0031      	movs	r1, r6
20000a12:	480a      	ldr	r0, [pc, #40]	@ (20000a3c <dcd_rp2040_irq+0x544>)
20000a14:	4069      	eors	r1, r5
20000a16:	f000 fa8f 	bl	20000f38 <__panic_veneer>
20000a1a:	46c0      	nop			@ (mov r8, r8)
20000a1c:	0000023a 	.word	0x0000023a
20000a20:	000002ba 	.word	0x000002ba
20000a24:	0000037a 	.word	0x0000037a
20000a28:	000003bb 	.word	0x000003bb
20000a2c:	000003ba 	.word	0x000003ba
20000a30:	000003fb 	.word	0x000003fb
20000a34:	000003fa 	.word	0x000003fa
20000a38:	0000033a 	.word	0x0000033a
20000a3c:	1000b6d8 	.word	0x1000b6d8

20000a40 <prepare_ep_buffer>:
20000a40:	b5f0      	push	{r4, r5, r6, r7, lr}
20000a42:	46c6      	mov	lr, r8
20000a44:	b500      	push	{lr}
20000a46:	0002      	movs	r2, r0
20000a48:	8a83      	ldrh	r3, [r0, #20]
20000a4a:	8b00      	ldrh	r0, [r0, #24]
20000a4c:	468c      	mov	ip, r1
20000a4e:	1c01      	adds	r1, r0, #0
20000a50:	4298      	cmp	r0, r3
20000a52:	d900      	bls.n	20000a56 <prepare_ep_buffer+0x16>
20000a54:	1c19      	adds	r1, r3, #0
20000a56:	78d4      	ldrb	r4, [r2, #3]
20000a58:	2580      	movs	r5, #128	@ 0x80
20000a5a:	0020      	movs	r0, r4
20000a5c:	1e46      	subs	r6, r0, #1
20000a5e:	41b0      	sbcs	r0, r6
20000a60:	b289      	uxth	r1, r1
20000a62:	00ed      	lsls	r5, r5, #3
20000a64:	430d      	orrs	r5, r1
20000a66:	0340      	lsls	r0, r0, #13
20000a68:	4328      	orrs	r0, r5
20000a6a:	2501      	movs	r5, #1
20000a6c:	406c      	eors	r4, r5
20000a6e:	1a5b      	subs	r3, r3, r1
20000a70:	70d4      	strb	r4, [r2, #3]
20000a72:	7854      	ldrb	r4, [r2, #1]
20000a74:	b29b      	uxth	r3, r3
20000a76:	8293      	strh	r3, [r2, #20]
20000a78:	2c00      	cmp	r4, #0
20000a7a:	d131      	bne.n	20000ae0 <prepare_ep_buffer+0xa0>
20000a7c:	4664      	mov	r4, ip
20000a7e:	68d5      	ldr	r5, [r2, #12]
20000a80:	01a4      	lsls	r4, r4, #6
20000a82:	1e4e      	subs	r6, r1, #1
20000a84:	192d      	adds	r5, r5, r4
20000a86:	46b0      	mov	r8, r6
20000a88:	6914      	ldr	r4, [r2, #16]
20000a8a:	2900      	cmp	r1, #0
20000a8c:	d023      	beq.n	20000ad6 <prepare_ep_buffer+0x96>
20000a8e:	2e06      	cmp	r6, #6
20000a90:	d932      	bls.n	20000af8 <prepare_ep_buffer+0xb8>
20000a92:	002b      	movs	r3, r5
20000a94:	4323      	orrs	r3, r4
20000a96:	079b      	lsls	r3, r3, #30
20000a98:	d12e      	bne.n	20000af8 <prepare_ep_buffer+0xb8>
20000a9a:	1c63      	adds	r3, r4, #1
20000a9c:	1aeb      	subs	r3, r5, r3
20000a9e:	2b02      	cmp	r3, #2
20000aa0:	d92a      	bls.n	20000af8 <prepare_ep_buffer+0xb8>
20000aa2:	2300      	movs	r3, #0
20000aa4:	088f      	lsrs	r7, r1, #2
20000aa6:	00bf      	lsls	r7, r7, #2
20000aa8:	58e6      	ldr	r6, [r4, r3]
20000aaa:	50ee      	str	r6, [r5, r3]
20000aac:	3304      	adds	r3, #4
20000aae:	429f      	cmp	r7, r3
20000ab0:	d1fa      	bne.n	20000aa8 <prepare_ep_buffer+0x68>
20000ab2:	4643      	mov	r3, r8
20000ab4:	19ed      	adds	r5, r5, r7
20000ab6:	1bdb      	subs	r3, r3, r7
20000ab8:	19e4      	adds	r4, r4, r7
20000aba:	42b9      	cmp	r1, r7
20000abc:	d009      	beq.n	20000ad2 <prepare_ep_buffer+0x92>
20000abe:	7826      	ldrb	r6, [r4, #0]
20000ac0:	702e      	strb	r6, [r5, #0]
20000ac2:	2b00      	cmp	r3, #0
20000ac4:	d005      	beq.n	20000ad2 <prepare_ep_buffer+0x92>
20000ac6:	7866      	ldrb	r6, [r4, #1]
20000ac8:	706e      	strb	r6, [r5, #1]
20000aca:	2b01      	cmp	r3, #1
20000acc:	d001      	beq.n	20000ad2 <prepare_ep_buffer+0x92>
20000ace:	78a3      	ldrb	r3, [r4, #2]
20000ad0:	70ab      	strb	r3, [r5, #2]
20000ad2:	6914      	ldr	r4, [r2, #16]
20000ad4:	8a93      	ldrh	r3, [r2, #20]
20000ad6:	1864      	adds	r4, r4, r1
20000ad8:	6114      	str	r4, [r2, #16]
20000ada:	2280      	movs	r2, #128	@ 0x80
20000adc:	0212      	lsls	r2, r2, #8
20000ade:	4310      	orrs	r0, r2
20000ae0:	2b00      	cmp	r3, #0
20000ae2:	d102      	bne.n	20000aea <prepare_ep_buffer+0xaa>
20000ae4:	2380      	movs	r3, #128	@ 0x80
20000ae6:	01db      	lsls	r3, r3, #7
20000ae8:	4318      	orrs	r0, r3
20000aea:	4663      	mov	r3, ip
20000aec:	2b00      	cmp	r3, #0
20000aee:	d000      	beq.n	20000af2 <prepare_ep_buffer+0xb2>
20000af0:	0400      	lsls	r0, r0, #16
20000af2:	bc80      	pop	{r7}
20000af4:	46b8      	mov	r8, r7
20000af6:	bdf0      	pop	{r4, r5, r6, r7, pc}
20000af8:	2300      	movs	r3, #0
20000afa:	5ce6      	ldrb	r6, [r4, r3]
20000afc:	54ee      	strb	r6, [r5, r3]
20000afe:	3301      	adds	r3, #1
20000b00:	4299      	cmp	r1, r3
20000b02:	d1fa      	bne.n	20000afa <prepare_ep_buffer+0xba>
20000b04:	e7e5      	b.n	20000ad2 <prepare_ep_buffer+0x92>
20000b06:	46c0      	nop			@ (mov r8, r8)

20000b08 <sync_ep_buffer>:
20000b08:	6883      	ldr	r3, [r0, #8]
20000b0a:	b5f0      	push	{r4, r5, r6, r7, lr}
20000b0c:	681a      	ldr	r2, [r3, #0]
20000b0e:	0004      	movs	r4, r0
20000b10:	2900      	cmp	r1, #0
20000b12:	d000      	beq.n	20000b16 <sync_ep_buffer+0xe>
20000b14:	0c12      	lsrs	r2, r2, #16
20000b16:	7863      	ldrb	r3, [r4, #1]
20000b18:	0592      	lsls	r2, r2, #22
20000b1a:	0d90      	lsrs	r0, r2, #22
20000b1c:	2b00      	cmp	r3, #0
20000b1e:	d108      	bne.n	20000b32 <sync_ep_buffer+0x2a>
20000b20:	8ae3      	ldrh	r3, [r4, #22]
20000b22:	18c3      	adds	r3, r0, r3
20000b24:	82e3      	strh	r3, [r4, #22]
20000b26:	8b23      	ldrh	r3, [r4, #24]
20000b28:	4283      	cmp	r3, r0
20000b2a:	d901      	bls.n	20000b30 <sync_ep_buffer+0x28>
20000b2c:	2300      	movs	r3, #0
20000b2e:	82a3      	strh	r3, [r4, #20]
20000b30:	bdf0      	pop	{r4, r5, r6, r7, pc}
20000b32:	68e3      	ldr	r3, [r4, #12]
20000b34:	0189      	lsls	r1, r1, #6
20000b36:	6925      	ldr	r5, [r4, #16]
20000b38:	185e      	adds	r6, r3, r1
20000b3a:	1e47      	subs	r7, r0, #1
20000b3c:	2800      	cmp	r0, #0
20000b3e:	d022      	beq.n	20000b86 <sync_ep_buffer+0x7e>
20000b40:	2f06      	cmp	r7, #6
20000b42:	d926      	bls.n	20000b92 <sync_ep_buffer+0x8a>
20000b44:	3101      	adds	r1, #1
20000b46:	185b      	adds	r3, r3, r1
20000b48:	1aeb      	subs	r3, r5, r3
20000b4a:	2b02      	cmp	r3, #2
20000b4c:	d921      	bls.n	20000b92 <sync_ep_buffer+0x8a>
20000b4e:	002b      	movs	r3, r5
20000b50:	4333      	orrs	r3, r6
20000b52:	079b      	lsls	r3, r3, #30
20000b54:	d11d      	bne.n	20000b92 <sync_ep_buffer+0x8a>
20000b56:	2300      	movs	r3, #0
20000b58:	0e12      	lsrs	r2, r2, #24
20000b5a:	0092      	lsls	r2, r2, #2
20000b5c:	58f1      	ldr	r1, [r6, r3]
20000b5e:	50e9      	str	r1, [r5, r3]
20000b60:	3304      	adds	r3, #4
20000b62:	429a      	cmp	r2, r3
20000b64:	d1fa      	bne.n	20000b5c <sync_ep_buffer+0x54>
20000b66:	1abf      	subs	r7, r7, r2
20000b68:	18ad      	adds	r5, r5, r2
20000b6a:	18b6      	adds	r6, r6, r2
20000b6c:	4290      	cmp	r0, r2
20000b6e:	d009      	beq.n	20000b84 <sync_ep_buffer+0x7c>
20000b70:	7832      	ldrb	r2, [r6, #0]
20000b72:	702a      	strb	r2, [r5, #0]
20000b74:	2f00      	cmp	r7, #0
20000b76:	d005      	beq.n	20000b84 <sync_ep_buffer+0x7c>
20000b78:	7872      	ldrb	r2, [r6, #1]
20000b7a:	706a      	strb	r2, [r5, #1]
20000b7c:	2f01      	cmp	r7, #1
20000b7e:	d001      	beq.n	20000b84 <sync_ep_buffer+0x7c>
20000b80:	78b2      	ldrb	r2, [r6, #2]
20000b82:	70aa      	strb	r2, [r5, #2]
20000b84:	6925      	ldr	r5, [r4, #16]
20000b86:	8ae3      	ldrh	r3, [r4, #22]
20000b88:	182d      	adds	r5, r5, r0
20000b8a:	18c3      	adds	r3, r0, r3
20000b8c:	82e3      	strh	r3, [r4, #22]
20000b8e:	6125      	str	r5, [r4, #16]
20000b90:	e7c9      	b.n	20000b26 <sync_ep_buffer+0x1e>
20000b92:	2200      	movs	r2, #0
20000b94:	5cb3      	ldrb	r3, [r6, r2]
20000b96:	54ab      	strb	r3, [r5, r2]
20000b98:	3201      	adds	r2, #1
20000b9a:	4290      	cmp	r0, r2
20000b9c:	d1fa      	bne.n	20000b94 <sync_ep_buffer+0x8c>
20000b9e:	6925      	ldr	r5, [r4, #16]
20000ba0:	e7f1      	b.n	20000b86 <sync_ep_buffer+0x7e>
20000ba2:	46c0      	nop			@ (mov r8, r8)

20000ba4 <_hw_endpoint_xfer_sync>:
20000ba4:	b510      	push	{r4, lr}
20000ba6:	0004      	movs	r4, r0
20000ba8:	6883      	ldr	r3, [r0, #8]
20000baa:	2100      	movs	r1, #0
20000bac:	681b      	ldr	r3, [r3, #0]
20000bae:	f7ff ffab 	bl	20000b08 <sync_ep_buffer>
20000bb2:	6863      	ldr	r3, [r4, #4]
20000bb4:	681b      	ldr	r3, [r3, #0]
20000bb6:	005b      	lsls	r3, r3, #1
20000bb8:	d502      	bpl.n	20000bc0 <_hw_endpoint_xfer_sync+0x1c>
20000bba:	8b23      	ldrh	r3, [r4, #24]
20000bbc:	4283      	cmp	r3, r0
20000bbe:	d000      	beq.n	20000bc2 <_hw_endpoint_xfer_sync+0x1e>
20000bc0:	bd10      	pop	{r4, pc}
20000bc2:	2101      	movs	r1, #1
20000bc4:	0020      	movs	r0, r4
20000bc6:	f7ff ff9f 	bl	20000b08 <sync_ep_buffer>
20000bca:	e7f9      	b.n	20000bc0 <_hw_endpoint_xfer_sync+0x1c>

20000bcc <e15_is_bulkin_ep>:
20000bcc:	4a08      	ldr	r2, [pc, #32]	@ (20000bf0 <e15_is_bulkin_ep+0x24>)
20000bce:	0003      	movs	r3, r0
20000bd0:	6c12      	ldr	r2, [r2, #64]	@ 0x40
20000bd2:	2000      	movs	r0, #0
20000bd4:	0792      	lsls	r2, r2, #30
20000bd6:	d403      	bmi.n	20000be0 <e15_is_bulkin_ep+0x14>
20000bd8:	789a      	ldrb	r2, [r3, #2]
20000bda:	09d2      	lsrs	r2, r2, #7
20000bdc:	2a01      	cmp	r2, #1
20000bde:	d000      	beq.n	20000be2 <e15_is_bulkin_ep+0x16>
20000be0:	4770      	bx	lr
20000be2:	7ed8      	ldrb	r0, [r3, #27]
20000be4:	3802      	subs	r0, #2
20000be6:	4243      	negs	r3, r0
20000be8:	4158      	adcs	r0, r3
20000bea:	b2c0      	uxtb	r0, r0
20000bec:	e7f8      	b.n	20000be0 <e15_is_bulkin_ep+0x14>
20000bee:	46c0      	nop			@ (mov r8, r8)
20000bf0:	50110000 	.word	0x50110000

20000bf4 <e15_is_critical_frame_period>:
20000bf4:	b510      	push	{r4, lr}
20000bf6:	f7ff ffe9 	bl	20000bcc <e15_is_bulkin_ep>
20000bfa:	2800      	cmp	r0, #0
20000bfc:	d00c      	beq.n	20000c18 <e15_is_critical_frame_period+0x24>
20000bfe:	4907      	ldr	r1, [pc, #28]	@ (20000c1c <e15_is_critical_frame_period+0x28>)
20000c00:	4b07      	ldr	r3, [pc, #28]	@ (20000c20 <e15_is_critical_frame_period+0x2c>)
20000c02:	468c      	mov	ip, r1
20000c04:	4a07      	ldr	r2, [pc, #28]	@ (20000c24 <e15_is_critical_frame_period+0x30>)
20000c06:	6a9b      	ldr	r3, [r3, #40]	@ 0x28
20000c08:	6812      	ldr	r2, [r2, #0]
20000c0a:	4463      	add	r3, ip
20000c0c:	1a9b      	subs	r3, r3, r2
20000c0e:	2000      	movs	r0, #0
20000c10:	22c6      	movs	r2, #198	@ 0xc6
20000c12:	429a      	cmp	r2, r3
20000c14:	4140      	adcs	r0, r0
20000c16:	b2c0      	uxtb	r0, r0
20000c18:	bd10      	pop	{r4, pc}
20000c1a:	46c0      	nop			@ (mov r8, r8)
20000c1c:	fffffce0 	.word	0xfffffce0
20000c20:	40054000 	.word	0x40054000
20000c24:	20004d58 	.word	0x20004d58

20000c28 <hw_endpoint_reset_transfer>:
20000c28:	2300      	movs	r3, #0
20000c2a:	7683      	strb	r3, [r0, #26]
20000c2c:	6143      	str	r3, [r0, #20]
20000c2e:	6103      	str	r3, [r0, #16]
20000c30:	4770      	bx	lr
20000c32:	46c0      	nop			@ (mov r8, r8)

20000c34 <_hw_endpoint_buffer_control_update32>:
20000c34:	b510      	push	{r4, lr}
20000c36:	6883      	ldr	r3, [r0, #8]
20000c38:	2900      	cmp	r1, #0
20000c3a:	d001      	beq.n	20000c40 <_hw_endpoint_buffer_control_update32+0xc>
20000c3c:	681c      	ldr	r4, [r3, #0]
20000c3e:	4021      	ands	r1, r4
20000c40:	2a00      	cmp	r2, #0
20000c42:	d012      	beq.n	20000c6a <_hw_endpoint_buffer_control_update32+0x36>
20000c44:	2480      	movs	r4, #128	@ 0x80
20000c46:	00e4      	lsls	r4, r4, #3
20000c48:	4311      	orrs	r1, r2
20000c4a:	4222      	tst	r2, r4
20000c4c:	d00d      	beq.n	20000c6a <_hw_endpoint_buffer_control_update32+0x36>
20000c4e:	681a      	ldr	r2, [r3, #0]
20000c50:	4222      	tst	r2, r4
20000c52:	d10c      	bne.n	20000c6e <_hw_endpoint_buffer_control_update32+0x3a>
20000c54:	4a08      	ldr	r2, [pc, #32]	@ (20000c78 <_hw_endpoint_buffer_control_update32+0x44>)
20000c56:	400a      	ands	r2, r1
20000c58:	601a      	str	r2, [r3, #0]
20000c5a:	4a08      	ldr	r2, [pc, #32]	@ (20000c7c <_hw_endpoint_buffer_control_update32+0x48>)
20000c5c:	6c12      	ldr	r2, [r2, #64]	@ 0x40
20000c5e:	0792      	lsls	r2, r2, #30
20000c60:	d403      	bmi.n	20000c6a <_hw_endpoint_buffer_control_update32+0x36>
20000c62:	230c      	movs	r3, #12
20000c64:	3b03      	subs	r3, #3
20000c66:	d2fd      	bcs.n	20000c64 <_hw_endpoint_buffer_control_update32+0x30>
20000c68:	6883      	ldr	r3, [r0, #8]
20000c6a:	6019      	str	r1, [r3, #0]
20000c6c:	bd10      	pop	{r4, pc}
20000c6e:	7881      	ldrb	r1, [r0, #2]
20000c70:	4803      	ldr	r0, [pc, #12]	@ (20000c80 <_hw_endpoint_buffer_control_update32+0x4c>)
20000c72:	f000 f961 	bl	20000f38 <__panic_veneer>
20000c76:	46c0      	nop			@ (mov r8, r8)
20000c78:	fffffbff 	.word	0xfffffbff
20000c7c:	50110000 	.word	0x50110000
20000c80:	1000b6ec 	.word	0x1000b6ec

20000c84 <hw_endpoint_start_next_buffer>:
20000c84:	6843      	ldr	r3, [r0, #4]
20000c86:	b570      	push	{r4, r5, r6, lr}
20000c88:	2100      	movs	r1, #0
20000c8a:	2580      	movs	r5, #128	@ 0x80
20000c8c:	0004      	movs	r4, r0
20000c8e:	681e      	ldr	r6, [r3, #0]
20000c90:	f7ff fed6 	bl	20000a40 <prepare_ep_buffer>
20000c94:	4b12      	ldr	r3, [pc, #72]	@ (20000ce0 <hw_endpoint_start_next_buffer+0x5c>)
20000c96:	016d      	lsls	r5, r5, #5
20000c98:	6c1a      	ldr	r2, [r3, #64]	@ 0x40
20000c9a:	4305      	orrs	r5, r0
20000c9c:	78a3      	ldrb	r3, [r4, #2]
20000c9e:	0792      	lsls	r2, r2, #30
20000ca0:	d50e      	bpl.n	20000cc0 <hw_endpoint_start_next_buffer+0x3c>
20000ca2:	065b      	lsls	r3, r3, #25
20000ca4:	d00e      	beq.n	20000cc4 <hw_endpoint_start_next_buffer+0x40>
20000ca6:	4b0f      	ldr	r3, [pc, #60]	@ (20000ce4 <hw_endpoint_start_next_buffer+0x60>)
20000ca8:	401e      	ands	r6, r3
20000caa:	2380      	movs	r3, #128	@ 0x80
20000cac:	059b      	lsls	r3, r3, #22
20000cae:	4333      	orrs	r3, r6
20000cb0:	6862      	ldr	r2, [r4, #4]
20000cb2:	2100      	movs	r1, #0
20000cb4:	6013      	str	r3, [r2, #0]
20000cb6:	0020      	movs	r0, r4
20000cb8:	002a      	movs	r2, r5
20000cba:	f7ff ffbb 	bl	20000c34 <_hw_endpoint_buffer_control_update32>
20000cbe:	bd70      	pop	{r4, r5, r6, pc}
20000cc0:	09db      	lsrs	r3, r3, #7
20000cc2:	d0f0      	beq.n	20000ca6 <hw_endpoint_start_next_buffer+0x22>
20000cc4:	8aa3      	ldrh	r3, [r4, #20]
20000cc6:	2b00      	cmp	r3, #0
20000cc8:	d0ed      	beq.n	20000ca6 <hw_endpoint_start_next_buffer+0x22>
20000cca:	2101      	movs	r1, #1
20000ccc:	0020      	movs	r0, r4
20000cce:	f7ff feb7 	bl	20000a40 <prepare_ep_buffer>
20000cd2:	23a0      	movs	r3, #160	@ 0xa0
20000cd4:	4a04      	ldr	r2, [pc, #16]	@ (20000ce8 <hw_endpoint_start_next_buffer+0x64>)
20000cd6:	05db      	lsls	r3, r3, #23
20000cd8:	4032      	ands	r2, r6
20000cda:	4305      	orrs	r5, r0
20000cdc:	4313      	orrs	r3, r2
20000cde:	e7e7      	b.n	20000cb0 <hw_endpoint_start_next_buffer+0x2c>
20000ce0:	50110000 	.word	0x50110000
20000ce4:	afffffff 	.word	0xafffffff
20000ce8:	dfffffff 	.word	0xdfffffff

20000cec <hw_endpoint_xfer_continue>:
20000cec:	b570      	push	{r4, r5, r6, lr}
20000cee:	7e85      	ldrb	r5, [r0, #26]
20000cf0:	0004      	movs	r4, r0
20000cf2:	2d00      	cmp	r5, #0
20000cf4:	d014      	beq.n	20000d20 <hw_endpoint_xfer_continue+0x34>
20000cf6:	f7ff ff55 	bl	20000ba4 <_hw_endpoint_xfer_sync>
20000cfa:	8aa3      	ldrh	r3, [r4, #20]
20000cfc:	2b00      	cmp	r3, #0
20000cfe:	d101      	bne.n	20000d04 <hw_endpoint_xfer_continue+0x18>
20000d00:	0028      	movs	r0, r5
20000d02:	bd70      	pop	{r4, r5, r6, pc}
20000d04:	0020      	movs	r0, r4
20000d06:	f7ff ff75 	bl	20000bf4 <e15_is_critical_frame_period>
20000d0a:	2800      	cmp	r0, #0
20000d0c:	d003      	beq.n	20000d16 <hw_endpoint_xfer_continue+0x2a>
20000d0e:	2301      	movs	r3, #1
20000d10:	2500      	movs	r5, #0
20000d12:	7723      	strb	r3, [r4, #28]
20000d14:	e7f4      	b.n	20000d00 <hw_endpoint_xfer_continue+0x14>
20000d16:	0020      	movs	r0, r4
20000d18:	f7ff ffb4 	bl	20000c84 <hw_endpoint_start_next_buffer>
20000d1c:	2500      	movs	r5, #0
20000d1e:	e7ef      	b.n	20000d00 <hw_endpoint_xfer_continue+0x14>
20000d20:	7881      	ldrb	r1, [r0, #2]
20000d22:	4801      	ldr	r0, [pc, #4]	@ (20000d28 <hw_endpoint_xfer_continue+0x3c>)
20000d24:	f000 f908 	bl	20000f38 <__panic_veneer>
20000d28:	1000b70c 	.word	0x1000b70c

20000d2c <dcd_event_handler>:
20000d2c:	b5f0      	push	{r4, r5, r6, r7, lr}
20000d2e:	46ce      	mov	lr, r9
20000d30:	4647      	mov	r7, r8
20000d32:	b580      	push	{r7, lr}
20000d34:	7843      	ldrb	r3, [r0, #1]
20000d36:	0005      	movs	r5, r0
20000d38:	000e      	movs	r6, r1
20000d3a:	b085      	sub	sp, #20
20000d3c:	2b06      	cmp	r3, #6
20000d3e:	d808      	bhi.n	20000d52 <dcd_event_handler+0x26>
20000d40:	4a6c      	ldr	r2, [pc, #432]	@ (20000ef4 <dcd_event_handler+0x1c8>)
20000d42:	009b      	lsls	r3, r3, #2
20000d44:	58d3      	ldr	r3, [r2, r3]
20000d46:	469f      	mov	pc, r3
20000d48:	4a6b      	ldr	r2, [pc, #428]	@ (20000ef8 <dcd_event_handler+0x1cc>)
20000d4a:	7813      	ldrb	r3, [r2, #0]
20000d4c:	3301      	adds	r3, #1
20000d4e:	b2db      	uxtb	r3, r3
20000d50:	7013      	strb	r3, [r2, #0]
20000d52:	4b6a      	ldr	r3, [pc, #424]	@ (20000efc <dcd_event_handler+0x1d0>)
20000d54:	681c      	ldr	r4, [r3, #0]
20000d56:	6962      	ldr	r2, [r4, #20]
20000d58:	f3ef 8110 	mrs	r1, PRIMASK
20000d5c:	b672      	cpsid	i
20000d5e:	6813      	ldr	r3, [r2, #0]
20000d60:	2b00      	cmp	r3, #0
20000d62:	d0fc      	beq.n	20000d5e <dcd_event_handler+0x32>
20000d64:	f3bf 8f5f 	dmb	sy
20000d68:	61a1      	str	r1, [r4, #24]
20000d6a:	0020      	movs	r0, r4
20000d6c:	0029      	movs	r1, r5
20000d6e:	f000 f8fb 	bl	20000f68 <__tu_fifo_write_veneer>
20000d72:	6962      	ldr	r2, [r4, #20]
20000d74:	69a3      	ldr	r3, [r4, #24]
20000d76:	f3bf 8f5f 	dmb	sy
20000d7a:	2100      	movs	r1, #0
20000d7c:	6011      	str	r1, [r2, #0]
20000d7e:	f383 8810 	msr	PRIMASK, r3
20000d82:	2800      	cmp	r0, #0
20000d84:	d104      	bne.n	20000d90 <dcd_event_handler+0x64>
20000d86:	b005      	add	sp, #20
20000d88:	bcc0      	pop	{r6, r7}
20000d8a:	46b9      	mov	r9, r7
20000d8c:	46b0      	mov	r8, r6
20000d8e:	bdf0      	pop	{r4, r5, r6, r7, pc}
20000d90:	0032      	movs	r2, r6
20000d92:	7869      	ldrb	r1, [r5, #1]
20000d94:	7828      	ldrb	r0, [r5, #0]
20000d96:	f000 f8ef 	bl	20000f78 <__tud_event_hook_cb_veneer>
20000d9a:	e7f4      	b.n	20000d86 <dcd_event_handler+0x5a>
20000d9c:	2101      	movs	r1, #1
20000d9e:	4b58      	ldr	r3, [pc, #352]	@ (20000f00 <dcd_event_handler+0x1d4>)
20000da0:	781a      	ldrb	r2, [r3, #0]
20000da2:	438a      	bics	r2, r1
20000da4:	701a      	strb	r2, [r3, #0]
20000da6:	781a      	ldrb	r2, [r3, #0]
20000da8:	3101      	adds	r1, #1
20000daa:	438a      	bics	r2, r1
20000dac:	701a      	strb	r2, [r3, #0]
20000dae:	2200      	movs	r2, #0
20000db0:	705a      	strb	r2, [r3, #1]
20000db2:	781a      	ldrb	r2, [r3, #0]
20000db4:	3102      	adds	r1, #2
20000db6:	438a      	bics	r2, r1
20000db8:	701a      	strb	r2, [r3, #0]
20000dba:	e7ca      	b.n	20000d52 <dcd_event_handler+0x26>
20000dbc:	4951      	ldr	r1, [pc, #324]	@ (20000f04 <dcd_event_handler+0x1d8>)
20000dbe:	4f52      	ldr	r7, [pc, #328]	@ (20000f08 <dcd_event_handler+0x1dc>)
20000dc0:	4689      	mov	r9, r1
20000dc2:	4952      	ldr	r1, [pc, #328]	@ (20000f0c <dcd_event_handler+0x1e0>)
20000dc4:	2400      	movs	r4, #0
20000dc6:	2300      	movs	r3, #0
20000dc8:	4688      	mov	r8, r1
20000dca:	783a      	ldrb	r2, [r7, #0]
20000dcc:	e012      	b.n	20000df4 <dcd_event_handler+0xc8>
20000dce:	4643      	mov	r3, r8
20000dd0:	681b      	ldr	r3, [r3, #0]
20000dd2:	0161      	lsls	r1, r4, #5
20000dd4:	185b      	adds	r3, r3, r1
20000dd6:	2b00      	cmp	r3, #0
20000dd8:	d006      	beq.n	20000de8 <dcd_event_handler+0xbc>
20000dda:	69db      	ldr	r3, [r3, #28]
20000ddc:	2b00      	cmp	r3, #0
20000dde:	d003      	beq.n	20000de8 <dcd_event_handler+0xbc>
20000de0:	6869      	ldr	r1, [r5, #4]
20000de2:	7828      	ldrb	r0, [r5, #0]
20000de4:	4798      	blx	r3
20000de6:	783a      	ldrb	r2, [r7, #0]
20000de8:	3401      	adds	r4, #1
20000dea:	b2e4      	uxtb	r4, r4
20000dec:	1c51      	adds	r1, r2, #1
20000dee:	0023      	movs	r3, r4
20000df0:	42a1      	cmp	r1, r4
20000df2:	db17      	blt.n	20000e24 <dcd_event_handler+0xf8>
20000df4:	42a2      	cmp	r2, r4
20000df6:	d8ea      	bhi.n	20000dce <dcd_event_handler+0xa2>
20000df8:	1a9b      	subs	r3, r3, r2
20000dfa:	015b      	lsls	r3, r3, #5
20000dfc:	444b      	add	r3, r9
20000dfe:	e7ec      	b.n	20000dda <dcd_event_handler+0xae>
20000e00:	4b3f      	ldr	r3, [pc, #252]	@ (20000f00 <dcd_event_handler+0x1d4>)
20000e02:	781a      	ldrb	r2, [r3, #0]
20000e04:	07d2      	lsls	r2, r2, #31
20000e06:	d5be      	bpl.n	20000d86 <dcd_event_handler+0x5a>
20000e08:	2104      	movs	r1, #4
20000e0a:	781a      	ldrb	r2, [r3, #0]
20000e0c:	430a      	orrs	r2, r1
20000e0e:	701a      	strb	r2, [r3, #0]
20000e10:	e79f      	b.n	20000d52 <dcd_event_handler+0x26>
20000e12:	4b3b      	ldr	r3, [pc, #236]	@ (20000f00 <dcd_event_handler+0x1d4>)
20000e14:	781a      	ldrb	r2, [r3, #0]
20000e16:	07d2      	lsls	r2, r2, #31
20000e18:	d5b5      	bpl.n	20000d86 <dcd_event_handler+0x5a>
20000e1a:	2104      	movs	r1, #4
20000e1c:	781a      	ldrb	r2, [r3, #0]
20000e1e:	438a      	bics	r2, r1
20000e20:	701a      	strb	r2, [r3, #0]
20000e22:	e796      	b.n	20000d52 <dcd_event_handler+0x26>
20000e24:	4f36      	ldr	r7, [pc, #216]	@ (20000f00 <dcd_event_handler+0x1d4>)
20000e26:	783b      	ldrb	r3, [r7, #0]
20000e28:	075b      	lsls	r3, r3, #29
20000e2a:	d52b      	bpl.n	20000e84 <dcd_event_handler+0x158>
20000e2c:	2204      	movs	r2, #4
20000e2e:	783b      	ldrb	r3, [r7, #0]
20000e30:	2100      	movs	r1, #0
20000e32:	4393      	bics	r3, r2
20000e34:	703b      	strb	r3, [r7, #0]
20000e36:	466b      	mov	r3, sp
20000e38:	3206      	adds	r2, #6
20000e3a:	1d98      	adds	r0, r3, #6
20000e3c:	f000 f88c 	bl	20000f58 <____wrap_memset_veneer>
20000e40:	782b      	ldrb	r3, [r5, #0]
20000e42:	ac01      	add	r4, sp, #4
20000e44:	7023      	strb	r3, [r4, #0]
20000e46:	2305      	movs	r3, #5
20000e48:	7063      	strb	r3, [r4, #1]
20000e4a:	4b2c      	ldr	r3, [pc, #176]	@ (20000efc <dcd_event_handler+0x1d0>)
20000e4c:	681b      	ldr	r3, [r3, #0]
20000e4e:	4698      	mov	r8, r3
20000e50:	695a      	ldr	r2, [r3, #20]
20000e52:	f3ef 8110 	mrs	r1, PRIMASK
20000e56:	b672      	cpsid	i
20000e58:	6813      	ldr	r3, [r2, #0]
20000e5a:	2b00      	cmp	r3, #0
20000e5c:	d0fc      	beq.n	20000e58 <dcd_event_handler+0x12c>
20000e5e:	f3bf 8f5f 	dmb	sy
20000e62:	4643      	mov	r3, r8
20000e64:	4640      	mov	r0, r8
20000e66:	6199      	str	r1, [r3, #24]
20000e68:	0021      	movs	r1, r4
20000e6a:	f000 f87d 	bl	20000f68 <__tu_fifo_write_veneer>
20000e6e:	4643      	mov	r3, r8
20000e70:	695a      	ldr	r2, [r3, #20]
20000e72:	699b      	ldr	r3, [r3, #24]
20000e74:	f3bf 8f5f 	dmb	sy
20000e78:	2100      	movs	r1, #0
20000e7a:	6011      	str	r1, [r2, #0]
20000e7c:	f383 8810 	msr	PRIMASK, r3
20000e80:	2800      	cmp	r0, #0
20000e82:	d131      	bne.n	20000ee8 <dcd_event_handler+0x1bc>
20000e84:	78fb      	ldrb	r3, [r7, #3]
20000e86:	07db      	lsls	r3, r3, #31
20000e88:	d400      	bmi.n	20000e8c <dcd_event_handler+0x160>
20000e8a:	e77c      	b.n	20000d86 <dcd_event_handler+0x5a>
20000e8c:	466b      	mov	r3, sp
20000e8e:	220a      	movs	r2, #10
20000e90:	2100      	movs	r1, #0
20000e92:	1d98      	adds	r0, r3, #6
20000e94:	f000 f860 	bl	20000f58 <____wrap_memset_veneer>
20000e98:	782b      	ldrb	r3, [r5, #0]
20000e9a:	ac01      	add	r4, sp, #4
20000e9c:	7023      	strb	r3, [r4, #0]
20000e9e:	2303      	movs	r3, #3
20000ea0:	7063      	strb	r3, [r4, #1]
20000ea2:	686b      	ldr	r3, [r5, #4]
20000ea4:	6063      	str	r3, [r4, #4]
20000ea6:	4b15      	ldr	r3, [pc, #84]	@ (20000efc <dcd_event_handler+0x1d0>)
20000ea8:	681d      	ldr	r5, [r3, #0]
20000eaa:	696a      	ldr	r2, [r5, #20]
20000eac:	f3ef 8110 	mrs	r1, PRIMASK
20000eb0:	b672      	cpsid	i
20000eb2:	6813      	ldr	r3, [r2, #0]
20000eb4:	2b00      	cmp	r3, #0
20000eb6:	d0fc      	beq.n	20000eb2 <dcd_event_handler+0x186>
20000eb8:	f3bf 8f5f 	dmb	sy
20000ebc:	61a9      	str	r1, [r5, #24]
20000ebe:	0028      	movs	r0, r5
20000ec0:	0021      	movs	r1, r4
20000ec2:	f000 f851 	bl	20000f68 <__tu_fifo_write_veneer>
20000ec6:	696a      	ldr	r2, [r5, #20]
20000ec8:	69ab      	ldr	r3, [r5, #24]
20000eca:	f3bf 8f5f 	dmb	sy
20000ece:	2100      	movs	r1, #0
20000ed0:	6011      	str	r1, [r2, #0]
20000ed2:	f383 8810 	msr	PRIMASK, r3
20000ed6:	2800      	cmp	r0, #0
20000ed8:	d100      	bne.n	20000edc <dcd_event_handler+0x1b0>
20000eda:	e754      	b.n	20000d86 <dcd_event_handler+0x5a>
20000edc:	0032      	movs	r2, r6
20000ede:	7861      	ldrb	r1, [r4, #1]
20000ee0:	7820      	ldrb	r0, [r4, #0]
20000ee2:	f000 f849 	bl	20000f78 <__tud_event_hook_cb_veneer>
20000ee6:	e74e      	b.n	20000d86 <dcd_event_handler+0x5a>
20000ee8:	0032      	movs	r2, r6
20000eea:	7861      	ldrb	r1, [r4, #1]
20000eec:	7820      	ldrb	r0, [r4, #0]
20000eee:	f000 f843 	bl	20000f78 <__tud_event_hook_cb_veneer>
20000ef2:	e7c7      	b.n	20000e84 <dcd_event_handler+0x158>
20000ef4:	1000c480 	.word	0x1000c480
20000ef8:	20005302 	.word	0x20005302
20000efc:	20004850 	.word	0x20004850
20000f00:	200047f8 	.word	0x200047f8
20000f04:	1000c49c 	.word	0x1000c49c
20000f08:	20005300 	.word	0x20005300
20000f0c:	20004648 	.word	0x20004648

20000f10 <__aeabi_idiv0>:
20000f10:	4770      	bx	lr
20000f12:	46c0      	nop			@ (mov r8, r8)
20000f14:	0000      	movs	r0, r0
	...

20000f18 <____wrap___aeabi_lmul_veneer>:
20000f18:	b401      	push	{r0}
20000f1a:	4802      	ldr	r0, [pc, #8]	@ (20000f24 <____wrap___aeabi_lmul_veneer+0xc>)
20000f1c:	4684      	mov	ip, r0
20000f1e:	bc01      	pop	{r0}
20000f20:	4760      	bx	ip
20000f22:	bf00      	nop
20000f24:	100055d1 	.word	0x100055d1

20000f28 <__best_effort_wfe_or_timeout_veneer>:
20000f28:	b401      	push	{r0}
20000f2a:	4802      	ldr	r0, [pc, #8]	@ (20000f34 <__best_effort_wfe_or_timeout_veneer+0xc>)
20000f2c:	4684      	mov	ip, r0
20000f2e:	bc01      	pop	{r0}
20000f30:	4760      	bx	ip
20000f32:	bf00      	nop
20000f34:	10004331 	.word	0x10004331

20000f38 <__panic_veneer>:
20000f38:	b401      	push	{r0}
20000f3a:	4802      	ldr	r0, [pc, #8]	@ (20000f44 <__panic_veneer+0xc>)
20000f3c:	4684      	mov	ip, r0
20000f3e:	bc01      	pop	{r0}
20000f40:	4760      	bx	ip
20000f42:	bf00      	nop
20000f44:	1000346d 	.word	0x1000346d

20000f48 <__rp2040_chip_version_veneer>:
20000f48:	b401      	push	{r0}
20000f4a:	4802      	ldr	r0, [pc, #8]	@ (20000f54 <__rp2040_chip_version_veneer+0xc>)
20000f4c:	4684      	mov	ip, r0
20000f4e:	bc01      	pop	{r0}
20000f50:	4760      	bx	ip
20000f52:	bf00      	nop
20000f54:	10003461 	.word	0x10003461

20000f58 <____wrap_memset_veneer>:
20000f58:	b401      	push	{r0}
20000f5a:	4802      	ldr	r0, [pc, #8]	@ (20000f64 <____wrap_memset_veneer+0xc>)
20000f5c:	4684      	mov	ip, r0
20000f5e:	bc01      	pop	{r0}
20000f60:	4760      	bx	ip
20000f62:	bf00      	nop
20000f64:	10005759 	.word	0x10005759

20000f68 <__tu_fifo_write_veneer>:
20000f68:	b401      	push	{r0}
20000f6a:	4802      	ldr	r0, [pc, #8]	@ (20000f74 <__tu_fifo_write_veneer+0xc>)
20000f6c:	4684      	mov	ip, r0
20000f6e:	bc01      	pop	{r0}
20000f70:	4760      	bx	ip
20000f72:	bf00      	nop
20000f74:	10009a11 	.word	0x10009a11

20000f78 <__tud_event_hook_cb_veneer>:
20000f78:	b401      	push	{r0}
20000f7a:	4802      	ldr	r0, [pc, #8]	@ (20000f84 <__tud_event_hook_cb_veneer+0xc>)
20000f7c:	4684      	mov	ip, r0
20000f7e:	bc01      	pop	{r0}
20000f80:	4760      	bx	ip
20000f82:	bf00      	nop
20000f84:	10007fb1 	.word	0x10007fb1

20000f88 <__time_us_64_veneer>:
20000f88:	b401      	push	{r0}
20000f8a:	4802      	ldr	r0, [pc, #8]	@ (20000f94 <__time_us_64_veneer+0xc>)
20000f8c:	4684      	mov	ip, r0
20000f8e:	bc01      	pop	{r0}
20000f90:	4760      	bx	ip
20000f92:	bf00      	nop
20000f94:	10004461 	.word	0x10004461

20000f98 <intensidade.0>:
20000f98:	9999999a 3fb99999                       .......?

20000fa0 <menu_options_matrix>:
20000fa0:	1000b50c 1000b514 1000b520 1000b38c     ........ .......

20000fb0 <menu_options_joysticks>:
20000fb0:	1000b530 1000b53c 1000b54c 1000b38c     0...<...L.......

20000fc0 <menu_options_main>:
20000fc0:	1000b444 1000b474 1000b4ac 00000000     D...t...........

20000fd0 <cor>:
20000fd0:	00000000 40690000 00000000 00000000     ......i@........
20000fe0:	00000000 40490000                       ......I@

20000fe8 <heart_02>:
	...
20000ff4:	3ff00000 00000000 00000000 00000000     ...?............
20001004:	3ff00000 00000000 00000000 00000000     ...?............
20001014:	3ff00000 00000000 3ff00000 00000000     ...?.......?....
20001024:	3ff00000 00000000 3ff00000 00000000     ...?.......?....
20001034:	3ff00000 00000000 3ff00000 00000000     ...?.......?....
20001044:	3ff00000 00000000 3ff00000 00000000     ...?.......?....
20001054:	3ff00000 00000000 3ff00000 00000000     ...?.......?....
	...
2000106c:	3ff00000 00000000 3ff00000 00000000     ...?.......?....
2000107c:	3ff00000 00000000 00000000 00000000     ...?............
	...
2000109c:	3ff00000 00000000 00000000 00000000     ...?............
200010ac:	00000000                                ....

200010b0 <heart_01>:
	...
200010e4:	3ff00000 00000000 00000000 00000000     ...?............
200010f4:	3ff00000 00000000 00000000 00000000     ...?............
	...
2000110c:	3ff00000 00000000 3ff00000 00000000     ...?.......?....
2000111c:	3ff00000 00000000 00000000 00000000     ...?............
	...
2000113c:	3ff00000 00000000 00000000 00000000     ...?............
	...

20001178 <f_02>:
20001178:	00000000 3ff00000 00000000 3ff00000     .......?.......?
20001188:	00000000 3ff00000 00000000 3ff00000     .......?.......?
20001198:	00000000 3ff00000 00000000 3ff00000     .......?.......?
200011a8:	00000000 3ff00000 00000000 3ff00000     .......?.......?
200011b8:	00000000 3ff00000 00000000 3ff00000     .......?.......?
200011c8:	00000000 3ff00000 00000000 3ff00000     .......?.......?
200011d8:	00000000 3ff00000 00000000 3ff00000     .......?.......?
200011e8:	00000000 3ff00000 00000000 3ff00000     .......?.......?
200011f8:	00000000 3ff00000 00000000 3ff00000     .......?.......?
20001208:	00000000 3ff00000 00000000 3ff00000     .......?.......?
20001218:	00000000 3ff00000 00000000 3ff00000     .......?.......?
20001228:	00000000 3ff00000 00000000 3ff00000     .......?.......?
20001238:	00000000 3ff00000                       .......?

20001240 <letras_3x5>:
20001240:	20001f60 20001ee8 20001e70 20001df8     `.. ... p.. ... 
20001250:	20001d80 20001d08 20001c90 20001c18     ... ... ... ... 
20001260:	20001ba0 20001b28 20001ab0 20001a38     ... (.. ... 8.. 
20001270:	200019c0 20001948 200018d0 20001858     ... H.. ... X.. 
20001280:	200017e0 20001768 200016f0 20001678     ... h.. ... x.. 
20001290:	20001600 20001588 20001510 20001498     ... ... ... ... 
200012a0:	20001420 200013a8 20003eb0 20001330      .. ... .>. 0.. 
200012b0:	200012b8 00000000                       ... ....

200012b8 <f_ponto_fino>:
	...
20001324:	3ff00000 00000000 00000000              ...?........

20001330 <f_exclamation_fino>:
	...
2000133c:	3ff00000 00000000 00000000 00000000     ...?............
	...
20001354:	3ff00000 00000000 00000000 00000000     ...?............
	...
2000136c:	3ff00000 00000000 00000000 00000000     ...?............
	...
2000139c:	3ff00000 00000000 00000000              ...?........

200013a8 <f_Z_fino>:
200013a8:	00000000 3ff00000 00000000 3ff00000     .......?.......?
200013b8:	00000000 3ff00000 00000000 00000000     .......?........
	...
200013d4:	3ff00000 00000000 00000000 00000000     ...?............
200013e4:	3ff00000 00000000 00000000 00000000     ...?............
200013f4:	3ff00000 00000000 00000000 00000000     ...?............
	...
2000140c:	3ff00000 00000000 3ff00000 00000000     ...?.......?....
2000141c:	3ff00000                                ...?

20001420 <f_Y_fino>:
20001420:	00000000 3ff00000 00000000 00000000     .......?........
20001430:	00000000 3ff00000 00000000 3ff00000     .......?.......?
	...
2000144c:	3ff00000 00000000 00000000 00000000     ...?............
2000145c:	3ff00000 00000000 00000000 00000000     ...?............
	...
20001474:	3ff00000 00000000 00000000 00000000     ...?............
	...
2000148c:	3ff00000 00000000 00000000              ...?........

20001498 <f_X_fino>:
20001498:	00000000 3ff00000 00000000 00000000     .......?........
200014a8:	00000000 3ff00000 00000000 00000000     .......?........
200014b8:	00000000 3ff00000 00000000 00000000     .......?........
	...
200014d4:	3ff00000 00000000 00000000 00000000     ...?............
	...
200014ec:	3ff00000 00000000 00000000 00000000     ...?............
200014fc:	3ff00000 00000000 00000000 00000000     ...?............
2000150c:	3ff00000                                ...?

20001510 <f_W_fino>:
20001510:	00000000 3ff00000 00000000 00000000     .......?........
20001520:	00000000 3ff00000 00000000 3ff00000     .......?.......?
	...
2000153c:	3ff00000 00000000 3ff00000 00000000     ...?.......?....
2000154c:	3ff00000 00000000 3ff00000 00000000     ...?.......?....
2000155c:	3ff00000 00000000 00000000 00000000     ...?............
2000156c:	3ff00000 00000000 3ff00000 00000000     ...?.......?....
	...
20001584:	3ff00000                                ...?

20001588 <f_V_fino>:
20001588:	00000000 3ff00000 00000000 00000000     .......?........
20001598:	00000000 3ff00000 00000000 3ff00000     .......?.......?
	...
200015b4:	3ff00000 00000000 3ff00000 00000000     ...?.......?....
	...
200015cc:	3ff00000 00000000 00000000 00000000     ...?............
200015dc:	3ff00000 00000000 00000000 00000000     ...?............
	...
200015f4:	3ff00000 00000000 00000000              ...?........

20001600 <f_U_fino>:
20001600:	00000000 3ff00000 00000000 00000000     .......?........
20001610:	00000000 3ff00000 00000000 3ff00000     .......?.......?
	...
2000162c:	3ff00000 00000000 3ff00000 00000000     ...?.......?....
	...
20001644:	3ff00000 00000000 3ff00000 00000000     ...?.......?....
	...
2000165c:	3ff00000 00000000 00000000 00000000     ...?............
2000166c:	3ff00000 00000000 00000000              ...?........

20001678 <f_T_fino>:
20001678:	00000000 3ff00000 00000000 3ff00000     .......?.......?
20001688:	00000000 3ff00000 00000000 00000000     .......?........
20001698:	00000000 3ff00000 00000000 00000000     .......?........
	...
200016b4:	3ff00000 00000000 00000000 00000000     ...?............
	...
200016cc:	3ff00000 00000000 00000000 00000000     ...?............
	...
200016e4:	3ff00000 00000000 00000000              ...?........

200016f0 <f_S_fino>:
	...
200016fc:	3ff00000 00000000 3ff00000 00000000     ...?.......?....
2000170c:	3ff00000 00000000 00000000 00000000     ...?............
	...
2000172c:	3ff00000 00000000 00000000 00000000     ...?............
	...
2000174c:	3ff00000 00000000 3ff00000 00000000     ...?.......?....
2000175c:	3ff00000 00000000 00000000              ...?........

20001768 <f_R_fino>:
20001768:	00000000 3ff00000 00000000 3ff00000     .......?.......?
	...
20001784:	3ff00000 00000000 00000000 00000000     ...?............
20001794:	3ff00000 00000000 3ff00000 00000000     ...?.......?....
200017a4:	3ff00000 00000000 00000000 00000000     ...?............
200017b4:	3ff00000 00000000 00000000 00000000     ...?............
200017c4:	3ff00000 00000000 3ff00000 00000000     ...?.......?....
	...
200017dc:	3ff00000                                ...?

200017e0 <f_Q_fino>:
	...
200017ec:	3ff00000 00000000 00000000 00000000     ...?............
200017fc:	3ff00000 00000000 00000000 00000000     ...?............
2000180c:	3ff00000 00000000 3ff00000 00000000     ...?.......?....
	...
20001824:	3ff00000 00000000 3ff00000 00000000     ...?.......?....
	...
2000183c:	3ff00000 00000000 00000000 00000000     ...?............
2000184c:	3ff00000 00000000 3ff00000              ...?.......?

20001858 <f_P_fino>:
20001858:	00000000 3ff00000 00000000 3ff00000     .......?.......?
	...
20001874:	3ff00000 00000000 00000000 00000000     ...?............
20001884:	3ff00000 00000000 3ff00000 00000000     ...?.......?....
20001894:	3ff00000 00000000 00000000 00000000     ...?............
200018a4:	3ff00000 00000000 00000000 00000000     ...?............
	...
200018bc:	3ff00000 00000000 00000000 00000000     ...?............
200018cc:	00000000                                ....

200018d0 <f_O_fino>:
	...
200018dc:	3ff00000 00000000 00000000 00000000     ...?............
200018ec:	3ff00000 00000000 00000000 00000000     ...?............
200018fc:	3ff00000 00000000 3ff00000 00000000     ...?.......?....
	...
20001914:	3ff00000 00000000 3ff00000 00000000     ...?.......?....
	...
2000192c:	3ff00000 00000000 00000000 00000000     ...?............
2000193c:	3ff00000 00000000 00000000              ...?........

20001948 <f_N_fino>:
20001948:	00000000 3ff00000 00000000 00000000     .......?........
20001958:	00000000 3ff00000 00000000 3ff00000     .......?.......?
20001968:	00000000 3ff00000 00000000 3ff00000     .......?.......?
20001978:	00000000 3ff00000 00000000 00000000     .......?........
20001988:	00000000 3ff00000 00000000 3ff00000     .......?.......?
	...
200019a4:	3ff00000 00000000 3ff00000 00000000     ...?.......?....
	...
200019bc:	3ff00000                                ...?

200019c0 <f_M_fino>:
200019c0:	00000000 3ff00000 00000000 00000000     .......?........
200019d0:	00000000 3ff00000 00000000 3ff00000     .......?.......?
200019e0:	00000000 3ff00000 00000000 3ff00000     .......?.......?
200019f0:	00000000 3ff00000 00000000 00000000     .......?........
20001a00:	00000000 3ff00000 00000000 3ff00000     .......?.......?
	...
20001a1c:	3ff00000 00000000 3ff00000 00000000     ...?.......?....
	...
20001a34:	3ff00000                                ...?

20001a38 <f_L_fino>:
20001a38:	00000000 3ff00000 00000000 00000000     .......?........
	...
20001a54:	3ff00000 00000000 00000000 00000000     ...?............
	...
20001a6c:	3ff00000 00000000 00000000 00000000     ...?............
	...
20001a84:	3ff00000 00000000 00000000 00000000     ...?............
	...
20001a9c:	3ff00000 00000000 3ff00000 00000000     ...?.......?....
20001aac:	3ff00000                                ...?

20001ab0 <f_K_fino>:
20001ab0:	00000000 3ff00000 00000000 00000000     .......?........
20001ac0:	00000000 3ff00000 00000000 3ff00000     .......?.......?
20001ad0:	00000000 3ff00000 00000000 00000000     .......?........
20001ae0:	00000000 3ff00000 00000000 00000000     .......?........
	...
20001afc:	3ff00000 00000000 3ff00000 00000000     ...?.......?....
	...
20001b14:	3ff00000 00000000 00000000 00000000     ...?............
20001b24:	3ff00000                                ...?

20001b28 <f_J_fino>:
20001b28:	00000000 3ff00000 00000000 3ff00000     .......?.......?
20001b38:	00000000 3ff00000 00000000 00000000     .......?........
20001b48:	00000000 3ff00000 00000000 00000000     .......?........
	...
20001b64:	3ff00000 00000000 00000000 00000000     ...?............
20001b74:	3ff00000 00000000 3ff00000 00000000     ...?.......?....
	...
20001b94:	3ff00000 00000000 00000000              ...?........

20001ba0 <f_I_fino>:
	...
20001bac:	3ff00000 00000000 00000000 00000000     ...?............
	...
20001bc4:	3ff00000 00000000 00000000 00000000     ...?............
	...
20001bdc:	3ff00000 00000000 00000000 00000000     ...?............
	...
20001bf4:	3ff00000 00000000 00000000 00000000     ...?............
	...
20001c0c:	3ff00000 00000000 00000000              ...?........

20001c18 <f_H_fino>:
20001c18:	00000000 3ff00000 00000000 00000000     .......?........
20001c28:	00000000 3ff00000 00000000 3ff00000     .......?.......?
	...
20001c44:	3ff00000 00000000 3ff00000 00000000     ...?.......?....
20001c54:	3ff00000 00000000 3ff00000 00000000     ...?.......?....
20001c64:	3ff00000 00000000 00000000 00000000     ...?............
20001c74:	3ff00000 00000000 3ff00000 00000000     ...?.......?....
	...
20001c8c:	3ff00000                                ...?

20001c90 <f_G_fino>:
	...
20001c9c:	3ff00000 00000000 3ff00000 00000000     ...?.......?....
20001cac:	3ff00000 00000000 00000000 00000000     ...?............
	...
20001cc4:	3ff00000 00000000 00000000 00000000     ...?............
20001cd4:	3ff00000 00000000 3ff00000 00000000     ...?.......?....
	...
20001cec:	3ff00000 00000000 00000000 00000000     ...?............
20001cfc:	3ff00000 00000000 3ff00000              ...?.......?

20001d08 <f_F_fino>:
20001d08:	00000000 3ff00000 00000000 3ff00000     .......?.......?
20001d18:	00000000 3ff00000 00000000 3ff00000     .......?.......?
	...
20001d3c:	3ff00000 00000000 3ff00000 00000000     ...?.......?....
	...
20001d54:	3ff00000 00000000 00000000 00000000     ...?............
	...
20001d6c:	3ff00000 00000000 00000000 00000000     ...?............
20001d7c:	00000000                                ....

20001d80 <f_E_fino>:
20001d80:	00000000 3ff00000 00000000 3ff00000     .......?.......?
20001d90:	00000000 3ff00000 00000000 3ff00000     .......?.......?
	...
20001db4:	3ff00000 00000000 3ff00000 00000000     ...?.......?....
	...
20001dcc:	3ff00000 00000000 00000000 00000000     ...?............
	...
20001de4:	3ff00000 00000000 3ff00000 00000000     ...?.......?....
20001df4:	3ff00000                                ...?

20001df8 <f_D_fino>:
20001df8:	00000000 3ff00000 00000000 3ff00000     .......?.......?
	...
20001e14:	3ff00000 00000000 00000000 00000000     ...?............
20001e24:	3ff00000 00000000 3ff00000 00000000     ...?.......?....
	...
20001e3c:	3ff00000 00000000 3ff00000 00000000     ...?.......?....
	...
20001e54:	3ff00000 00000000 3ff00000 00000000     ...?.......?....
20001e64:	3ff00000 00000000 00000000              ...?........

20001e70 <f_C_fino>:
	...
20001e7c:	3ff00000 00000000 3ff00000 00000000     ...?.......?....
20001e8c:	3ff00000 00000000 00000000 00000000     ...?............
	...
20001ea4:	3ff00000 00000000 00000000 00000000     ...?............
	...
20001ebc:	3ff00000 00000000 00000000 00000000     ...?............
	...
20001edc:	3ff00000 00000000 3ff00000              ...?.......?

20001ee8 <f_B_fino>:
20001ee8:	00000000 3ff00000 00000000 3ff00000     .......?.......?
	...
20001f04:	3ff00000 00000000 00000000 00000000     ...?............
20001f14:	3ff00000 00000000 3ff00000 00000000     ...?.......?....
20001f24:	3ff00000 00000000 00000000 00000000     ...?............
20001f34:	3ff00000 00000000 00000000 00000000     ...?............
20001f44:	3ff00000 00000000 3ff00000 00000000     ...?.......?....
20001f54:	3ff00000 00000000 00000000              ...?........

20001f60 <f_A_fino>:
	...
20001f6c:	3ff00000 00000000 00000000 00000000     ...?............
20001f7c:	3ff00000 00000000 00000000 00000000     ...?............
20001f8c:	3ff00000 00000000 3ff00000 00000000     ...?.......?....
20001f9c:	3ff00000 00000000 3ff00000 00000000     ...?.......?....
20001fac:	3ff00000 00000000 00000000 00000000     ...?............
20001fbc:	3ff00000 00000000 3ff00000 00000000     ...?.......?....
	...
20001fd4:	3ff00000                                ...?

20001fd8 <letras_5x5>:
20001fd8:	20003568 200034a0 200033d8 20003310     h5. .4. .3. .3. 
20001fe8:	20003248 20003180 200030b8 20002ff0     H2. .1. .0. ./. 
20001ff8:	20002f28 20002e60 20002d98 20002cd0     (/. `.. .-. .,. 
20002008:	20002c08 20002b40 20002a78 200029b0     .,. @+. x*. .). 
20002018:	200028e8 20002820 20002758 20002690     .(.  (. X'. .&. 
20002028:	200025c8 20002500 20002438 20002370     .%. .%. 8$. p#. 
20002038:	200022a8 200021e0 20003de8 20002118     .". .!. .=. .!. 
20002048:	20002050 00000000                       P . ....

20002050 <f_ponto>:
	...
20002104:	3ff00000 00000000 00000000 00000000     ...?............
20002114:	00000000                                ....

20002118 <f_exclamation>:
	...
2000212c:	3ff00000 00000000 00000000 00000000     ...?............
	...
20002154:	3ff00000 00000000 00000000 00000000     ...?............
	...
2000217c:	3ff00000 00000000 00000000 00000000     ...?............
	...
200021cc:	3ff00000 00000000 00000000 00000000     ...?............
200021dc:	00000000                                ....

200021e0 <f_Z>:
200021e0:	00000000 3ff00000 00000000 3ff00000     .......?.......?
200021f0:	00000000 3ff00000 00000000 3ff00000     .......?.......?
20002200:	00000000 3ff00000 00000000 00000000     .......?........
	...
20002224:	3ff00000 00000000 00000000 00000000     ...?............
	...
20002244:	3ff00000 00000000 00000000 00000000     ...?............
	...
20002264:	3ff00000 00000000 00000000 00000000     ...?............
	...
20002284:	3ff00000 00000000 3ff00000 00000000     ...?.......?....
20002294:	3ff00000 00000000 3ff00000 00000000     ...?.......?....
200022a4:	3ff00000                                ...?

200022a8 <f_Y>:
200022a8:	00000000 3ff00000 00000000 00000000     .......?........
	...
200022cc:	3ff00000 00000000 00000000 00000000     ...?............
200022dc:	3ff00000 00000000 00000000 00000000     ...?............
200022ec:	3ff00000 00000000 00000000 00000000     ...?............
	...
2000230c:	3ff00000 00000000 00000000 00000000     ...?............
	...
20002334:	3ff00000 00000000 00000000 00000000     ...?............
	...
2000235c:	3ff00000 00000000 00000000 00000000     ...?............
2000236c:	00000000                                ....

20002370 <f_X>:
20002370:	00000000 3ff00000 00000000 00000000     .......?........
	...
20002394:	3ff00000 00000000 00000000 00000000     ...?............
200023a4:	3ff00000 00000000 00000000 00000000     ...?............
200023b4:	3ff00000 00000000 00000000 00000000     ...?............
	...
200023d4:	3ff00000 00000000 00000000 00000000     ...?............
	...
200023f4:	3ff00000 00000000 00000000 00000000     ...?............
20002404:	3ff00000 00000000 00000000 00000000     ...?............
20002414:	3ff00000 00000000 00000000 00000000     ...?............
	...
20002434:	3ff00000                                ...?

20002438 <f_W>:
20002438:	00000000 3ff00000 00000000 00000000     .......?........
	...
2000245c:	3ff00000 00000000 3ff00000 00000000     ...?.......?....
	...
20002484:	3ff00000 00000000 3ff00000 00000000     ...?.......?....
	...
2000249c:	3ff00000 00000000 00000000 00000000     ...?............
200024ac:	3ff00000 00000000 3ff00000 00000000     ...?.......?....
200024bc:	3ff00000 00000000 00000000 00000000     ...?............
200024cc:	3ff00000 00000000 3ff00000 00000000     ...?.......?....
200024dc:	3ff00000 00000000 00000000 00000000     ...?............
	...
200024fc:	3ff00000                                ...?

20002500 <f_V>:
20002500:	00000000 3ff00000 00000000 00000000     .......?........
	...
20002524:	3ff00000 00000000 3ff00000 00000000     ...?.......?....
	...
2000254c:	3ff00000 00000000 3ff00000 00000000     ...?.......?....
	...
20002574:	3ff00000 00000000 00000000 00000000     ...?............
20002584:	3ff00000 00000000 00000000 00000000     ...?............
20002594:	3ff00000 00000000 00000000 00000000     ...?............
	...
200025b4:	3ff00000 00000000 00000000 00000000     ...?............
200025c4:	00000000                                ....

200025c8 <f_U>:
200025c8:	00000000 3ff00000 00000000 00000000     .......?........
	...
200025ec:	3ff00000 00000000 3ff00000 00000000     ...?.......?....
	...
20002614:	3ff00000 00000000 3ff00000 00000000     ...?.......?....
	...
2000263c:	3ff00000 00000000 3ff00000 00000000     ...?.......?....
	...
20002664:	3ff00000 00000000 00000000 00000000     ...?............
20002674:	3ff00000 00000000 3ff00000 00000000     ...?.......?....
20002684:	3ff00000 00000000 00000000              ...?........

20002690 <f_T>:
20002690:	00000000 3ff00000 00000000 3ff00000     .......?.......?
200026a0:	00000000 3ff00000 00000000 3ff00000     .......?.......?
200026b0:	00000000 3ff00000 00000000 00000000     .......?........
	...
200026cc:	3ff00000 00000000 00000000 00000000     ...?............
	...
200026f4:	3ff00000 00000000 00000000 00000000     ...?............
	...
2000271c:	3ff00000 00000000 00000000 00000000     ...?............
	...
20002744:	3ff00000 00000000 00000000 00000000     ...?............
20002754:	00000000                                ....

20002758 <f_S>:
	...
20002764:	3ff00000 00000000 3ff00000 00000000     ...?.......?....
20002774:	3ff00000 00000000 00000000 00000000     ...?............
20002784:	3ff00000 00000000 00000000 00000000     ...?............
	...
200027b4:	3ff00000 00000000 3ff00000 00000000     ...?.......?....
200027c4:	3ff00000 00000000 00000000 00000000     ...?............
	...
200027f4:	3ff00000 00000000 00000000 00000000     ...?............
20002804:	3ff00000 00000000 3ff00000 00000000     ...?.......?....
20002814:	3ff00000 00000000 00000000              ...?........

20002820 <f_R>:
20002820:	00000000 3ff00000 00000000 3ff00000     .......?.......?
20002830:	00000000 3ff00000 00000000 3ff00000     .......?.......?
	...
2000284c:	3ff00000 00000000 00000000 00000000     ...?............
	...
2000286c:	3ff00000 00000000 3ff00000 00000000     ...?.......?....
2000287c:	3ff00000 00000000 3ff00000 00000000     ...?.......?....
2000288c:	3ff00000 00000000 00000000 00000000     ...?............
2000289c:	3ff00000 00000000 00000000 00000000     ...?............
	...
200028b4:	3ff00000 00000000 00000000 00000000     ...?............
200028c4:	3ff00000 00000000 00000000 00000000     ...?............
	...
200028e4:	3ff00000                                ...?

200028e8 <f_Q>:
	...
200028f4:	3ff00000 00000000 3ff00000 00000000     ...?.......?....
20002904:	3ff00000 00000000 00000000 00000000     ...?............
20002914:	3ff00000 00000000 00000000 00000000     ...?............
	...
20002934:	3ff00000 00000000 3ff00000 00000000     ...?.......?....
	...
2000295c:	3ff00000 00000000 3ff00000 00000000     ...?.......?....
	...
2000297c:	3ff00000 00000000 3ff00000 00000000     ...?.......?....
	...
20002994:	3ff00000 00000000 3ff00000 00000000     ...?.......?....
200029a4:	3ff00000 00000000 3ff00000              ...?.......?

200029b0 <f_P>:
200029b0:	00000000 3ff00000 00000000 3ff00000     .......?.......?
200029c0:	00000000 3ff00000 00000000 3ff00000     .......?.......?
	...
200029dc:	3ff00000 00000000 00000000 00000000     ...?............
	...
200029fc:	3ff00000 00000000 3ff00000 00000000     ...?.......?....
20002a0c:	3ff00000 00000000 3ff00000 00000000     ...?.......?....
20002a1c:	3ff00000 00000000 00000000 00000000     ...?............
20002a2c:	3ff00000 00000000 00000000 00000000     ...?............
	...
20002a54:	3ff00000 00000000 00000000 00000000     ...?............
	...

20002a78 <f_O>:
	...
20002a84:	3ff00000 00000000 3ff00000 00000000     ...?.......?....
20002a94:	3ff00000 00000000 00000000 00000000     ...?............
20002aa4:	3ff00000 00000000 00000000 00000000     ...?............
	...
20002ac4:	3ff00000 00000000 3ff00000 00000000     ...?.......?....
	...
20002aec:	3ff00000 00000000 3ff00000 00000000     ...?.......?....
	...
20002b14:	3ff00000 00000000 00000000 00000000     ...?............
20002b24:	3ff00000 00000000 3ff00000 00000000     ...?.......?....
20002b34:	3ff00000 00000000 00000000              ...?........

20002b40 <f_N>:
20002b40:	00000000 3ff00000 00000000 00000000     .......?........
	...
20002b64:	3ff00000 00000000 3ff00000 00000000     ...?.......?....
20002b74:	3ff00000 00000000 00000000 00000000     ...?............
	...
20002b8c:	3ff00000 00000000 3ff00000 00000000     ...?.......?....
	...
20002ba4:	3ff00000 00000000 00000000 00000000     ...?............
20002bb4:	3ff00000 00000000 3ff00000 00000000     ...?.......?....
	...
20002bd4:	3ff00000 00000000 3ff00000 00000000     ...?.......?....
20002be4:	3ff00000 00000000 00000000 00000000     ...?............
	...
20002c04:	3ff00000                                ...?

20002c08 <f_M>:
20002c08:	00000000 3ff00000 00000000 00000000     .......?........
	...
20002c2c:	3ff00000 00000000 3ff00000 00000000     ...?.......?....
20002c3c:	3ff00000 00000000 00000000 00000000     ...?............
20002c4c:	3ff00000 00000000 3ff00000 00000000     ...?.......?....
20002c5c:	3ff00000 00000000 00000000 00000000     ...?............
20002c6c:	3ff00000 00000000 00000000 00000000     ...?............
20002c7c:	3ff00000 00000000 3ff00000 00000000     ...?.......?....
	...
20002ca4:	3ff00000 00000000 3ff00000 00000000     ...?.......?....
	...
20002ccc:	3ff00000                                ...?

20002cd0 <f_L>:
20002cd0:	00000000 3ff00000 00000000 00000000     .......?........
	...
20002cfc:	3ff00000 00000000 00000000 00000000     ...?............
	...
20002d24:	3ff00000 00000000 00000000 00000000     ...?............
	...
20002d4c:	3ff00000 00000000 00000000 00000000     ...?............
	...
20002d74:	3ff00000 00000000 3ff00000 00000000     ...?.......?....
20002d84:	3ff00000 00000000 3ff00000 00000000     ...?.......?....
20002d94:	3ff00000                                ...?

20002d98 <f_K>:
20002d98:	00000000 3ff00000 00000000 00000000     .......?........
	...
20002dbc:	3ff00000 00000000 3ff00000 00000000     ...?.......?....
	...
20002ddc:	3ff00000 00000000 00000000 00000000     ...?............
20002dec:	3ff00000 00000000 3ff00000 00000000     ...?.......?....
20002dfc:	3ff00000 00000000 00000000 00000000     ...?............
	...
20002e14:	3ff00000 00000000 00000000 00000000     ...?............
	...
20002e2c:	3ff00000 00000000 00000000 00000000     ...?............
20002e3c:	3ff00000 00000000 00000000 00000000     ...?............
	...
20002e5c:	3ff00000                                ...?

20002e60 <f_J>:
20002e60:	00000000 3ff00000 00000000 3ff00000     .......?.......?
20002e70:	00000000 3ff00000 00000000 3ff00000     .......?.......?
20002e80:	00000000 3ff00000 00000000 00000000     .......?........
	...
20002e9c:	3ff00000 00000000 00000000 00000000     ...?............
	...
20002ec4:	3ff00000 00000000 00000000 00000000     ...?............
	...
20002edc:	3ff00000 00000000 00000000 00000000     ...?............
20002eec:	3ff00000 00000000 00000000 00000000     ...?............
	...
20002f0c:	3ff00000 00000000 00000000 00000000     ...?............
	...

20002f28 <f_I>:
	...
20002f34:	3ff00000 00000000 3ff00000 00000000     ...?.......?....
20002f44:	3ff00000 00000000 00000000 00000000     ...?............
	...
20002f64:	3ff00000 00000000 00000000 00000000     ...?............
	...
20002f8c:	3ff00000 00000000 00000000 00000000     ...?............
	...
20002fb4:	3ff00000 00000000 00000000 00000000     ...?............
	...
20002fd4:	3ff00000 00000000 3ff00000 00000000     ...?.......?....
20002fe4:	3ff00000 00000000 00000000              ...?........

20002ff0 <f_H>:
20002ff0:	00000000 3ff00000 00000000 00000000     .......?........
	...
20003014:	3ff00000 00000000 3ff00000 00000000     ...?.......?....
	...
2000303c:	3ff00000 00000000 3ff00000 00000000     ...?.......?....
2000304c:	3ff00000 00000000 3ff00000 00000000     ...?.......?....
2000305c:	3ff00000 00000000 3ff00000 00000000     ...?.......?....
2000306c:	3ff00000 00000000 00000000 00000000     ...?............
	...
2000308c:	3ff00000 00000000 3ff00000 00000000     ...?.......?....
	...
200030b4:	3ff00000                                ...?

200030b8 <f_G>:
	...
200030c4:	3ff00000 00000000 3ff00000 00000000     ...?.......?....
200030d4:	3ff00000 00000000 00000000 00000000     ...?............
200030e4:	3ff00000 00000000 00000000 00000000     ...?............
	...
2000310c:	3ff00000 00000000 00000000 00000000     ...?............
2000311c:	3ff00000 00000000 3ff00000 00000000     ...?.......?....
2000312c:	3ff00000 00000000 3ff00000 00000000     ...?.......?....
	...
20003154:	3ff00000 00000000 00000000 00000000     ...?............
20003164:	3ff00000 00000000 3ff00000 00000000     ...?.......?....
20003174:	3ff00000 00000000 00000000              ...?........

20003180 <f_F>:
20003180:	00000000 3ff00000 00000000 3ff00000     .......?.......?
20003190:	00000000 3ff00000 00000000 3ff00000     .......?.......?
200031a0:	00000000 3ff00000 00000000 3ff00000     .......?.......?
	...
200031d4:	3ff00000 00000000 3ff00000 00000000     ...?.......?....
200031e4:	3ff00000 00000000 3ff00000 00000000     ...?.......?....
	...
200031fc:	3ff00000 00000000 00000000 00000000     ...?............
	...
20003224:	3ff00000 00000000 00000000 00000000     ...?............
	...

20003248 <f_E>:
20003248:	00000000 3ff00000 00000000 3ff00000     .......?.......?
20003258:	00000000 3ff00000 00000000 3ff00000     .......?.......?
20003268:	00000000 3ff00000 00000000 3ff00000     .......?.......?
	...
2000329c:	3ff00000 00000000 3ff00000 00000000     ...?.......?....
200032ac:	3ff00000 00000000 3ff00000 00000000     ...?.......?....
	...
200032c4:	3ff00000 00000000 00000000 00000000     ...?............
	...
200032ec:	3ff00000 00000000 3ff00000 00000000     ...?.......?....
200032fc:	3ff00000 00000000 3ff00000 00000000     ...?.......?....
2000330c:	3ff00000                                ...?

20003310 <f_D>:
20003310:	00000000 3ff00000 00000000 3ff00000     .......?.......?
20003320:	00000000 3ff00000 00000000 3ff00000     .......?.......?
	...
2000333c:	3ff00000 00000000 00000000 00000000     ...?............
	...
2000335c:	3ff00000 00000000 3ff00000 00000000     ...?.......?....
	...
20003384:	3ff00000 00000000 3ff00000 00000000     ...?.......?....
	...
200033ac:	3ff00000 00000000 3ff00000 00000000     ...?.......?....
200033bc:	3ff00000 00000000 3ff00000 00000000     ...?.......?....
200033cc:	3ff00000 00000000 00000000              ...?........

200033d8 <f_C>:
	...
200033e4:	3ff00000 00000000 3ff00000 00000000     ...?.......?....
200033f4:	3ff00000 00000000 00000000 00000000     ...?............
20003404:	3ff00000 00000000 00000000 00000000     ...?............
	...
2000342c:	3ff00000 00000000 00000000 00000000     ...?............
	...
20003454:	3ff00000 00000000 00000000 00000000     ...?............
	...
20003484:	3ff00000 00000000 3ff00000 00000000     ...?.......?....
20003494:	3ff00000 00000000 00000000              ...?........

200034a0 <f_B>:
200034a0:	00000000 3ff00000 00000000 3ff00000     .......?.......?
200034b0:	00000000 3ff00000 00000000 3ff00000     .......?.......?
	...
200034cc:	3ff00000 00000000 00000000 00000000     ...?............
	...
200034ec:	3ff00000 00000000 3ff00000 00000000     ...?.......?....
200034fc:	3ff00000 00000000 3ff00000 00000000     ...?.......?....
2000350c:	3ff00000 00000000 00000000 00000000     ...?............
2000351c:	3ff00000 00000000 00000000 00000000     ...?............
	...
2000353c:	3ff00000 00000000 3ff00000 00000000     ...?.......?....
2000354c:	3ff00000 00000000 3ff00000 00000000     ...?.......?....
2000355c:	3ff00000 00000000 00000000              ...?........

20003568 <f_A>:
	...
20003574:	3ff00000 00000000 3ff00000 00000000     ...?.......?....
20003584:	3ff00000 00000000 00000000 00000000     ...?............
20003594:	3ff00000 00000000 00000000 00000000     ...?............
	...
200035b4:	3ff00000 00000000 3ff00000 00000000     ...?.......?....
200035c4:	3ff00000 00000000 3ff00000 00000000     ...?.......?....
200035d4:	3ff00000 00000000 3ff00000 00000000     ...?.......?....
200035e4:	3ff00000 00000000 00000000 00000000     ...?............
	...
20003604:	3ff00000 00000000 3ff00000 00000000     ...?.......?....
	...
2000362c:	3ff00000                                ...?

20003630 <striped_spin_lock_num>:
20003630:	00000010                                ....

20003634 <irq_handler_chain_slots>:
20003634:	00000000 	.word	0x00000000
20003638:	00010000 	.word	0x00010000
	...
20003644:	00020000 	.word	0x00020000
	...
20003650:	00030000 	.word	0x00030000
	...
2000365c:	00ff0000 	.word	0x00ff0000
20003660:	00000000 	.word	0x00000000

20003664 <irq_handler_chain_first_slot>:
20003664:	b501      	push	{r0, lr}
20003666:	6848      	ldr	r0, [r1, #4]
20003668:	3101      	adds	r1, #1
2000366a:	468e      	mov	lr, r1
2000366c:	4700      	bx	r0

2000366e <irq_handler_chain_remove_tail>:
2000366e:	4670      	mov	r0, lr
20003670:	3809      	subs	r0, #9
20003672:	4901      	ldr	r1, [pc, #4]	@ (20003678 <irq_handler_chain_remove_tail+0xa>)
20003674:	4788      	blx	r1
20003676:	bd01      	pop	{r0, pc}
20003678:	10003a9d 	.word	0x10003a9d

2000367c <default_alarm_pool>:
	...
20003690:	20003c68 00000000 00000000 00000000     h<. ............

200036a0 <aeabi_bits_funcs>:
200036a0:	00003350 	.word	0x00003350
200036a4:	0000334c 	.word	0x0000334c
200036a8:	00003354 	.word	0x00003354
200036ac:	00003352 	.word	0x00003352

200036b0 <aeabi_bits_funcs_end>:
200036b0:	0000534d 	.word	0x0000534d
200036b4:	0000434d 	.word	0x0000434d
200036b8:	00003453 	.word	0x00003453
200036bc:	00003443 	.word	0x00003443

200036c0 <stdio_usb>:
200036c0:	10007771 10007725 10007699 10007611     qw..%w...v...v..
200036d0:	00000000 00000100                       ........

200036d8 <_usbd_qdef>:
200036d8:	20004854 000c0010 00000000 00000000     TH. ............
	...

200036f4 <_usbd_rhport>:
200036f4:	000000ff                                ....

200036f8 <i2c1_inst>:
200036f8:	40048000 00000000                       ...@....

20003700 <i2c0_inst>:
20003700:	40044000 00000000                       .@.@....

20003708 <__malloc_sbrk_base>:
20003708:	ffffffff                                ....

2000370c <__malloc_trim_threshold>:
2000370c:	00020000                                ....

20003710 <__malloc_av_>:
	...
20003718:	20003710 20003710 20003718 20003718     .7. .7. .7. .7. 
20003728:	20003720 20003720 20003728 20003728      7.  7. (7. (7. 
20003738:	20003730 20003730 20003738 20003738     07. 07. 87. 87. 
20003748:	20003740 20003740 20003748 20003748     @7. @7. H7. H7. 
20003758:	20003750 20003750 20003758 20003758     P7. P7. X7. X7. 
20003768:	20003760 20003760 20003768 20003768     `7. `7. h7. h7. 
20003778:	20003770 20003770 20003778 20003778     p7. p7. x7. x7. 
20003788:	20003780 20003780 20003788 20003788     .7. .7. .7. .7. 
20003798:	20003790 20003790 20003798 20003798     .7. .7. .7. .7. 
200037a8:	200037a0 200037a0 200037a8 200037a8     .7. .7. .7. .7. 
200037b8:	200037b0 200037b0 200037b8 200037b8     .7. .7. .7. .7. 
200037c8:	200037c0 200037c0 200037c8 200037c8     .7. .7. .7. .7. 
200037d8:	200037d0 200037d0 200037d8 200037d8     .7. .7. .7. .7. 
200037e8:	200037e0 200037e0 200037e8 200037e8     .7. .7. .7. .7. 
200037f8:	200037f0 200037f0 200037f8 200037f8     .7. .7. .7. .7. 
20003808:	20003800 20003800 20003808 20003808     .8. .8. .8. .8. 
20003818:	20003810 20003810 20003818 20003818     .8. .8. .8. .8. 
20003828:	20003820 20003820 20003828 20003828      8.  8. (8. (8. 
20003838:	20003830 20003830 20003838 20003838     08. 08. 88. 88. 
20003848:	20003840 20003840 20003848 20003848     @8. @8. H8. H8. 
20003858:	20003850 20003850 20003858 20003858     P8. P8. X8. X8. 
20003868:	20003860 20003860 20003868 20003868     `8. `8. h8. h8. 
20003878:	20003870 20003870 20003878 20003878     p8. p8. x8. x8. 
20003888:	20003880 20003880 20003888 20003888     .8. .8. .8. .8. 
20003898:	20003890 20003890 20003898 20003898     .8. .8. .8. .8. 
200038a8:	200038a0 200038a0 200038a8 200038a8     .8. .8. .8. .8. 
200038b8:	200038b0 200038b0 200038b8 200038b8     .8. .8. .8. .8. 
200038c8:	200038c0 200038c0 200038c8 200038c8     .8. .8. .8. .8. 
200038d8:	200038d0 200038d0 200038d8 200038d8     .8. .8. .8. .8. 
200038e8:	200038e0 200038e0 200038e8 200038e8     .8. .8. .8. .8. 
200038f8:	200038f0 200038f0 200038f8 200038f8     .8. .8. .8. .8. 
20003908:	20003900 20003900 20003908 20003908     .9. .9. .9. .9. 
20003918:	20003910 20003910 20003918 20003918     .9. .9. .9. .9. 
20003928:	20003920 20003920 20003928 20003928      9.  9. (9. (9. 
20003938:	20003930 20003930 20003938 20003938     09. 09. 89. 89. 
20003948:	20003940 20003940 20003948 20003948     @9. @9. H9. H9. 
20003958:	20003950 20003950 20003958 20003958     P9. P9. X9. X9. 
20003968:	20003960 20003960 20003968 20003968     `9. `9. h9. h9. 
20003978:	20003970 20003970 20003978 20003978     p9. p9. x9. x9. 
20003988:	20003980 20003980 20003988 20003988     .9. .9. .9. .9. 
20003998:	20003990 20003990 20003998 20003998     .9. .9. .9. .9. 
200039a8:	200039a0 200039a0 200039a8 200039a8     .9. .9. .9. .9. 
200039b8:	200039b0 200039b0 200039b8 200039b8     .9. .9. .9. .9. 
200039c8:	200039c0 200039c0 200039c8 200039c8     .9. .9. .9. .9. 
200039d8:	200039d0 200039d0 200039d8 200039d8     .9. .9. .9. .9. 
200039e8:	200039e0 200039e0 200039e8 200039e8     .9. .9. .9. .9. 
200039f8:	200039f0 200039f0 200039f8 200039f8     .9. .9. .9. .9. 
20003a08:	20003a00 20003a00 20003a08 20003a08     .:. .:. .:. .:. 
20003a18:	20003a10 20003a10 20003a18 20003a18     .:. .:. .:. .:. 
20003a28:	20003a20 20003a20 20003a28 20003a28      :.  :. (:. (:. 
20003a38:	20003a30 20003a30 20003a38 20003a38     0:. 0:. 8:. 8:. 
20003a48:	20003a40 20003a40 20003a48 20003a48     @:. @:. H:. H:. 
20003a58:	20003a50 20003a50 20003a58 20003a58     P:. P:. X:. X:. 
20003a68:	20003a60 20003a60 20003a68 20003a68     `:. `:. h:. h:. 
20003a78:	20003a70 20003a70 20003a78 20003a78     p:. p:. x:. x:. 
20003a88:	20003a80 20003a80 20003a88 20003a88     .:. .:. .:. .:. 
20003a98:	20003a90 20003a90 20003a98 20003a98     .:. .:. .:. .:. 
20003aa8:	20003aa0 20003aa0 20003aa8 20003aa8     .:. .:. .:. .:. 
20003ab8:	20003ab0 20003ab0 20003ab8 20003ab8     .:. .:. .:. .:. 
20003ac8:	20003ac0 20003ac0 20003ac8 20003ac8     .:. .:. .:. .:. 
20003ad8:	20003ad0 20003ad0 20003ad8 20003ad8     .:. .:. .:. .:. 
20003ae8:	20003ae0 20003ae0 20003ae8 20003ae8     .:. .:. .:. .:. 
20003af8:	20003af0 20003af0 20003af8 20003af8     .:. .:. .:. .:. 
20003b08:	20003b00 20003b00 20003b08 20003b08     .;. .;. .;. .;. 

20003b18 <_impure_ptr>:
20003b18:	20003b20 00000000                        ;. ....

20003b20 <_impure_data>:
20003b20:	00000000 20004510 20004578 200045e0     .....E. xE. .E. 
	...
20003bb8:	00000001 00000000 abcd330e e66d1234     .........3..4.m.
20003bc8:	0005deec 0000000b 00000000 00000000     ................
	...

20003c60 <print_mutex>:
	...
